
bm.riscv:     file format elf64-littleriscv


Disassembly of section .text:

0000000000010000 <_ftext>:
   10000:	0000e197          	auipc	gp,0xe
   10004:	86018193          	addi	gp,gp,-1952 # 1d860 <_gp>
   10008:	0000d297          	auipc	t0,0xd
   1000c:	10828293          	addi	t0,t0,264 # 1d110 <_PathLocale>
   10010:	0000d317          	auipc	t1,0xd
   10014:	1a030313          	addi	t1,t1,416 # 1d1b0 <_end>
   10018:	0002b023          	sd	zero,0(t0)
   1001c:	00828293          	addi	t0,t0,8
   10020:	fe62ece3          	bltu	t0,t1,10018 <_ftext+0x18>
   10024:	00000517          	auipc	a0,0x0
   10028:	2cc50513          	addi	a0,a0,716 # 102f0 <__libc_fini_array>
   1002c:	1e0000ef          	jal	1020c <atexit>
   10030:	220000ef          	jal	10250 <__libc_init_array>
   10034:	00012503          	lw	a0,0(sp)
   10038:	00810593          	addi	a1,sp,8
   1003c:	00000613          	li	a2,0
   10040:	0f8000ef          	jal	10138 <main>
   10044:	1dc0006f          	j	10220 <exit>

0000000000010048 <_fini>:
   10048:	00008067          	ret

000000000001004c <deregister_tm_clones>:
   1004c:	80018713          	addi	a4,gp,-2048 # 1d060 <_edata>
   10050:	80718793          	addi	a5,gp,-2041 # 1d067 <_edata+0x7>
   10054:	40e787b3          	sub	a5,a5,a4
   10058:	00e00713          	li	a4,14
   1005c:	00f77a63          	bleu	a5,a4,10070 <deregister_tm_clones+0x24>
   10060:	00000293          	li	t0,0
   10064:	00028663          	beqz	t0,10070 <deregister_tm_clones+0x24>
   10068:	80018513          	addi	a0,gp,-2048 # 1d060 <_edata>
   1006c:	00028067          	jr	t0
   10070:	00008067          	ret

0000000000010074 <register_tm_clones>:
   10074:	80018593          	addi	a1,gp,-2048 # 1d060 <_edata>
   10078:	80018793          	addi	a5,gp,-2048 # 1d060 <_edata>
   1007c:	40b787b3          	sub	a5,a5,a1
   10080:	4037d793          	srai	a5,a5,0x3
   10084:	03f7d593          	srli	a1,a5,0x3f
   10088:	00f585b3          	add	a1,a1,a5
   1008c:	4015d593          	srai	a1,a1,0x1
   10090:	00058a63          	beqz	a1,100a4 <register_tm_clones+0x30>
   10094:	00000293          	li	t0,0
   10098:	00028663          	beqz	t0,100a4 <register_tm_clones+0x30>
   1009c:	80018513          	addi	a0,gp,-2048 # 1d060 <_edata>
   100a0:	00028067          	jr	t0
   100a4:	00008067          	ret

00000000000100a8 <__do_global_dtors_aux>:
   100a8:	ff010113          	addi	sp,sp,-16
   100ac:	00813023          	sd	s0,0(sp)
   100b0:	8e01c783          	lbu	a5,-1824(gp) # 1d140 <_bss_start>
   100b4:	00113423          	sd	ra,8(sp)
   100b8:	02079263          	bnez	a5,100dc <__do_global_dtors_aux+0x34>
   100bc:	f91ff0ef          	jal	1004c <deregister_tm_clones>
   100c0:	00000793          	li	a5,0
   100c4:	00078863          	beqz	a5,100d4 <__do_global_dtors_aux+0x2c>
   100c8:	0001b537          	lui	a0,0x1b
   100cc:	c8850513          	addi	a0,a0,-888 # 1ac88 <__fini_array_end>
   100d0:	f31ef0ef          	jal	0 <_ftext-0x10000>
   100d4:	00100793          	li	a5,1
   100d8:	8ef18023          	sb	a5,-1824(gp) # 1d140 <_bss_start>
   100dc:	00813083          	ld	ra,8(sp)
   100e0:	00013403          	ld	s0,0(sp)
   100e4:	01010113          	addi	sp,sp,16
   100e8:	00008067          	ret

00000000000100ec <frame_dummy>:
   100ec:	ff010113          	addi	sp,sp,-16
   100f0:	00000793          	li	a5,0
   100f4:	00113423          	sd	ra,8(sp)
   100f8:	00078a63          	beqz	a5,1010c <frame_dummy+0x20>
   100fc:	0001b537          	lui	a0,0x1b
   10100:	c8850513          	addi	a0,a0,-888 # 1ac88 <__fini_array_end>
   10104:	8e818593          	addi	a1,gp,-1816 # 1d148 <object.2878>
   10108:	ef9ef0ef          	jal	0 <_ftext-0x10000>
   1010c:	0001c537          	lui	a0,0x1c
   10110:	0d850513          	addi	a0,a0,216 # 1c0d8 <__JCR_END__>
   10114:	00053783          	ld	a5,0(a0)
   10118:	00079863          	bnez	a5,10128 <frame_dummy+0x3c>
   1011c:	00813083          	ld	ra,8(sp)
   10120:	01010113          	addi	sp,sp,16
   10124:	f51ff06f          	j	10074 <register_tm_clones>
   10128:	00000793          	li	a5,0
   1012c:	fe0788e3          	beqz	a5,1011c <frame_dummy+0x30>
   10130:	000780e7          	jalr	a5
   10134:	fe9ff06f          	j	1011c <frame_dummy+0x30>

0000000000010138 <main>:
   10138:	fd010113          	addi	sp,sp,-48
   1013c:	02113423          	sd	ra,40(sp)
   10140:	02813023          	sd	s0,32(sp)
   10144:	00913c23          	sd	s1,24(sp)
   10148:	01213823          	sd	s2,16(sp)
   1014c:	03010413          	addi	s0,sp,48
   10150:	00000913          	li	s2,0
   10154:	00000493          	li	s1,0
   10158:	fc042e23          	sw	zero,-36(s0)
   1015c:	06c0006f          	j	101c8 <main+0x90>
   10160:	290000ef          	jal	103f0 <rand>
   10164:	fca42c23          	sw	a0,-40(s0)
   10168:	fd842783          	lw	a5,-40(s0)
   1016c:	0017f793          	andi	a5,a5,1
   10170:	00078663          	beqz	a5,1017c <main+0x44>
   10174:	0019091b          	addiw	s2,s2,1
   10178:	0080006f          	j	10180 <main+0x48>
   1017c:	0014849b          	addiw	s1,s1,1
   10180:	00a00793          	li	a5,10
   10184:	02f947bb          	divw	a5,s2,a5
   10188:	00078913          	mv	s2,a5
   1018c:	00a00793          	li	a5,10
   10190:	02f4c7bb          	divw	a5,s1,a5
   10194:	00078493          	mv	s1,a5
   10198:	0299493b          	divw	s2,s2,s1
   1019c:	0099093b          	addw	s2,s2,s1
   101a0:	0324c4bb          	divw	s1,s1,s2
   101a4:	0014849b          	addiw	s1,s1,1
   101a8:	4099093b          	subw	s2,s2,s1
   101ac:	244000ef          	jal	103f0 <rand>
   101b0:	00050913          	mv	s2,a0
   101b4:	23c000ef          	jal	103f0 <rand>
   101b8:	00050493          	mv	s1,a0
   101bc:	fdc42783          	lw	a5,-36(s0)
   101c0:	0017879b          	addiw	a5,a5,1
   101c4:	fcf42e23          	sw	a5,-36(s0)
   101c8:	fdc42703          	lw	a4,-36(s0)
   101cc:	000027b7          	lui	a5,0x2
   101d0:	70f7879b          	addiw	a5,a5,1807
   101d4:	f8e7d6e3          	ble	a4,a5,10160 <main+0x28>
   101d8:	0001a7b7          	lui	a5,0x1a
   101dc:	61078513          	addi	a0,a5,1552 # 1a610 <__errno+0x8>
   101e0:	00090593          	mv	a1,s2
   101e4:	00048613          	mv	a2,s1
   101e8:	1a4000ef          	jal	1038c <printf>
   101ec:	00000793          	li	a5,0
   101f0:	00078513          	mv	a0,a5
   101f4:	02813083          	ld	ra,40(sp)
   101f8:	02013403          	ld	s0,32(sp)
   101fc:	01813483          	ld	s1,24(sp)
   10200:	01013903          	ld	s2,16(sp)
   10204:	03010113          	addi	sp,sp,48
   10208:	00008067          	ret

000000000001020c <atexit>:
   1020c:	00050593          	mv	a1,a0
   10210:	00000613          	li	a2,0
   10214:	00000513          	li	a0,0
   10218:	00000693          	li	a3,0
   1021c:	5710106f          	j	11f8c <__register_exitproc>

0000000000010220 <exit>:
   10220:	ff010113          	addi	sp,sp,-16
   10224:	00000593          	li	a1,0
   10228:	00813023          	sd	s0,0(sp)
   1022c:	00113423          	sd	ra,8(sp)
   10230:	00050413          	mv	s0,a0
   10234:	65d010ef          	jal	12090 <__call_exitprocs>
   10238:	8081b503          	ld	a0,-2040(gp) # 1d068 <_global_impure_ptr>
   1023c:	05853783          	ld	a5,88(a0)
   10240:	00078463          	beqz	a5,10248 <exit+0x28>
   10244:	000780e7          	jalr	a5
   10248:	00040513          	mv	a0,s0
   1024c:	035080ef          	jal	18a80 <_exit>

0000000000010250 <__libc_init_array>:
   10250:	fe010113          	addi	sp,sp,-32
   10254:	00813823          	sd	s0,16(sp)
   10258:	0001b7b7          	lui	a5,0x1b
   1025c:	0001b437          	lui	s0,0x1b
   10260:	01213023          	sd	s2,0(sp)
   10264:	c7878793          	addi	a5,a5,-904 # 1ac78 <_etext>
   10268:	c7840913          	addi	s2,s0,-904 # 1ac78 <_etext>
   1026c:	41278933          	sub	s2,a5,s2
   10270:	40395913          	srai	s2,s2,0x3
   10274:	00913423          	sd	s1,8(sp)
   10278:	00113c23          	sd	ra,24(sp)
   1027c:	c7840413          	addi	s0,s0,-904
   10280:	00000493          	li	s1,0
   10284:	00090c63          	beqz	s2,1029c <__libc_init_array+0x4c>
   10288:	00043783          	ld	a5,0(s0)
   1028c:	00148493          	addi	s1,s1,1
   10290:	00840413          	addi	s0,s0,8
   10294:	000780e7          	jalr	a5
   10298:	fe9918e3          	bne	s2,s1,10288 <__libc_init_array+0x38>
   1029c:	0001b437          	lui	s0,0x1b
   102a0:	da9ff0ef          	jal	10048 <_fini>
   102a4:	0001b7b7          	lui	a5,0x1b
   102a8:	c7840913          	addi	s2,s0,-904 # 1ac78 <_etext>
   102ac:	c8078793          	addi	a5,a5,-896 # 1ac80 <__init_array_end>
   102b0:	41278933          	sub	s2,a5,s2
   102b4:	40395913          	srai	s2,s2,0x3
   102b8:	c7840413          	addi	s0,s0,-904
   102bc:	00000493          	li	s1,0
   102c0:	00090c63          	beqz	s2,102d8 <__libc_init_array+0x88>
   102c4:	00043783          	ld	a5,0(s0)
   102c8:	00148493          	addi	s1,s1,1
   102cc:	00840413          	addi	s0,s0,8
   102d0:	000780e7          	jalr	a5
   102d4:	fe9918e3          	bne	s2,s1,102c4 <__libc_init_array+0x74>
   102d8:	01813083          	ld	ra,24(sp)
   102dc:	01013403          	ld	s0,16(sp)
   102e0:	00813483          	ld	s1,8(sp)
   102e4:	00013903          	ld	s2,0(sp)
   102e8:	02010113          	addi	sp,sp,32
   102ec:	00008067          	ret

00000000000102f0 <__libc_fini_array>:
   102f0:	fe010113          	addi	sp,sp,-32
   102f4:	00813823          	sd	s0,16(sp)
   102f8:	0001b7b7          	lui	a5,0x1b
   102fc:	0001b437          	lui	s0,0x1b
   10300:	c8040413          	addi	s0,s0,-896 # 1ac80 <__init_array_end>
   10304:	c8878793          	addi	a5,a5,-888 # 1ac88 <__fini_array_end>
   10308:	408787b3          	sub	a5,a5,s0
   1030c:	00913423          	sd	s1,8(sp)
   10310:	4037d493          	srai	s1,a5,0x3
   10314:	00113c23          	sd	ra,24(sp)
   10318:	00878433          	add	s0,a5,s0
   1031c:	00048c63          	beqz	s1,10334 <__libc_fini_array+0x44>
   10320:	ff843783          	ld	a5,-8(s0)
   10324:	fff48493          	addi	s1,s1,-1
   10328:	ff840413          	addi	s0,s0,-8
   1032c:	000780e7          	jalr	a5
   10330:	fe0498e3          	bnez	s1,10320 <__libc_fini_array+0x30>
   10334:	01813083          	ld	ra,24(sp)
   10338:	01013403          	ld	s0,16(sp)
   1033c:	00813483          	ld	s1,8(sp)
   10340:	02010113          	addi	sp,sp,32
   10344:	d05ff06f          	j	10048 <_fini>

0000000000010348 <_printf_r>:
   10348:	fb010113          	addi	sp,sp,-80
   1034c:	02c13023          	sd	a2,32(sp)
   10350:	02d13423          	sd	a3,40(sp)
   10354:	02f13c23          	sd	a5,56(sp)
   10358:	02e13823          	sd	a4,48(sp)
   1035c:	05013023          	sd	a6,64(sp)
   10360:	05113423          	sd	a7,72(sp)
   10364:	00058613          	mv	a2,a1
   10368:	01053583          	ld	a1,16(a0)
   1036c:	02010793          	addi	a5,sp,32
   10370:	00078693          	mv	a3,a5
   10374:	00113c23          	sd	ra,24(sp)
   10378:	00f13423          	sd	a5,8(sp)
   1037c:	098000ef          	jal	10414 <_vfprintf_r>
   10380:	01813083          	ld	ra,24(sp)
   10384:	05010113          	addi	sp,sp,80
   10388:	00008067          	ret

000000000001038c <printf>:
   1038c:	8101b283          	ld	t0,-2032(gp) # 1d070 <_impure_ptr>
   10390:	fa010113          	addi	sp,sp,-96
   10394:	02c13823          	sd	a2,48(sp)
   10398:	02d13c23          	sd	a3,56(sp)
   1039c:	04f13423          	sd	a5,72(sp)
   103a0:	02b13423          	sd	a1,40(sp)
   103a4:	04e13023          	sd	a4,64(sp)
   103a8:	05013823          	sd	a6,80(sp)
   103ac:	05113c23          	sd	a7,88(sp)
   103b0:	0102b583          	ld	a1,16(t0)
   103b4:	02810793          	addi	a5,sp,40
   103b8:	00050613          	mv	a2,a0
   103bc:	00078693          	mv	a3,a5
   103c0:	00028513          	mv	a0,t0
   103c4:	00113c23          	sd	ra,24(sp)
   103c8:	00f13423          	sd	a5,8(sp)
   103cc:	048000ef          	jal	10414 <_vfprintf_r>
   103d0:	01813083          	ld	ra,24(sp)
   103d4:	06010113          	addi	sp,sp,96
   103d8:	00008067          	ret

00000000000103dc <srand>:
   103dc:	8101b783          	ld	a5,-2032(gp) # 1d070 <_impure_ptr>
   103e0:	02051513          	slli	a0,a0,0x20
   103e4:	02055513          	srli	a0,a0,0x20
   103e8:	0ea7b423          	sd	a0,232(a5)
   103ec:	00008067          	ret

00000000000103f0 <rand>:
   103f0:	8101b703          	ld	a4,-2032(gp) # 1d070 <_impure_ptr>
   103f4:	8381b683          	ld	a3,-1992(gp) # 1d098 <__wctomb+0x8>
   103f8:	0e873783          	ld	a5,232(a4)
   103fc:	02d787b3          	mul	a5,a5,a3
   10400:	00178793          	addi	a5,a5,1
   10404:	00179513          	slli	a0,a5,0x1
   10408:	0ef73423          	sd	a5,232(a4)
   1040c:	02155513          	srli	a0,a0,0x21
   10410:	00008067          	ret

0000000000010414 <_vfprintf_r>:
   10414:	a3010113          	addi	sp,sp,-1488
   10418:	5c113423          	sd	ra,1480(sp)
   1041c:	5b213823          	sd	s2,1456(sp)
   10420:	5b413023          	sd	s4,1440(sp)
   10424:	59513c23          	sd	s5,1432(sp)
   10428:	00058913          	mv	s2,a1
   1042c:	00060a13          	mv	s4,a2
   10430:	02d13423          	sd	a3,40(sp)
   10434:	5c813023          	sd	s0,1472(sp)
   10438:	5a913c23          	sd	s1,1464(sp)
   1043c:	5b313423          	sd	s3,1448(sp)
   10440:	59613823          	sd	s6,1424(sp)
   10444:	59713423          	sd	s7,1416(sp)
   10448:	59813023          	sd	s8,1408(sp)
   1044c:	57913c23          	sd	s9,1400(sp)
   10450:	57a13823          	sd	s10,1392(sp)
   10454:	57b13423          	sd	s11,1384(sp)
   10458:	54813c27          	fsd	fs0,1368(sp)
   1045c:	00050a93          	mv	s5,a0
   10460:	531030ef          	jal	14190 <_localeconv_r>
   10464:	00053503          	ld	a0,0(a0)
   10468:	02a13c23          	sd	a0,56(sp)
   1046c:	515050ef          	jal	16180 <strlen>
   10470:	04a13823          	sd	a0,80(sp)
   10474:	000a8663          	beqz	s5,10480 <_vfprintf_r+0x6c>
   10478:	050aa783          	lw	a5,80(s5)
   1047c:	70078a63          	beqz	a5,10b90 <_vfprintf_r+0x77c>
   10480:	01091703          	lh	a4,16(s2)
   10484:	03071793          	slli	a5,a4,0x30
   10488:	0307d793          	srli	a5,a5,0x30
   1048c:	03279293          	slli	t0,a5,0x32
   10490:	0202ca63          	bltz	t0,104c4 <_vfprintf_r+0xb0>
   10494:	0a492683          	lw	a3,164(s2)
   10498:	000027b7          	lui	a5,0x2
   1049c:	00f76733          	or	a4,a4,a5
   104a0:	ffffe7b7          	lui	a5,0xffffe
   104a4:	0107171b          	slliw	a4,a4,0x10
   104a8:	fff7879b          	addiw	a5,a5,-1
   104ac:	4107571b          	sraiw	a4,a4,0x10
   104b0:	00f6f7b3          	and	a5,a3,a5
   104b4:	0af92223          	sw	a5,164(s2)
   104b8:	03071793          	slli	a5,a4,0x30
   104bc:	00e91823          	sh	a4,16(s2)
   104c0:	0307d793          	srli	a5,a5,0x30
   104c4:	0087f693          	andi	a3,a5,8
   104c8:	56068e63          	beqz	a3,10a44 <_vfprintf_r+0x630>
   104cc:	01893683          	ld	a3,24(s2)
   104d0:	56068a63          	beqz	a3,10a44 <_vfprintf_r+0x630>
   104d4:	01a7f793          	andi	a5,a5,26
   104d8:	00a00693          	li	a3,10
   104dc:	58d78863          	beq	a5,a3,10a6c <_vfprintf_r+0x658>
   104e0:	0d010293          	addi	t0,sp,208
   104e4:	00513823          	sd	t0,16(sp)
   104e8:	01013603          	ld	a2,16(sp)
   104ec:	0cf10293          	addi	t0,sp,207
   104f0:	15010693          	addi	a3,sp,336
   104f4:	405607b3          	sub	a5,a2,t0
   104f8:	0001a737          	lui	a4,0x1a
   104fc:	00513423          	sd	t0,8(sp)
   10500:	04013c23          	sd	zero,88(sp)
   10504:	08d13c23          	sd	a3,152(sp)
   10508:	0a012223          	sw	zero,164(sp)
   1050c:	0a012023          	sw	zero,160(sp)
   10510:	04012223          	sw	zero,68(sp)
   10514:	06013023          	sd	zero,96(sp)
   10518:	06012423          	sw	zero,104(sp)
   1051c:	02012823          	sw	zero,48(sp)
   10520:	00068893          	mv	a7,a3
   10524:	79070b13          	addi	s6,a4,1936 # 1a790 <blanks.3949>
   10528:	06f12623          	sw	a5,108(sp)
   1052c:	000a4783          	lbu	a5,0(s4)
   10530:	4c078c63          	beqz	a5,10a08 <_vfprintf_r+0x5f4>
   10534:	02500713          	li	a4,37
   10538:	000a0413          	mv	s0,s4
   1053c:	00e79663          	bne	a5,a4,10548 <_vfprintf_r+0x134>
   10540:	0580006f          	j	10598 <_vfprintf_r+0x184>
   10544:	00e78863          	beq	a5,a4,10554 <_vfprintf_r+0x140>
   10548:	00140413          	addi	s0,s0,1
   1054c:	00044783          	lbu	a5,0(s0)
   10550:	fe079ae3          	bnez	a5,10544 <_vfprintf_r+0x130>
   10554:	414404bb          	subw	s1,s0,s4
   10558:	04048063          	beqz	s1,10598 <_vfprintf_r+0x184>
   1055c:	0a412703          	lw	a4,164(sp)
   10560:	0a012783          	lw	a5,160(sp)
   10564:	00048693          	mv	a3,s1
   10568:	0097073b          	addw	a4,a4,s1
   1056c:	0017879b          	addiw	a5,a5,1
   10570:	0ae12223          	sw	a4,164(sp)
   10574:	00700713          	li	a4,7
   10578:	0148b023          	sd	s4,0(a7)
   1057c:	00d8b423          	sd	a3,8(a7)
   10580:	0af12023          	sw	a5,160(sp)
   10584:	01088893          	addi	a7,a7,16
   10588:	5cf74063          	blt	a4,a5,10b48 <_vfprintf_r+0x734>
   1058c:	03012283          	lw	t0,48(sp)
   10590:	009282bb          	addw	t0,t0,s1
   10594:	02512823          	sw	t0,48(sp)
   10598:	00044783          	lbu	a5,0(s0)
   1059c:	5c078463          	beqz	a5,10b64 <_vfprintf_r+0x750>
   105a0:	00140413          	addi	s0,s0,1
   105a4:	06010ba3          	sb	zero,119(sp)
   105a8:	00000593          	li	a1,0
   105ac:	fff00d93          	li	s11,-1
   105b0:	00012e23          	sw	zero,28(sp)
   105b4:	00000b93          	li	s7,0
   105b8:	05800693          	li	a3,88
   105bc:	00900613          	li	a2,9
   105c0:	02a00513          	li	a0,42
   105c4:	00044c03          	lbu	s8,0(s0)
   105c8:	00140a13          	addi	s4,s0,1
   105cc:	fe0c079b          	addiw	a5,s8,-32
   105d0:	10f6eee3          	bltu	a3,a5,10eec <_vfprintf_r+0xad8>
   105d4:	02079793          	slli	a5,a5,0x20
   105d8:	0207d793          	srli	a5,a5,0x20
   105dc:	0001a737          	lui	a4,0x1a
   105e0:	00279793          	slli	a5,a5,0x2
   105e4:	62870713          	addi	a4,a4,1576 # 1a628 <__errno+0x20>
   105e8:	00e787b3          	add	a5,a5,a4
   105ec:	0007a783          	lw	a5,0(a5) # ffffffffffffe000 <_gp+0xfffffffffffe07a0>
   105f0:	00078067          	jr	a5
   105f4:	010beb93          	ori	s7,s7,16
   105f8:	000a0413          	mv	s0,s4
   105fc:	fc9ff06f          	j	105c4 <_vfprintf_r+0x1b0>
   10600:	010beb93          	ori	s7,s7,16
   10604:	03bb9613          	slli	a2,s7,0x3b
   10608:	02813783          	ld	a5,40(sp)
   1060c:	5a064463          	bltz	a2,10bb4 <_vfprintf_r+0x7a0>
   10610:	039b9713          	slli	a4,s7,0x39
   10614:	00074463          	bltz	a4,1061c <_vfprintf_r+0x208>
   10618:	1380106f          	j	11750 <_vfprintf_r+0x133c>
   1061c:	02813803          	ld	a6,40(sp)
   10620:	0007d703          	lhu	a4,0(a5)
   10624:	00000793          	li	a5,0
   10628:	00880813          	addi	a6,a6,8
   1062c:	03013423          	sd	a6,40(sp)
   10630:	0340006f          	j	10664 <_vfprintf_r+0x250>
   10634:	010beb93          	ori	s7,s7,16
   10638:	03bb9613          	slli	a2,s7,0x3b
   1063c:	02813783          	ld	a5,40(sp)
   10640:	54064e63          	bltz	a2,10b9c <_vfprintf_r+0x788>
   10644:	039b9713          	slli	a4,s7,0x39
   10648:	00074463          	bltz	a4,10650 <_vfprintf_r+0x23c>
   1064c:	0ec0106f          	j	11738 <_vfprintf_r+0x1324>
   10650:	02813803          	ld	a6,40(sp)
   10654:	0007d703          	lhu	a4,0(a5)
   10658:	00100793          	li	a5,1
   1065c:	00880813          	addi	a6,a6,8
   10660:	03013423          	sd	a6,40(sp)
   10664:	06010ba3          	sb	zero,119(sp)
   10668:	05b12023          	sw	s11,64(sp)
   1066c:	00000593          	li	a1,0
   10670:	000dc463          	bltz	s11,10678 <_vfprintf_r+0x264>
   10674:	f7fbfb93          	andi	s7,s7,-129
   10678:	18071ee3          	bnez	a4,11014 <_vfprintf_r+0xc00>
   1067c:	4e0d84e3          	beqz	s11,11364 <_vfprintf_r+0xf50>
   10680:	00100693          	li	a3,1
   10684:	70d784e3          	beq	a5,a3,1158c <_vfprintf_r+0x1178>
   10688:	00200693          	li	a3,2
   1068c:	52d790e3          	bne	a5,a3,113ac <_vfprintf_r+0xf98>
   10690:	06013683          	ld	a3,96(sp)
   10694:	0d010413          	addi	s0,sp,208
   10698:	00f77793          	andi	a5,a4,15
   1069c:	00f687b3          	add	a5,a3,a5
   106a0:	0007c783          	lbu	a5,0(a5)
   106a4:	fff40413          	addi	s0,s0,-1
   106a8:	00475713          	srli	a4,a4,0x4
   106ac:	00f40023          	sb	a5,0(s0)
   106b0:	fe0714e3          	bnez	a4,10698 <_vfprintf_r+0x284>
   106b4:	01013283          	ld	t0,16(sp)
   106b8:	40828cb3          	sub	s9,t0,s0
   106bc:	03912223          	sw	s9,36(sp)
   106c0:	02412983          	lw	s3,36(sp)
   106c4:	01b9d463          	ble	s11,s3,106cc <_vfprintf_r+0x2b8>
   106c8:	000d8993          	mv	s3,s11
   106cc:	03312023          	sw	s3,32(sp)
   106d0:	00058863          	beqz	a1,106e0 <_vfprintf_r+0x2cc>
   106d4:	02012703          	lw	a4,32(sp)
   106d8:	0017071b          	addiw	a4,a4,1
   106dc:	02e12023          	sw	a4,32(sp)
   106e0:	002bfd93          	andi	s11,s7,2
   106e4:	000d8863          	beqz	s11,106f4 <_vfprintf_r+0x2e0>
   106e8:	02012783          	lw	a5,32(sp)
   106ec:	0027879b          	addiw	a5,a5,2
   106f0:	02f12023          	sw	a5,32(sp)
   106f4:	084bf813          	andi	a6,s7,132
   106f8:	03012a23          	sw	a6,52(sp)
   106fc:	00081ae3          	bnez	a6,10f10 <_vfprintf_r+0xafc>
   10700:	01c12283          	lw	t0,28(sp)
   10704:	02012683          	lw	a3,32(sp)
   10708:	40d284bb          	subw	s1,t0,a3
   1070c:	009052e3          	blez	s1,10f10 <_vfprintf_r+0xafc>
   10710:	01000793          	li	a5,16
   10714:	0a412703          	lw	a4,164(sp)
   10718:	0097c463          	blt	a5,s1,10720 <_vfprintf_r+0x30c>
   1071c:	37c0106f          	j	11a98 <_vfprintf_r+0x1684>
   10720:	01000c93          	li	s9,16
   10724:	0a012783          	lw	a5,160(sp)
   10728:	05613423          	sd	s6,72(sp)
   1072c:	00700d13          	li	s10,7
   10730:	000c8993          	mv	s3,s9
   10734:	00c0006f          	j	10740 <_vfprintf_r+0x32c>
   10738:	ff04849b          	addiw	s1,s1,-16
   1073c:	0499d663          	ble	s1,s3,10788 <_vfprintf_r+0x374>
   10740:	0107071b          	addiw	a4,a4,16
   10744:	0017879b          	addiw	a5,a5,1
   10748:	0168b023          	sd	s6,0(a7)
   1074c:	0198b423          	sd	s9,8(a7)
   10750:	0ae12223          	sw	a4,164(sp)
   10754:	0af12023          	sw	a5,160(sp)
   10758:	01088893          	addi	a7,a7,16
   1075c:	fcfd5ee3          	ble	a5,s10,10738 <_vfprintf_r+0x324>
   10760:	000a8513          	mv	a0,s5
   10764:	00090593          	mv	a1,s2
   10768:	09810613          	addi	a2,sp,152
   1076c:	3cd050ef          	jal	16338 <__sprint_r>
   10770:	40051663          	bnez	a0,10b7c <_vfprintf_r+0x768>
   10774:	ff04849b          	addiw	s1,s1,-16
   10778:	0a412703          	lw	a4,164(sp)
   1077c:	0a012783          	lw	a5,160(sp)
   10780:	15010893          	addi	a7,sp,336
   10784:	fa99cee3          	blt	s3,s1,10740 <_vfprintf_r+0x32c>
   10788:	04813803          	ld	a6,72(sp)
   1078c:	00e4873b          	addw	a4,s1,a4
   10790:	0017879b          	addiw	a5,a5,1
   10794:	00700693          	li	a3,7
   10798:	0108b023          	sd	a6,0(a7)
   1079c:	0098b423          	sd	s1,8(a7)
   107a0:	0ae12223          	sw	a4,164(sp)
   107a4:	0af12023          	sw	a5,160(sp)
   107a8:	01088893          	addi	a7,a7,16
   107ac:	76f6d663          	ble	a5,a3,10f18 <_vfprintf_r+0xb04>
   107b0:	000a8513          	mv	a0,s5
   107b4:	00090593          	mv	a1,s2
   107b8:	09810613          	addi	a2,sp,152
   107bc:	37d050ef          	jal	16338 <__sprint_r>
   107c0:	3a051e63          	bnez	a0,10b7c <_vfprintf_r+0x768>
   107c4:	07714683          	lbu	a3,119(sp)
   107c8:	0a412703          	lw	a4,164(sp)
   107cc:	0a012783          	lw	a5,160(sp)
   107d0:	15010893          	addi	a7,sp,336
   107d4:	74069663          	bnez	a3,10f20 <_vfprintf_r+0xb0c>
   107d8:	020d8863          	beqz	s11,10808 <_vfprintf_r+0x3f4>
   107dc:	07810693          	addi	a3,sp,120
   107e0:	00d8b023          	sd	a3,0(a7)
   107e4:	00200693          	li	a3,2
   107e8:	00d8b423          	sd	a3,8(a7)
   107ec:	0027071b          	addiw	a4,a4,2
   107f0:	0017879b          	addiw	a5,a5,1
   107f4:	00700693          	li	a3,7
   107f8:	0ae12223          	sw	a4,164(sp)
   107fc:	0af12023          	sw	a5,160(sp)
   10800:	01088893          	addi	a7,a7,16
   10804:	38f6c2e3          	blt	a3,a5,11388 <_vfprintf_r+0xf74>
   10808:	03412283          	lw	t0,52(sp)
   1080c:	08000693          	li	a3,128
   10810:	14d28ee3          	beq	t0,a3,1116c <_vfprintf_r+0xd58>
   10814:	04012803          	lw	a6,64(sp)
   10818:	02412283          	lw	t0,36(sp)
   1081c:	40580d3b          	subw	s10,a6,t0
   10820:	0da05063          	blez	s10,108e0 <_vfprintf_r+0x4cc>
   10824:	0001a337          	lui	t1,0x1a
   10828:	01000693          	li	a3,16
   1082c:	7a030993          	addi	s3,t1,1952 # 1a7a0 <zeroes.3950>
   10830:	07a6d663          	ble	s10,a3,1089c <_vfprintf_r+0x488>
   10834:	01000d93          	li	s11,16
   10838:	0001a337          	lui	t1,0x1a
   1083c:	7a030993          	addi	s3,t1,1952 # 1a7a0 <zeroes.3950>
   10840:	00700493          	li	s1,7
   10844:	000d8c93          	mv	s9,s11
   10848:	00c0006f          	j	10854 <_vfprintf_r+0x440>
   1084c:	ff0d0d1b          	addiw	s10,s10,-16
   10850:	05acd663          	ble	s10,s9,1089c <_vfprintf_r+0x488>
   10854:	0107071b          	addiw	a4,a4,16
   10858:	0017879b          	addiw	a5,a5,1
   1085c:	0138b023          	sd	s3,0(a7)
   10860:	01b8b423          	sd	s11,8(a7)
   10864:	0ae12223          	sw	a4,164(sp)
   10868:	0af12023          	sw	a5,160(sp)
   1086c:	01088893          	addi	a7,a7,16
   10870:	fcf4dee3          	ble	a5,s1,1084c <_vfprintf_r+0x438>
   10874:	000a8513          	mv	a0,s5
   10878:	00090593          	mv	a1,s2
   1087c:	09810613          	addi	a2,sp,152
   10880:	2b9050ef          	jal	16338 <__sprint_r>
   10884:	2e051c63          	bnez	a0,10b7c <_vfprintf_r+0x768>
   10888:	ff0d0d1b          	addiw	s10,s10,-16
   1088c:	0a412703          	lw	a4,164(sp)
   10890:	0a012783          	lw	a5,160(sp)
   10894:	15010893          	addi	a7,sp,336
   10898:	fbaccee3          	blt	s9,s10,10854 <_vfprintf_r+0x440>
   1089c:	01a7073b          	addw	a4,a4,s10
   108a0:	0017879b          	addiw	a5,a5,1
   108a4:	00700693          	li	a3,7
   108a8:	0138b023          	sd	s3,0(a7)
   108ac:	01a8b423          	sd	s10,8(a7)
   108b0:	0ae12223          	sw	a4,164(sp)
   108b4:	0af12023          	sw	a5,160(sp)
   108b8:	01088893          	addi	a7,a7,16
   108bc:	02f6d263          	ble	a5,a3,108e0 <_vfprintf_r+0x4cc>
   108c0:	000a8513          	mv	a0,s5
   108c4:	00090593          	mv	a1,s2
   108c8:	09810613          	addi	a2,sp,152
   108cc:	26d050ef          	jal	16338 <__sprint_r>
   108d0:	2a051663          	bnez	a0,10b7c <_vfprintf_r+0x768>
   108d4:	0a412703          	lw	a4,164(sp)
   108d8:	0a012783          	lw	a5,160(sp)
   108dc:	15010893          	addi	a7,sp,336
   108e0:	037b9613          	slli	a2,s7,0x37
   108e4:	76064e63          	bltz	a2,11060 <_vfprintf_r+0xc4c>
   108e8:	02412683          	lw	a3,36(sp)
   108ec:	0017879b          	addiw	a5,a5,1
   108f0:	0088b023          	sd	s0,0(a7)
   108f4:	00e6873b          	addw	a4,a3,a4
   108f8:	00d8b423          	sd	a3,8(a7)
   108fc:	00700693          	li	a3,7
   10900:	0ae12223          	sw	a4,164(sp)
   10904:	0af12023          	sw	a5,160(sp)
   10908:	6ef6c663          	blt	a3,a5,10ff4 <_vfprintf_r+0xbe0>
   1090c:	01088893          	addi	a7,a7,16
   10910:	03db9613          	slli	a2,s7,0x3d
   10914:	0c065263          	bgez	a2,109d8 <_vfprintf_r+0x5c4>
   10918:	01c12283          	lw	t0,28(sp)
   1091c:	02012683          	lw	a3,32(sp)
   10920:	40d2843b          	subw	s0,t0,a3
   10924:	0a805a63          	blez	s0,109d8 <_vfprintf_r+0x5c4>
   10928:	01000793          	li	a5,16
   1092c:	0087c463          	blt	a5,s0,10934 <_vfprintf_r+0x520>
   10930:	1a80106f          	j	11ad8 <_vfprintf_r+0x16c4>
   10934:	01000b93          	li	s7,16
   10938:	0a012783          	lw	a5,160(sp)
   1093c:	05613423          	sd	s6,72(sp)
   10940:	00700c13          	li	s8,7
   10944:	000b8c93          	mv	s9,s7
   10948:	00c0006f          	j	10954 <_vfprintf_r+0x540>
   1094c:	ff04041b          	addiw	s0,s0,-16
   10950:	048cd663          	ble	s0,s9,1099c <_vfprintf_r+0x588>
   10954:	0107071b          	addiw	a4,a4,16
   10958:	0017879b          	addiw	a5,a5,1
   1095c:	0168b023          	sd	s6,0(a7)
   10960:	0178b423          	sd	s7,8(a7)
   10964:	0ae12223          	sw	a4,164(sp)
   10968:	0af12023          	sw	a5,160(sp)
   1096c:	01088893          	addi	a7,a7,16
   10970:	fcfc5ee3          	ble	a5,s8,1094c <_vfprintf_r+0x538>
   10974:	000a8513          	mv	a0,s5
   10978:	00090593          	mv	a1,s2
   1097c:	09810613          	addi	a2,sp,152
   10980:	1b9050ef          	jal	16338 <__sprint_r>
   10984:	1e051c63          	bnez	a0,10b7c <_vfprintf_r+0x768>
   10988:	ff04041b          	addiw	s0,s0,-16
   1098c:	0a412703          	lw	a4,164(sp)
   10990:	0a012783          	lw	a5,160(sp)
   10994:	15010893          	addi	a7,sp,336
   10998:	fa8ccee3          	blt	s9,s0,10954 <_vfprintf_r+0x540>
   1099c:	04813803          	ld	a6,72(sp)
   109a0:	0087073b          	addw	a4,a4,s0
   109a4:	0017879b          	addiw	a5,a5,1
   109a8:	00700693          	li	a3,7
   109ac:	0108b023          	sd	a6,0(a7)
   109b0:	0088b423          	sd	s0,8(a7)
   109b4:	0ae12223          	sw	a4,164(sp)
   109b8:	0af12023          	sw	a5,160(sp)
   109bc:	00f6de63          	ble	a5,a3,109d8 <_vfprintf_r+0x5c4>
   109c0:	000a8513          	mv	a0,s5
   109c4:	00090593          	mv	a1,s2
   109c8:	09810613          	addi	a2,sp,152
   109cc:	16d050ef          	jal	16338 <__sprint_r>
   109d0:	1a051663          	bnez	a0,10b7c <_vfprintf_r+0x768>
   109d4:	0a412703          	lw	a4,164(sp)
   109d8:	02012983          	lw	s3,32(sp)
   109dc:	01c12283          	lw	t0,28(sp)
   109e0:	0059d463          	ble	t0,s3,109e8 <_vfprintf_r+0x5d4>
   109e4:	00028993          	mv	s3,t0
   109e8:	03012283          	lw	t0,48(sp)
   109ec:	013282bb          	addw	t0,t0,s3
   109f0:	02512823          	sw	t0,48(sp)
   109f4:	040714e3          	bnez	a4,1123c <_vfprintf_r+0xe28>
   109f8:	000a4783          	lbu	a5,0(s4)
   109fc:	0a012023          	sw	zero,160(sp)
   10a00:	15010893          	addi	a7,sp,336
   10a04:	b20798e3          	bnez	a5,10534 <_vfprintf_r+0x120>
   10a08:	000a0413          	mv	s0,s4
   10a0c:	b8dff06f          	j	10598 <_vfprintf_r+0x184>
   10a10:	02813783          	ld	a5,40(sp)
   10a14:	02813803          	ld	a6,40(sp)
   10a18:	000a0413          	mv	s0,s4
   10a1c:	0007a783          	lw	a5,0(a5)
   10a20:	00880813          	addi	a6,a6,8
   10a24:	03013423          	sd	a6,40(sp)
   10a28:	00f12e23          	sw	a5,28(sp)
   10a2c:	b807dce3          	bgez	a5,105c4 <_vfprintf_r+0x1b0>
   10a30:	40f007bb          	negw	a5,a5
   10a34:	00f12e23          	sw	a5,28(sp)
   10a38:	004beb93          	ori	s7,s7,4
   10a3c:	000a0413          	mv	s0,s4
   10a40:	b85ff06f          	j	105c4 <_vfprintf_r+0x1b0>
   10a44:	000a8513          	mv	a0,s5
   10a48:	00090593          	mv	a1,s2
   10a4c:	3fc010ef          	jal	11e48 <__swsetup_r>
   10a50:	0a051a63          	bnez	a0,10b04 <_vfprintf_r+0x6f0>
   10a54:	01091703          	lh	a4,16(s2)
   10a58:	00a00693          	li	a3,10
   10a5c:	03071793          	slli	a5,a4,0x30
   10a60:	0307d793          	srli	a5,a5,0x30
   10a64:	01a7f793          	andi	a5,a5,26
   10a68:	a6d79ce3          	bne	a5,a3,104e0 <_vfprintf_r+0xcc>
   10a6c:	01291783          	lh	a5,18(s2)
   10a70:	a607c8e3          	bltz	a5,104e0 <_vfprintf_r+0xcc>
   10a74:	0a492303          	lw	t1,164(s2)
   10a78:	03093283          	ld	t0,48(s2)
   10a7c:	04093883          	ld	a7,64(s2)
   10a80:	02813683          	ld	a3,40(sp)
   10a84:	ffd77713          	andi	a4,a4,-3
   10a88:	40000813          	li	a6,1024
   10a8c:	0ae11c23          	sh	a4,184(sp)
   10a90:	000a8513          	mv	a0,s5
   10a94:	15010713          	addi	a4,sp,336
   10a98:	0a810593          	addi	a1,sp,168
   10a9c:	000a0613          	mv	a2,s4
   10aa0:	14612623          	sw	t1,332(sp)
   10aa4:	0af11d23          	sh	a5,186(sp)
   10aa8:	0c513c23          	sd	t0,216(sp)
   10aac:	0f113423          	sd	a7,232(sp)
   10ab0:	0ae13423          	sd	a4,168(sp)
   10ab4:	0ce13023          	sd	a4,192(sp)
   10ab8:	0b012a23          	sw	a6,180(sp)
   10abc:	0d012423          	sw	a6,200(sp)
   10ac0:	0c012823          	sw	zero,208(sp)
   10ac4:	951ff0ef          	jal	10414 <_vfprintf_r>
   10ac8:	00050413          	mv	s0,a0
   10acc:	00054c63          	bltz	a0,10ae4 <_vfprintf_r+0x6d0>
   10ad0:	000a8513          	mv	a0,s5
   10ad4:	0a810593          	addi	a1,sp,168
   10ad8:	261020ef          	jal	13538 <_fflush_r>
   10adc:	00050463          	beqz	a0,10ae4 <_vfprintf_r+0x6d0>
   10ae0:	2c40106f          	j	11da4 <_vfprintf_r+0x1990>
   10ae4:	0b815783          	lhu	a5,184(sp)
   10ae8:	0407f793          	andi	a5,a5,64
   10aec:	00078863          	beqz	a5,10afc <_vfprintf_r+0x6e8>
   10af0:	01095783          	lhu	a5,16(s2)
   10af4:	0407e793          	ori	a5,a5,64
   10af8:	00f91823          	sh	a5,16(s2)
   10afc:	00040513          	mv	a0,s0
   10b00:	0080006f          	j	10b08 <_vfprintf_r+0x6f4>
   10b04:	fff00513          	li	a0,-1
   10b08:	5c813083          	ld	ra,1480(sp)
   10b0c:	5c013403          	ld	s0,1472(sp)
   10b10:	5b813483          	ld	s1,1464(sp)
   10b14:	5b013903          	ld	s2,1456(sp)
   10b18:	5a813983          	ld	s3,1448(sp)
   10b1c:	5a013a03          	ld	s4,1440(sp)
   10b20:	59813a83          	ld	s5,1432(sp)
   10b24:	59013b03          	ld	s6,1424(sp)
   10b28:	58813b83          	ld	s7,1416(sp)
   10b2c:	58013c03          	ld	s8,1408(sp)
   10b30:	57813c83          	ld	s9,1400(sp)
   10b34:	57013d03          	ld	s10,1392(sp)
   10b38:	56813d83          	ld	s11,1384(sp)
   10b3c:	55813407          	fld	fs0,1368(sp)
   10b40:	5d010113          	addi	sp,sp,1488
   10b44:	00008067          	ret
   10b48:	000a8513          	mv	a0,s5
   10b4c:	00090593          	mv	a1,s2
   10b50:	09810613          	addi	a2,sp,152
   10b54:	7e4050ef          	jal	16338 <__sprint_r>
   10b58:	02051263          	bnez	a0,10b7c <_vfprintf_r+0x768>
   10b5c:	15010893          	addi	a7,sp,336
   10b60:	a2dff06f          	j	1058c <_vfprintf_r+0x178>
   10b64:	0a412783          	lw	a5,164(sp)
   10b68:	00078a63          	beqz	a5,10b7c <_vfprintf_r+0x768>
   10b6c:	000a8513          	mv	a0,s5
   10b70:	00090593          	mv	a1,s2
   10b74:	09810613          	addi	a2,sp,152
   10b78:	7c0050ef          	jal	16338 <__sprint_r>
   10b7c:	01095783          	lhu	a5,16(s2)
   10b80:	0407f793          	andi	a5,a5,64
   10b84:	f80790e3          	bnez	a5,10b04 <_vfprintf_r+0x6f0>
   10b88:	03012503          	lw	a0,48(sp)
   10b8c:	f7dff06f          	j	10b08 <_vfprintf_r+0x6f4>
   10b90:	000a8513          	mv	a0,s5
   10b94:	795020ef          	jal	13b28 <__sinit>
   10b98:	8e9ff06f          	j	10480 <_vfprintf_r+0x6c>
   10b9c:	02813683          	ld	a3,40(sp)
   10ba0:	0007b703          	ld	a4,0(a5)
   10ba4:	00100793          	li	a5,1
   10ba8:	00868693          	addi	a3,a3,8
   10bac:	02d13423          	sd	a3,40(sp)
   10bb0:	ab5ff06f          	j	10664 <_vfprintf_r+0x250>
   10bb4:	02813683          	ld	a3,40(sp)
   10bb8:	0007b703          	ld	a4,0(a5)
   10bbc:	00000793          	li	a5,0
   10bc0:	00868693          	addi	a3,a3,8
   10bc4:	02d13423          	sd	a3,40(sp)
   10bc8:	a9dff06f          	j	10664 <_vfprintf_r+0x250>
   10bcc:	000a0413          	mv	s0,s4
   10bd0:	02b00593          	li	a1,43
   10bd4:	9f1ff06f          	j	105c4 <_vfprintf_r+0x1b0>
   10bd8:	080beb93          	ori	s7,s7,128
   10bdc:	000a0413          	mv	s0,s4
   10be0:	9e5ff06f          	j	105c4 <_vfprintf_r+0x1b0>
   10be4:	02813683          	ld	a3,40(sp)
   10be8:	00100713          	li	a4,1
   10bec:	02e12023          	sw	a4,32(sp)
   10bf0:	0006a783          	lw	a5,0(a3)
   10bf4:	00868693          	addi	a3,a3,8
   10bf8:	06010ba3          	sb	zero,119(sp)
   10bfc:	0af10423          	sb	a5,168(sp)
   10c00:	02d13423          	sd	a3,40(sp)
   10c04:	02e12223          	sw	a4,36(sp)
   10c08:	0a810413          	addi	s0,sp,168
   10c0c:	04012023          	sw	zero,64(sp)
   10c10:	ad1ff06f          	j	106e0 <_vfprintf_r+0x2cc>
   10c14:	000a4c03          	lbu	s8,0(s4)
   10c18:	001a0413          	addi	s0,s4,1
   10c1c:	00ac1463          	bne	s8,a0,10c24 <_vfprintf_r+0x810>
   10c20:	1c00106f          	j	11de0 <_vfprintf_r+0x19cc>
   10c24:	fd0c079b          	addiw	a5,s8,-48
   10c28:	00040a13          	mv	s4,s0
   10c2c:	00000d93          	li	s11,0
   10c30:	98f66ee3          	bltu	a2,a5,105cc <_vfprintf_r+0x1b8>
   10c34:	001a0a13          	addi	s4,s4,1
   10c38:	fffa4c03          	lbu	s8,-1(s4)
   10c3c:	001d971b          	slliw	a4,s11,0x1
   10c40:	003d9d9b          	slliw	s11,s11,0x3
   10c44:	01b70dbb          	addw	s11,a4,s11
   10c48:	01b78dbb          	addw	s11,a5,s11
   10c4c:	fd0c079b          	addiw	a5,s8,-48
   10c50:	fef672e3          	bleu	a5,a2,10c34 <_vfprintf_r+0x820>
   10c54:	960ddce3          	bgez	s11,105cc <_vfprintf_r+0x1b8>
   10c58:	fff00d93          	li	s11,-1
   10c5c:	971ff06f          	j	105cc <_vfprintf_r+0x1b8>
   10c60:	008beb93          	ori	s7,s7,8
   10c64:	000a0413          	mv	s0,s4
   10c68:	95dff06f          	j	105c4 <_vfprintf_r+0x1b0>
   10c6c:	0001b737          	lui	a4,0x1b
   10c70:	c1070713          	addi	a4,a4,-1008 # 1ac10 <__clz_tab+0x128>
   10c74:	03bb9613          	slli	a2,s7,0x3b
   10c78:	06b10ba3          	sb	a1,119(sp)
   10c7c:	02813783          	ld	a5,40(sp)
   10c80:	06e13023          	sd	a4,96(sp)
   10c84:	0e065863          	bgez	a2,10d74 <_vfprintf_r+0x960>
   10c88:	02813683          	ld	a3,40(sp)
   10c8c:	0007b703          	ld	a4,0(a5)
   10c90:	00868693          	addi	a3,a3,8
   10c94:	02d13423          	sd	a3,40(sp)
   10c98:	03fb9613          	slli	a2,s7,0x3f
   10c9c:	00200793          	li	a5,2
   10ca0:	9c0652e3          	bgez	a2,10664 <_vfprintf_r+0x250>
   10ca4:	9c0700e3          	beqz	a4,10664 <_vfprintf_r+0x250>
   10ca8:	03000693          	li	a3,48
   10cac:	06d10c23          	sb	a3,120(sp)
   10cb0:	07810ca3          	sb	s8,121(sp)
   10cb4:	002beb93          	ori	s7,s7,2
   10cb8:	9adff06f          	j	10664 <_vfprintf_r+0x250>
   10cbc:	03bb9813          	slli	a6,s7,0x3b
   10cc0:	06b10ba3          	sb	a1,119(sp)
   10cc4:	02813783          	ld	a5,40(sp)
   10cc8:	0c085e63          	bgez	a6,10da4 <_vfprintf_r+0x990>
   10ccc:	02813283          	ld	t0,40(sp)
   10cd0:	0007b703          	ld	a4,0(a5)
   10cd4:	00828293          	addi	t0,t0,8
   10cd8:	02513423          	sd	t0,40(sp)
   10cdc:	0a074ce3          	bltz	a4,11594 <_vfprintf_r+0x1180>
   10ce0:	07714583          	lbu	a1,119(sp)
   10ce4:	05b12023          	sw	s11,64(sp)
   10ce8:	00100793          	li	a5,1
   10cec:	985ff06f          	j	10670 <_vfprintf_r+0x25c>
   10cf0:	040beb93          	ori	s7,s7,64
   10cf4:	000a0413          	mv	s0,s4
   10cf8:	8cdff06f          	j	105c4 <_vfprintf_r+0x1b0>
   10cfc:	03bb9713          	slli	a4,s7,0x3b
   10d00:	06b10ba3          	sb	a1,119(sp)
   10d04:	260752e3          	bgez	a4,11768 <_vfprintf_r+0x1354>
   10d08:	02813803          	ld	a6,40(sp)
   10d0c:	03012703          	lw	a4,48(sp)
   10d10:	00083783          	ld	a5,0(a6)
   10d14:	00880813          	addi	a6,a6,8
   10d18:	03013423          	sd	a6,40(sp)
   10d1c:	00e7b023          	sd	a4,0(a5)
   10d20:	80dff06f          	j	1052c <_vfprintf_r+0x118>
   10d24:	00012e23          	sw	zero,28(sp)
   10d28:	fd0c079b          	addiw	a5,s8,-48
   10d2c:	01c12283          	lw	t0,28(sp)
   10d30:	001a0a13          	addi	s4,s4,1
   10d34:	fffa4c03          	lbu	s8,-1(s4)
   10d38:	0012971b          	slliw	a4,t0,0x1
   10d3c:	0032981b          	slliw	a6,t0,0x3
   10d40:	0107073b          	addw	a4,a4,a6
   10d44:	00f707bb          	addw	a5,a4,a5
   10d48:	00f12e23          	sw	a5,28(sp)
   10d4c:	fd0c079b          	addiw	a5,s8,-48
   10d50:	fcf67ee3          	bleu	a5,a2,10d2c <_vfprintf_r+0x918>
   10d54:	879ff06f          	j	105cc <_vfprintf_r+0x1b8>
   10d58:	0001b737          	lui	a4,0x1b
   10d5c:	c2870713          	addi	a4,a4,-984 # 1ac28 <__clz_tab+0x140>
   10d60:	03bb9613          	slli	a2,s7,0x3b
   10d64:	06b10ba3          	sb	a1,119(sp)
   10d68:	02813783          	ld	a5,40(sp)
   10d6c:	06e13023          	sd	a4,96(sp)
   10d70:	f0064ce3          	bltz	a2,10c88 <_vfprintf_r+0x874>
   10d74:	039b9713          	slli	a4,s7,0x39
   10d78:	180756e3          	bgez	a4,11704 <_vfprintf_r+0x12f0>
   10d7c:	02813803          	ld	a6,40(sp)
   10d80:	0007d703          	lhu	a4,0(a5)
   10d84:	00880813          	addi	a6,a6,8
   10d88:	03013423          	sd	a6,40(sp)
   10d8c:	f0dff06f          	j	10c98 <_vfprintf_r+0x884>
   10d90:	010beb93          	ori	s7,s7,16
   10d94:	03bb9813          	slli	a6,s7,0x3b
   10d98:	06b10ba3          	sb	a1,119(sp)
   10d9c:	02813783          	ld	a5,40(sp)
   10da0:	f20846e3          	bltz	a6,10ccc <_vfprintf_r+0x8b8>
   10da4:	039b9613          	slli	a2,s7,0x39
   10da8:	140654e3          	bgez	a2,116f0 <_vfprintf_r+0x12dc>
   10dac:	02813683          	ld	a3,40(sp)
   10db0:	00079703          	lh	a4,0(a5)
   10db4:	00868693          	addi	a3,a3,8
   10db8:	02d13423          	sd	a3,40(sp)
   10dbc:	f21ff06f          	j	10cdc <_vfprintf_r+0x8c8>
   10dc0:	02813803          	ld	a6,40(sp)
   10dc4:	06b10ba3          	sb	a1,119(sp)
   10dc8:	00100413          	li	s0,1
   10dcc:	00083007          	fld	ft0,0(a6)
   10dd0:	00880d13          	addi	s10,a6,8
   10dd4:	01113023          	sd	a7,0(sp)
   10dd8:	22000553          	fmv.d	fa0,ft0
   10ddc:	04013c27          	fsd	ft0,88(sp)
   10de0:	0a0050ef          	jal	15e80 <__fpclassifyd>
   10de4:	00013883          	ld	a7,0(sp)
   10de8:	7c851463          	bne	a0,s0,115b0 <_vfprintf_r+0x119c>
   10dec:	05813087          	fld	ft1,88(sp)
   10df0:	f2000053          	fmv.d.x	ft0,zero
   10df4:	a20097d3          	flt.d	a5,ft1,ft0
   10df8:	500790e3          	bnez	a5,11af8 <_vfprintf_r+0x16e4>
   10dfc:	07714583          	lbu	a1,119(sp)
   10e00:	04700793          	li	a5,71
   10e04:	3587d4e3          	ble	s8,a5,1194c <_vfprintf_r+0x1538>
   10e08:	0001b437          	lui	s0,0x1b
   10e0c:	bf840413          	addi	s0,s0,-1032 # 1abf8 <__clz_tab+0x110>
   10e10:	00300293          	li	t0,3
   10e14:	02512023          	sw	t0,32(sp)
   10e18:	f7fbfb93          	andi	s7,s7,-129
   10e1c:	03a13423          	sd	s10,40(sp)
   10e20:	02512223          	sw	t0,36(sp)
   10e24:	04012023          	sw	zero,64(sp)
   10e28:	8a9ff06f          	j	106d0 <_vfprintf_r+0x2bc>
   10e2c:	02813703          	ld	a4,40(sp)
   10e30:	06010ba3          	sb	zero,119(sp)
   10e34:	00073403          	ld	s0,0(a4)
   10e38:	00870d13          	addi	s10,a4,8
   10e3c:	460404e3          	beqz	s0,11aa4 <_vfprintf_r+0x1690>
   10e40:	00040513          	mv	a0,s0
   10e44:	3c0dc6e3          	bltz	s11,11a10 <_vfprintf_r+0x15fc>
   10e48:	00000593          	li	a1,0
   10e4c:	000d8613          	mv	a2,s11
   10e50:	01113023          	sd	a7,0(sp)
   10e54:	501030ef          	jal	14b54 <memchr>
   10e58:	00013883          	ld	a7,0(sp)
   10e5c:	54050ce3          	beqz	a0,11bb4 <_vfprintf_r+0x17a0>
   10e60:	40850533          	sub	a0,a0,s0
   10e64:	02a12223          	sw	a0,36(sp)
   10e68:	02412783          	lw	a5,36(sp)
   10e6c:	2cfdc6e3          	blt	s11,a5,11938 <_vfprintf_r+0x1524>
   10e70:	02412803          	lw	a6,36(sp)
   10e74:	07714583          	lbu	a1,119(sp)
   10e78:	03a13423          	sd	s10,40(sp)
   10e7c:	fff84993          	not	s3,a6
   10e80:	41f9d99b          	sraiw	s3,s3,0x1f
   10e84:	013879b3          	and	s3,a6,s3
   10e88:	03312023          	sw	s3,32(sp)
   10e8c:	04012023          	sw	zero,64(sp)
   10e90:	841ff06f          	j	106d0 <_vfprintf_r+0x2bc>
   10e94:	000a0413          	mv	s0,s4
   10e98:	f2059663          	bnez	a1,105c4 <_vfprintf_r+0x1b0>
   10e9c:	02000593          	li	a1,32
   10ea0:	f24ff06f          	j	105c4 <_vfprintf_r+0x1b0>
   10ea4:	02813683          	ld	a3,40(sp)
   10ea8:	03000793          	li	a5,48
   10eac:	06f10c23          	sb	a5,120(sp)
   10eb0:	07800793          	li	a5,120
   10eb4:	06f10ca3          	sb	a5,121(sp)
   10eb8:	0001b7b7          	lui	a5,0x1b
   10ebc:	0006b703          	ld	a4,0(a3)
   10ec0:	c2878793          	addi	a5,a5,-984 # 1ac28 <__clz_tab+0x140>
   10ec4:	00868693          	addi	a3,a3,8
   10ec8:	06f13023          	sd	a5,96(sp)
   10ecc:	002beb93          	ori	s7,s7,2
   10ed0:	02d13423          	sd	a3,40(sp)
   10ed4:	00200793          	li	a5,2
   10ed8:	07800c13          	li	s8,120
   10edc:	f88ff06f          	j	10664 <_vfprintf_r+0x250>
   10ee0:	001beb93          	ori	s7,s7,1
   10ee4:	000a0413          	mv	s0,s4
   10ee8:	edcff06f          	j	105c4 <_vfprintf_r+0x1b0>
   10eec:	06b10ba3          	sb	a1,119(sp)
   10ef0:	c60c0ae3          	beqz	s8,10b64 <_vfprintf_r+0x750>
   10ef4:	00100693          	li	a3,1
   10ef8:	02d12023          	sw	a3,32(sp)
   10efc:	0b810423          	sb	s8,168(sp)
   10f00:	06010ba3          	sb	zero,119(sp)
   10f04:	02d12223          	sw	a3,36(sp)
   10f08:	0a810413          	addi	s0,sp,168
   10f0c:	d01ff06f          	j	10c0c <_vfprintf_r+0x7f8>
   10f10:	0a412703          	lw	a4,164(sp)
   10f14:	0a012783          	lw	a5,160(sp)
   10f18:	07714683          	lbu	a3,119(sp)
   10f1c:	8a068ee3          	beqz	a3,107d8 <_vfprintf_r+0x3c4>
   10f20:	07710693          	addi	a3,sp,119
   10f24:	00d8b023          	sd	a3,0(a7)
   10f28:	00100693          	li	a3,1
   10f2c:	00d8b423          	sd	a3,8(a7)
   10f30:	0017071b          	addiw	a4,a4,1
   10f34:	0017879b          	addiw	a5,a5,1
   10f38:	00700693          	li	a3,7
   10f3c:	0ae12223          	sw	a4,164(sp)
   10f40:	0af12023          	sw	a5,160(sp)
   10f44:	01088893          	addi	a7,a7,16
   10f48:	88f6d8e3          	ble	a5,a3,107d8 <_vfprintf_r+0x3c4>
   10f4c:	000a8513          	mv	a0,s5
   10f50:	00090593          	mv	a1,s2
   10f54:	09810613          	addi	a2,sp,152
   10f58:	3e0050ef          	jal	16338 <__sprint_r>
   10f5c:	c20510e3          	bnez	a0,10b7c <_vfprintf_r+0x768>
   10f60:	0a412703          	lw	a4,164(sp)
   10f64:	0a012783          	lw	a5,160(sp)
   10f68:	15010893          	addi	a7,sp,336
   10f6c:	86dff06f          	j	107d8 <_vfprintf_r+0x3c4>
   10f70:	0a012783          	lw	a5,160(sp)
   10f74:	0001a337          	lui	t1,0x1a
   10f78:	7a030993          	addi	s3,t1,1952 # 1a7a0 <zeroes.3950>
   10f7c:	0087073b          	addw	a4,a4,s0
   10f80:	0017879b          	addiw	a5,a5,1
   10f84:	00700693          	li	a3,7
   10f88:	0138b023          	sd	s3,0(a7)
   10f8c:	0088b423          	sd	s0,8(a7)
   10f90:	0ae12223          	sw	a4,164(sp)
   10f94:	0af12023          	sw	a5,160(sp)
   10f98:	01088893          	addi	a7,a7,16
   10f9c:	02f6d063          	ble	a5,a3,10fbc <_vfprintf_r+0xba8>
   10fa0:	000a8513          	mv	a0,s5
   10fa4:	00090593          	mv	a1,s2
   10fa8:	09810613          	addi	a2,sp,152
   10fac:	38c050ef          	jal	16338 <__sprint_r>
   10fb0:	bc0516e3          	bnez	a0,10b7c <_vfprintf_r+0x768>
   10fb4:	0a412703          	lw	a4,164(sp)
   10fb8:	15010893          	addi	a7,sp,336
   10fbc:	03fb9793          	slli	a5,s7,0x3f
   10fc0:	9407d8e3          	bgez	a5,10910 <_vfprintf_r+0x4fc>
   10fc4:	05013283          	ld	t0,80(sp)
   10fc8:	0a012783          	lw	a5,160(sp)
   10fcc:	00700693          	li	a3,7
   10fd0:	00e2873b          	addw	a4,t0,a4
   10fd4:	03813283          	ld	t0,56(sp)
   10fd8:	0017879b          	addiw	a5,a5,1
   10fdc:	0ae12223          	sw	a4,164(sp)
   10fe0:	0058b023          	sd	t0,0(a7)
   10fe4:	05013283          	ld	t0,80(sp)
   10fe8:	0af12023          	sw	a5,160(sp)
   10fec:	0058b423          	sd	t0,8(a7)
   10ff0:	90f6dee3          	ble	a5,a3,1090c <_vfprintf_r+0x4f8>
   10ff4:	000a8513          	mv	a0,s5
   10ff8:	00090593          	mv	a1,s2
   10ffc:	09810613          	addi	a2,sp,152
   11000:	338050ef          	jal	16338 <__sprint_r>
   11004:	b6051ce3          	bnez	a0,10b7c <_vfprintf_r+0x768>
   11008:	0a412703          	lw	a4,164(sp)
   1100c:	15010893          	addi	a7,sp,336
   11010:	901ff06f          	j	10910 <_vfprintf_r+0x4fc>
   11014:	00100693          	li	a3,1
   11018:	e6d79863          	bne	a5,a3,10688 <_vfprintf_r+0x274>
   1101c:	00900513          	li	a0,9
   11020:	0d010693          	addi	a3,sp,208
   11024:	00a00613          	li	a2,10
   11028:	00e57e63          	bleu	a4,a0,11044 <_vfprintf_r+0xc30>
   1102c:	02c777b3          	remu	a5,a4,a2
   11030:	fff68693          	addi	a3,a3,-1
   11034:	02c75733          	divu	a4,a4,a2
   11038:	0307879b          	addiw	a5,a5,48
   1103c:	00f68023          	sb	a5,0(a3)
   11040:	fee566e3          	bltu	a0,a4,1102c <_vfprintf_r+0xc18>
   11044:	01013283          	ld	t0,16(sp)
   11048:	fff68413          	addi	s0,a3,-1
   1104c:	0307071b          	addiw	a4,a4,48
   11050:	40828cb3          	sub	s9,t0,s0
   11054:	fee68fa3          	sb	a4,-1(a3)
   11058:	03912223          	sw	s9,36(sp)
   1105c:	e64ff06f          	j	106c0 <_vfprintf_r+0x2ac>
   11060:	06500693          	li	a3,101
   11064:	1f86d863          	ble	s8,a3,11254 <_vfprintf_r+0xe40>
   11068:	05813087          	fld	ft1,88(sp)
   1106c:	f2000053          	fmv.d.x	ft0,zero
   11070:	a200a6d3          	feq.d	a3,ft1,ft0
   11074:	38068663          	beqz	a3,11400 <_vfprintf_r+0xfec>
   11078:	0001b6b7          	lui	a3,0x1b
   1107c:	c4868693          	addi	a3,a3,-952 # 1ac48 <__clz_tab+0x160>
   11080:	00d8b023          	sd	a3,0(a7)
   11084:	00100693          	li	a3,1
   11088:	00d8b423          	sd	a3,8(a7)
   1108c:	0017071b          	addiw	a4,a4,1
   11090:	0017879b          	addiw	a5,a5,1
   11094:	00700693          	li	a3,7
   11098:	0ae12223          	sw	a4,164(sp)
   1109c:	0af12023          	sw	a5,160(sp)
   110a0:	01088893          	addi	a7,a7,16
   110a4:	76f6c063          	blt	a3,a5,11804 <_vfprintf_r+0x13f0>
   110a8:	08012783          	lw	a5,128(sp)
   110ac:	04412283          	lw	t0,68(sp)
   110b0:	0057c663          	blt	a5,t0,110bc <_vfprintf_r+0xca8>
   110b4:	03fb9613          	slli	a2,s7,0x3f
   110b8:	84065ce3          	bgez	a2,10910 <_vfprintf_r+0x4fc>
   110bc:	05013283          	ld	t0,80(sp)
   110c0:	0a012783          	lw	a5,160(sp)
   110c4:	00700693          	li	a3,7
   110c8:	00e2873b          	addw	a4,t0,a4
   110cc:	03813283          	ld	t0,56(sp)
   110d0:	0017879b          	addiw	a5,a5,1
   110d4:	0ae12223          	sw	a4,164(sp)
   110d8:	0058b023          	sd	t0,0(a7)
   110dc:	05013283          	ld	t0,80(sp)
   110e0:	0af12023          	sw	a5,160(sp)
   110e4:	01088893          	addi	a7,a7,16
   110e8:	fe58bc23          	sd	t0,-8(a7)
   110ec:	0af6c6e3          	blt	a3,a5,11998 <_vfprintf_r+0x1584>
   110f0:	04412683          	lw	a3,68(sp)
   110f4:	fff6841b          	addiw	s0,a3,-1
   110f8:	80805ce3          	blez	s0,10910 <_vfprintf_r+0x4fc>
   110fc:	01000793          	li	a5,16
   11100:	6087dc63          	ble	s0,a5,11718 <_vfprintf_r+0x1304>
   11104:	01000c13          	li	s8,16
   11108:	0001a337          	lui	t1,0x1a
   1110c:	0a012783          	lw	a5,160(sp)
   11110:	7a030993          	addi	s3,t1,1952 # 1a7a0 <zeroes.3950>
   11114:	00700c93          	li	s9,7
   11118:	000c0d13          	mv	s10,s8
   1111c:	00c0006f          	j	11128 <_vfprintf_r+0xd14>
   11120:	ff04041b          	addiw	s0,s0,-16
   11124:	608d5063          	ble	s0,s10,11724 <_vfprintf_r+0x1310>
   11128:	0107071b          	addiw	a4,a4,16
   1112c:	0017879b          	addiw	a5,a5,1
   11130:	0138b023          	sd	s3,0(a7)
   11134:	0188b423          	sd	s8,8(a7)
   11138:	0ae12223          	sw	a4,164(sp)
   1113c:	0af12023          	sw	a5,160(sp)
   11140:	01088893          	addi	a7,a7,16
   11144:	fcfcdee3          	ble	a5,s9,11120 <_vfprintf_r+0xd0c>
   11148:	000a8513          	mv	a0,s5
   1114c:	00090593          	mv	a1,s2
   11150:	09810613          	addi	a2,sp,152
   11154:	1e4050ef          	jal	16338 <__sprint_r>
   11158:	a20512e3          	bnez	a0,10b7c <_vfprintf_r+0x768>
   1115c:	0a412703          	lw	a4,164(sp)
   11160:	0a012783          	lw	a5,160(sp)
   11164:	15010893          	addi	a7,sp,336
   11168:	fb9ff06f          	j	11120 <_vfprintf_r+0xd0c>
   1116c:	01c12283          	lw	t0,28(sp)
   11170:	02012683          	lw	a3,32(sp)
   11174:	40d28d3b          	subw	s10,t0,a3
   11178:	e9a05e63          	blez	s10,10814 <_vfprintf_r+0x400>
   1117c:	0001a337          	lui	t1,0x1a
   11180:	01000693          	li	a3,16
   11184:	7a030993          	addi	s3,t1,1952 # 1a7a0 <zeroes.3950>
   11188:	07a6d663          	ble	s10,a3,111f4 <_vfprintf_r+0xde0>
   1118c:	01000d93          	li	s11,16
   11190:	0001a337          	lui	t1,0x1a
   11194:	7a030993          	addi	s3,t1,1952 # 1a7a0 <zeroes.3950>
   11198:	00700c93          	li	s9,7
   1119c:	000d8493          	mv	s1,s11
   111a0:	00c0006f          	j	111ac <_vfprintf_r+0xd98>
   111a4:	ff0d0d1b          	addiw	s10,s10,-16
   111a8:	05a4d663          	ble	s10,s1,111f4 <_vfprintf_r+0xde0>
   111ac:	0107071b          	addiw	a4,a4,16
   111b0:	0017879b          	addiw	a5,a5,1
   111b4:	0138b023          	sd	s3,0(a7)
   111b8:	01b8b423          	sd	s11,8(a7)
   111bc:	0ae12223          	sw	a4,164(sp)
   111c0:	0af12023          	sw	a5,160(sp)
   111c4:	01088893          	addi	a7,a7,16
   111c8:	fcfcdee3          	ble	a5,s9,111a4 <_vfprintf_r+0xd90>
   111cc:	000a8513          	mv	a0,s5
   111d0:	00090593          	mv	a1,s2
   111d4:	09810613          	addi	a2,sp,152
   111d8:	160050ef          	jal	16338 <__sprint_r>
   111dc:	9a0510e3          	bnez	a0,10b7c <_vfprintf_r+0x768>
   111e0:	ff0d0d1b          	addiw	s10,s10,-16
   111e4:	0a412703          	lw	a4,164(sp)
   111e8:	0a012783          	lw	a5,160(sp)
   111ec:	15010893          	addi	a7,sp,336
   111f0:	fba4cee3          	blt	s1,s10,111ac <_vfprintf_r+0xd98>
   111f4:	01a7073b          	addw	a4,a4,s10
   111f8:	0017879b          	addiw	a5,a5,1
   111fc:	00700693          	li	a3,7
   11200:	0138b023          	sd	s3,0(a7)
   11204:	01a8b423          	sd	s10,8(a7)
   11208:	0ae12223          	sw	a4,164(sp)
   1120c:	0af12023          	sw	a5,160(sp)
   11210:	01088893          	addi	a7,a7,16
   11214:	e0f6d063          	ble	a5,a3,10814 <_vfprintf_r+0x400>
   11218:	000a8513          	mv	a0,s5
   1121c:	00090593          	mv	a1,s2
   11220:	09810613          	addi	a2,sp,152
   11224:	114050ef          	jal	16338 <__sprint_r>
   11228:	94051ae3          	bnez	a0,10b7c <_vfprintf_r+0x768>
   1122c:	0a412703          	lw	a4,164(sp)
   11230:	0a012783          	lw	a5,160(sp)
   11234:	15010893          	addi	a7,sp,336
   11238:	ddcff06f          	j	10814 <_vfprintf_r+0x400>
   1123c:	000a8513          	mv	a0,s5
   11240:	00090593          	mv	a1,s2
   11244:	09810613          	addi	a2,sp,152
   11248:	0f0050ef          	jal	16338 <__sprint_r>
   1124c:	fa050663          	beqz	a0,109f8 <_vfprintf_r+0x5e4>
   11250:	92dff06f          	j	10b7c <_vfprintf_r+0x768>
   11254:	04412803          	lw	a6,68(sp)
   11258:	00100693          	li	a3,1
   1125c:	0b06dc63          	ble	a6,a3,11314 <_vfprintf_r+0xf00>
   11260:	00100693          	li	a3,1
   11264:	00d8b423          	sd	a3,8(a7)
   11268:	0017071b          	addiw	a4,a4,1
   1126c:	0017879b          	addiw	a5,a5,1
   11270:	00700693          	li	a3,7
   11274:	0088b023          	sd	s0,0(a7)
   11278:	0ae12223          	sw	a4,164(sp)
   1127c:	0af12023          	sw	a5,160(sp)
   11280:	01088893          	addi	a7,a7,16
   11284:	2af6c663          	blt	a3,a5,11530 <_vfprintf_r+0x111c>
   11288:	05013283          	ld	t0,80(sp)
   1128c:	0017879b          	addiw	a5,a5,1
   11290:	00700693          	li	a3,7
   11294:	00e2873b          	addw	a4,t0,a4
   11298:	03813283          	ld	t0,56(sp)
   1129c:	0ae12223          	sw	a4,164(sp)
   112a0:	0af12023          	sw	a5,160(sp)
   112a4:	0058b023          	sd	t0,0(a7)
   112a8:	05013283          	ld	t0,80(sp)
   112ac:	01088893          	addi	a7,a7,16
   112b0:	fe58bc23          	sd	t0,-8(a7)
   112b4:	2af6c063          	blt	a3,a5,11554 <_vfprintf_r+0x1140>
   112b8:	05813087          	fld	ft1,88(sp)
   112bc:	f2000053          	fmv.d.x	ft0,zero
   112c0:	a200a653          	feq.d	a2,ft1,ft0
   112c4:	1e061663          	bnez	a2,114b0 <_vfprintf_r+0x109c>
   112c8:	04412283          	lw	t0,68(sp)
   112cc:	00140413          	addi	s0,s0,1
   112d0:	0017879b          	addiw	a5,a5,1
   112d4:	fff2869b          	addiw	a3,t0,-1
   112d8:	00068613          	mv	a2,a3
   112dc:	00d7073b          	addw	a4,a4,a3
   112e0:	00700693          	li	a3,7
   112e4:	0088b023          	sd	s0,0(a7)
   112e8:	00c8b423          	sd	a2,8(a7)
   112ec:	0ae12223          	sw	a4,164(sp)
   112f0:	0af12023          	sw	a5,160(sp)
   112f4:	04f6c663          	blt	a3,a5,11340 <_vfprintf_r+0xf2c>
   112f8:	01088893          	addi	a7,a7,16
   112fc:	06812683          	lw	a3,104(sp)
   11300:	08810613          	addi	a2,sp,136
   11304:	0017879b          	addiw	a5,a5,1
   11308:	00e6873b          	addw	a4,a3,a4
   1130c:	00c8b023          	sd	a2,0(a7)
   11310:	de8ff06f          	j	108f8 <_vfprintf_r+0x4e4>
   11314:	03fb9293          	slli	t0,s7,0x3f
   11318:	f402c4e3          	bltz	t0,11260 <_vfprintf_r+0xe4c>
   1131c:	0017071b          	addiw	a4,a4,1
   11320:	0017879b          	addiw	a5,a5,1
   11324:	0088b023          	sd	s0,0(a7)
   11328:	00100693          	li	a3,1
   1132c:	00d8b423          	sd	a3,8(a7)
   11330:	00700693          	li	a3,7
   11334:	0ae12223          	sw	a4,164(sp)
   11338:	0af12023          	sw	a5,160(sp)
   1133c:	faf6dee3          	ble	a5,a3,112f8 <_vfprintf_r+0xee4>
   11340:	000a8513          	mv	a0,s5
   11344:	00090593          	mv	a1,s2
   11348:	09810613          	addi	a2,sp,152
   1134c:	7ed040ef          	jal	16338 <__sprint_r>
   11350:	820516e3          	bnez	a0,10b7c <_vfprintf_r+0x768>
   11354:	0a412703          	lw	a4,164(sp)
   11358:	0a012783          	lw	a5,160(sp)
   1135c:	15010893          	addi	a7,sp,336
   11360:	f9dff06f          	j	112fc <_vfprintf_r+0xee8>
   11364:	08079863          	bnez	a5,113f4 <_vfprintf_r+0xfe0>
   11368:	03fb9613          	slli	a2,s7,0x3f
   1136c:	08065463          	bgez	a2,113f4 <_vfprintf_r+0xfe0>
   11370:	06c12283          	lw	t0,108(sp)
   11374:	03000793          	li	a5,48
   11378:	0cf107a3          	sb	a5,207(sp)
   1137c:	02512223          	sw	t0,36(sp)
   11380:	0cf10413          	addi	s0,sp,207
   11384:	b3cff06f          	j	106c0 <_vfprintf_r+0x2ac>
   11388:	000a8513          	mv	a0,s5
   1138c:	00090593          	mv	a1,s2
   11390:	09810613          	addi	a2,sp,152
   11394:	7a5040ef          	jal	16338 <__sprint_r>
   11398:	fe051263          	bnez	a0,10b7c <_vfprintf_r+0x768>
   1139c:	0a412703          	lw	a4,164(sp)
   113a0:	0a012783          	lw	a5,160(sp)
   113a4:	15010893          	addi	a7,sp,336
   113a8:	c60ff06f          	j	10808 <_vfprintf_r+0x3f4>
   113ac:	0d010413          	addi	s0,sp,208
   113b0:	00777793          	andi	a5,a4,7
   113b4:	fff40413          	addi	s0,s0,-1
   113b8:	0307879b          	addiw	a5,a5,48
   113bc:	00375713          	srli	a4,a4,0x3
   113c0:	00f40023          	sb	a5,0(s0)
   113c4:	fe0716e3          	bnez	a4,113b0 <_vfprintf_r+0xf9c>
   113c8:	03fb9693          	slli	a3,s7,0x3f
   113cc:	00040713          	mv	a4,s0
   113d0:	ae06d263          	bgez	a3,106b4 <_vfprintf_r+0x2a0>
   113d4:	03000693          	li	a3,48
   113d8:	acd78e63          	beq	a5,a3,106b4 <_vfprintf_r+0x2a0>
   113dc:	01013283          	ld	t0,16(sp)
   113e0:	fff40413          	addi	s0,s0,-1
   113e4:	fed70fa3          	sb	a3,-1(a4)
   113e8:	40828cb3          	sub	s9,t0,s0
   113ec:	03912223          	sw	s9,36(sp)
   113f0:	ad0ff06f          	j	106c0 <_vfprintf_r+0x2ac>
   113f4:	02012223          	sw	zero,36(sp)
   113f8:	0d010413          	addi	s0,sp,208
   113fc:	ac4ff06f          	j	106c0 <_vfprintf_r+0x2ac>
   11400:	08012c03          	lw	s8,128(sp)
   11404:	43805063          	blez	s8,11824 <_vfprintf_r+0x1410>
   11408:	04412283          	lw	t0,68(sp)
   1140c:	385c4063          	blt	s8,t0,1178c <_vfprintf_r+0x1378>
   11410:	00e2873b          	addw	a4,t0,a4
   11414:	0017879b          	addiw	a5,a5,1
   11418:	00700693          	li	a3,7
   1141c:	0088b023          	sd	s0,0(a7)
   11420:	0058b423          	sd	t0,8(a7)
   11424:	0ae12223          	sw	a4,164(sp)
   11428:	0af12023          	sw	a5,160(sp)
   1142c:	01088893          	addi	a7,a7,16
   11430:	6cf6cc63          	blt	a3,a5,11b08 <_vfprintf_r+0x16f4>
   11434:	04412683          	lw	a3,68(sp)
   11438:	40dc043b          	subw	s0,s8,a3
   1143c:	b88050e3          	blez	s0,10fbc <_vfprintf_r+0xba8>
   11440:	01000793          	li	a5,16
   11444:	b287d6e3          	ble	s0,a5,10f70 <_vfprintf_r+0xb5c>
   11448:	01000c13          	li	s8,16
   1144c:	0001a337          	lui	t1,0x1a
   11450:	0a012783          	lw	a5,160(sp)
   11454:	7a030993          	addi	s3,t1,1952 # 1a7a0 <zeroes.3950>
   11458:	00700c93          	li	s9,7
   1145c:	000c0d13          	mv	s10,s8
   11460:	00c0006f          	j	1146c <_vfprintf_r+0x1058>
   11464:	ff04041b          	addiw	s0,s0,-16
   11468:	b08d5ae3          	ble	s0,s10,10f7c <_vfprintf_r+0xb68>
   1146c:	0107071b          	addiw	a4,a4,16
   11470:	0017879b          	addiw	a5,a5,1
   11474:	0138b023          	sd	s3,0(a7)
   11478:	0188b423          	sd	s8,8(a7)
   1147c:	0ae12223          	sw	a4,164(sp)
   11480:	0af12023          	sw	a5,160(sp)
   11484:	01088893          	addi	a7,a7,16
   11488:	fcfcdee3          	ble	a5,s9,11464 <_vfprintf_r+0x1050>
   1148c:	000a8513          	mv	a0,s5
   11490:	00090593          	mv	a1,s2
   11494:	09810613          	addi	a2,sp,152
   11498:	6a1040ef          	jal	16338 <__sprint_r>
   1149c:	ee051063          	bnez	a0,10b7c <_vfprintf_r+0x768>
   114a0:	0a412703          	lw	a4,164(sp)
   114a4:	0a012783          	lw	a5,160(sp)
   114a8:	15010893          	addi	a7,sp,336
   114ac:	fb9ff06f          	j	11464 <_vfprintf_r+0x1050>
   114b0:	04412683          	lw	a3,68(sp)
   114b4:	fff6841b          	addiw	s0,a3,-1
   114b8:	e48052e3          	blez	s0,112fc <_vfprintf_r+0xee8>
   114bc:	0001a337          	lui	t1,0x1a
   114c0:	01000693          	li	a3,16
   114c4:	7a030993          	addi	s3,t1,1952 # 1a7a0 <zeroes.3950>
   114c8:	0a86d863          	ble	s0,a3,11578 <_vfprintf_r+0x1164>
   114cc:	01000c13          	li	s8,16
   114d0:	0001a337          	lui	t1,0x1a
   114d4:	7a030993          	addi	s3,t1,1952 # 1a7a0 <zeroes.3950>
   114d8:	00700d13          	li	s10,7
   114dc:	000c0d93          	mv	s11,s8
   114e0:	00c0006f          	j	114ec <_vfprintf_r+0x10d8>
   114e4:	ff04041b          	addiw	s0,s0,-16
   114e8:	088dd863          	ble	s0,s11,11578 <_vfprintf_r+0x1164>
   114ec:	0107071b          	addiw	a4,a4,16
   114f0:	0017879b          	addiw	a5,a5,1
   114f4:	0138b023          	sd	s3,0(a7)
   114f8:	0188b423          	sd	s8,8(a7)
   114fc:	0ae12223          	sw	a4,164(sp)
   11500:	0af12023          	sw	a5,160(sp)
   11504:	01088893          	addi	a7,a7,16
   11508:	fcfd5ee3          	ble	a5,s10,114e4 <_vfprintf_r+0x10d0>
   1150c:	000a8513          	mv	a0,s5
   11510:	00090593          	mv	a1,s2
   11514:	09810613          	addi	a2,sp,152
   11518:	621040ef          	jal	16338 <__sprint_r>
   1151c:	e6051063          	bnez	a0,10b7c <_vfprintf_r+0x768>
   11520:	0a412703          	lw	a4,164(sp)
   11524:	0a012783          	lw	a5,160(sp)
   11528:	15010893          	addi	a7,sp,336
   1152c:	fb9ff06f          	j	114e4 <_vfprintf_r+0x10d0>
   11530:	000a8513          	mv	a0,s5
   11534:	00090593          	mv	a1,s2
   11538:	09810613          	addi	a2,sp,152
   1153c:	5fd040ef          	jal	16338 <__sprint_r>
   11540:	e2051e63          	bnez	a0,10b7c <_vfprintf_r+0x768>
   11544:	0a412703          	lw	a4,164(sp)
   11548:	0a012783          	lw	a5,160(sp)
   1154c:	15010893          	addi	a7,sp,336
   11550:	d39ff06f          	j	11288 <_vfprintf_r+0xe74>
   11554:	000a8513          	mv	a0,s5
   11558:	00090593          	mv	a1,s2
   1155c:	09810613          	addi	a2,sp,152
   11560:	5d9040ef          	jal	16338 <__sprint_r>
   11564:	e0051c63          	bnez	a0,10b7c <_vfprintf_r+0x768>
   11568:	0a412703          	lw	a4,164(sp)
   1156c:	0a012783          	lw	a5,160(sp)
   11570:	15010893          	addi	a7,sp,336
   11574:	d45ff06f          	j	112b8 <_vfprintf_r+0xea4>
   11578:	00040693          	mv	a3,s0
   1157c:	0087073b          	addw	a4,a4,s0
   11580:	0017879b          	addiw	a5,a5,1
   11584:	0138b023          	sd	s3,0(a7)
   11588:	da5ff06f          	j	1132c <_vfprintf_r+0xf18>
   1158c:	0d010693          	addi	a3,sp,208
   11590:	ab5ff06f          	j	11044 <_vfprintf_r+0xc30>
   11594:	02d00793          	li	a5,45
   11598:	06f10ba3          	sb	a5,119(sp)
   1159c:	40e00733          	neg	a4,a4
   115a0:	05b12023          	sw	s11,64(sp)
   115a4:	02d00593          	li	a1,45
   115a8:	00100793          	li	a5,1
   115ac:	8c4ff06f          	j	10670 <_vfprintf_r+0x25c>
   115b0:	05813507          	fld	fa0,88(sp)
   115b4:	01113023          	sd	a7,0(sp)
   115b8:	0c9040ef          	jal	15e80 <__fpclassifyd>
   115bc:	00013883          	ld	a7,0(sp)
   115c0:	34050463          	beqz	a0,11908 <_vfprintf_r+0x14f4>
   115c4:	fff00793          	li	a5,-1
   115c8:	fdfc7c93          	andi	s9,s8,-33
   115cc:	72fd8a63          	beq	s11,a5,11d00 <_vfprintf_r+0x18ec>
   115d0:	04700793          	li	a5,71
   115d4:	70fc8a63          	beq	s9,a5,11ce8 <_vfprintf_r+0x18d4>
   115d8:	05813783          	ld	a5,88(sp)
   115dc:	100be293          	ori	t0,s7,256
   115e0:	02512423          	sw	t0,40(sp)
   115e4:	4207d793          	srai	a5,a5,0x20
   115e8:	05813407          	fld	fs0,88(sp)
   115ec:	00000493          	li	s1,0
   115f0:	7007c263          	bltz	a5,11cf4 <_vfprintf_r+0x18e0>
   115f4:	06600793          	li	a5,102
   115f8:	44fc0663          	beq	s8,a5,11a44 <_vfprintf_r+0x1630>
   115fc:	04600793          	li	a5,70
   11600:	44fc0263          	beq	s8,a5,11a44 <_vfprintf_r+0x1630>
   11604:	fbbc899b          	addiw	s3,s9,-69
   11608:	0019b993          	seqz	s3,s3
   1160c:	013d89bb          	addw	s3,s11,s3
   11610:	228405d3          	fmv.d	fa1,fs0
   11614:	08410793          	addi	a5,sp,132
   11618:	000a8513          	mv	a0,s5
   1161c:	00200613          	li	a2,2
   11620:	00098693          	mv	a3,s3
   11624:	08010713          	addi	a4,sp,128
   11628:	09010813          	addi	a6,sp,144
   1162c:	01113023          	sd	a7,0(sp)
   11630:	5d9000ef          	jal	12408 <_dtoa_r>
   11634:	06700793          	li	a5,103
   11638:	00050413          	mv	s0,a0
   1163c:	00013883          	ld	a7,0(sp)
   11640:	00fc0663          	beq	s8,a5,1164c <_vfprintf_r+0x1238>
   11644:	04700793          	li	a5,71
   11648:	42fc1663          	bne	s8,a5,11a74 <_vfprintf_r+0x1660>
   1164c:	03fb9693          	slli	a3,s7,0x3f
   11650:	01340633          	add	a2,s0,s3
   11654:	7006d063          	bgez	a3,11d54 <_vfprintf_r+0x1940>
   11658:	f2000053          	fmv.d.x	ft0,zero
   1165c:	00060793          	mv	a5,a2
   11660:	a2042753          	feq.d	a4,fs0,ft0
   11664:	02071263          	bnez	a4,11688 <_vfprintf_r+0x1274>
   11668:	09013783          	ld	a5,144(sp)
   1166c:	00c7fe63          	bleu	a2,a5,11688 <_vfprintf_r+0x1274>
   11670:	03000693          	li	a3,48
   11674:	00178713          	addi	a4,a5,1
   11678:	08e13823          	sd	a4,144(sp)
   1167c:	00d78023          	sb	a3,0(a5)
   11680:	09013783          	ld	a5,144(sp)
   11684:	fec7e8e3          	bltu	a5,a2,11674 <_vfprintf_r+0x1260>
   11688:	408787b3          	sub	a5,a5,s0
   1168c:	04f12223          	sw	a5,68(sp)
   11690:	04700793          	li	a5,71
   11694:	50fc8263          	beq	s9,a5,11b98 <_vfprintf_r+0x1784>
   11698:	06500793          	li	a5,101
   1169c:	7987d463          	ble	s8,a5,11e24 <_vfprintf_r+0x1a10>
   116a0:	06600793          	li	a5,102
   116a4:	68fc0863          	beq	s8,a5,11d34 <_vfprintf_r+0x1920>
   116a8:	08012283          	lw	t0,128(sp)
   116ac:	02512223          	sw	t0,36(sp)
   116b0:	04412683          	lw	a3,68(sp)
   116b4:	02412703          	lw	a4,36(sp)
   116b8:	64d74863          	blt	a4,a3,11d08 <_vfprintf_r+0x18f4>
   116bc:	03fb9793          	slli	a5,s7,0x3f
   116c0:	5007c663          	bltz	a5,11bcc <_vfprintf_r+0x17b8>
   116c4:	fff74993          	not	s3,a4
   116c8:	41f9d99b          	sraiw	s3,s3,0x1f
   116cc:	013779b3          	and	s3,a4,s3
   116d0:	03312023          	sw	s3,32(sp)
   116d4:	40048863          	beqz	s1,11ae4 <_vfprintf_r+0x16d0>
   116d8:	02d00793          	li	a5,45
   116dc:	02812b83          	lw	s7,40(sp)
   116e0:	06f10ba3          	sb	a5,119(sp)
   116e4:	03a13423          	sd	s10,40(sp)
   116e8:	04012023          	sw	zero,64(sp)
   116ec:	fe9fe06f          	j	106d4 <_vfprintf_r+0x2c0>
   116f0:	0007a703          	lw	a4,0(a5)
   116f4:	02813783          	ld	a5,40(sp)
   116f8:	00878793          	addi	a5,a5,8
   116fc:	02f13423          	sd	a5,40(sp)
   11700:	ddcff06f          	j	10cdc <_vfprintf_r+0x8c8>
   11704:	02813283          	ld	t0,40(sp)
   11708:	0007e703          	lwu	a4,0(a5)
   1170c:	00828293          	addi	t0,t0,8
   11710:	02513423          	sd	t0,40(sp)
   11714:	d84ff06f          	j	10c98 <_vfprintf_r+0x884>
   11718:	0a012783          	lw	a5,160(sp)
   1171c:	0001a337          	lui	t1,0x1a
   11720:	7a030993          	addi	s3,t1,1952 # 1a7a0 <zeroes.3950>
   11724:	00040693          	mv	a3,s0
   11728:	0087073b          	addw	a4,a4,s0
   1172c:	0017879b          	addiw	a5,a5,1
   11730:	0138b023          	sd	s3,0(a7)
   11734:	9c4ff06f          	j	108f8 <_vfprintf_r+0x4e4>
   11738:	02813283          	ld	t0,40(sp)
   1173c:	0007e703          	lwu	a4,0(a5)
   11740:	00100793          	li	a5,1
   11744:	00828293          	addi	t0,t0,8
   11748:	02513423          	sd	t0,40(sp)
   1174c:	f19fe06f          	j	10664 <_vfprintf_r+0x250>
   11750:	02813283          	ld	t0,40(sp)
   11754:	0007e703          	lwu	a4,0(a5)
   11758:	00000793          	li	a5,0
   1175c:	00828293          	addi	t0,t0,8
   11760:	02513423          	sd	t0,40(sp)
   11764:	f01fe06f          	j	10664 <_vfprintf_r+0x250>
   11768:	02813683          	ld	a3,40(sp)
   1176c:	039b9293          	slli	t0,s7,0x39
   11770:	0006b783          	ld	a5,0(a3)
   11774:	00868693          	addi	a3,a3,8
   11778:	02d13423          	sd	a3,40(sp)
   1177c:	1c02d263          	bgez	t0,11940 <_vfprintf_r+0x152c>
   11780:	03012283          	lw	t0,48(sp)
   11784:	00579023          	sh	t0,0(a5)
   11788:	da5fe06f          	j	1052c <_vfprintf_r+0x118>
   1178c:	00ec073b          	addw	a4,s8,a4
   11790:	0017879b          	addiw	a5,a5,1
   11794:	00700693          	li	a3,7
   11798:	0088b023          	sd	s0,0(a7)
   1179c:	0188b423          	sd	s8,8(a7)
   117a0:	0ae12223          	sw	a4,164(sp)
   117a4:	0af12023          	sw	a5,160(sp)
   117a8:	38f6c463          	blt	a3,a5,11b30 <_vfprintf_r+0x171c>
   117ac:	01088893          	addi	a7,a7,16
   117b0:	000c0693          	mv	a3,s8
   117b4:	05013283          	ld	t0,80(sp)
   117b8:	0017879b          	addiw	a5,a5,1
   117bc:	00d40433          	add	s0,s0,a3
   117c0:	00e2873b          	addw	a4,t0,a4
   117c4:	03813283          	ld	t0,56(sp)
   117c8:	00700693          	li	a3,7
   117cc:	0ae12223          	sw	a4,164(sp)
   117d0:	0058b023          	sd	t0,0(a7)
   117d4:	05013283          	ld	t0,80(sp)
   117d8:	0af12023          	sw	a5,160(sp)
   117dc:	01088893          	addi	a7,a7,16
   117e0:	fe58bc23          	sd	t0,-8(a7)
   117e4:	38f6c463          	blt	a3,a5,11b6c <_vfprintf_r+0x1758>
   117e8:	04412683          	lw	a3,68(sp)
   117ec:	0017879b          	addiw	a5,a5,1
   117f0:	0088b023          	sd	s0,0(a7)
   117f4:	41868c3b          	subw	s8,a3,s8
   117f8:	000c0693          	mv	a3,s8
   117fc:	00ec073b          	addw	a4,s8,a4
   11800:	8f8ff06f          	j	108f8 <_vfprintf_r+0x4e4>
   11804:	000a8513          	mv	a0,s5
   11808:	00090593          	mv	a1,s2
   1180c:	09810613          	addi	a2,sp,152
   11810:	329040ef          	jal	16338 <__sprint_r>
   11814:	b6051463          	bnez	a0,10b7c <_vfprintf_r+0x768>
   11818:	0a412703          	lw	a4,164(sp)
   1181c:	15010893          	addi	a7,sp,336
   11820:	889ff06f          	j	110a8 <_vfprintf_r+0xc94>
   11824:	0001b6b7          	lui	a3,0x1b
   11828:	c4868693          	addi	a3,a3,-952 # 1ac48 <__clz_tab+0x160>
   1182c:	00d8b023          	sd	a3,0(a7)
   11830:	00100693          	li	a3,1
   11834:	00d8b423          	sd	a3,8(a7)
   11838:	0017071b          	addiw	a4,a4,1
   1183c:	0017879b          	addiw	a5,a5,1
   11840:	00700693          	li	a3,7
   11844:	0ae12223          	sw	a4,164(sp)
   11848:	0af12023          	sw	a5,160(sp)
   1184c:	01088893          	addi	a7,a7,16
   11850:	12f6c063          	blt	a3,a5,11970 <_vfprintf_r+0x155c>
   11854:	100c0263          	beqz	s8,11958 <_vfprintf_r+0x1544>
   11858:	05013283          	ld	t0,80(sp)
   1185c:	0a012783          	lw	a5,160(sp)
   11860:	00700693          	li	a3,7
   11864:	00e2873b          	addw	a4,t0,a4
   11868:	03813283          	ld	t0,56(sp)
   1186c:	0017879b          	addiw	a5,a5,1
   11870:	0ae12223          	sw	a4,164(sp)
   11874:	0058b023          	sd	t0,0(a7)
   11878:	05013283          	ld	t0,80(sp)
   1187c:	0af12023          	sw	a5,160(sp)
   11880:	01088893          	addi	a7,a7,16
   11884:	fe58bc23          	sd	t0,-8(a7)
   11888:	42f6ca63          	blt	a3,a5,11cbc <_vfprintf_r+0x18a8>
   1188c:	41800c3b          	negw	s8,s8
   11890:	17805663          	blez	s8,119fc <_vfprintf_r+0x15e8>
   11894:	0001a337          	lui	t1,0x1a
   11898:	01000693          	li	a3,16
   1189c:	7a030993          	addi	s3,t1,1952 # 1a7a0 <zeroes.3950>
   118a0:	1186dc63          	ble	s8,a3,119b8 <_vfprintf_r+0x15a4>
   118a4:	01000c93          	li	s9,16
   118a8:	0001a337          	lui	t1,0x1a
   118ac:	7a030993          	addi	s3,t1,1952 # 1a7a0 <zeroes.3950>
   118b0:	00700d93          	li	s11,7
   118b4:	000c8d13          	mv	s10,s9
   118b8:	00c0006f          	j	118c4 <_vfprintf_r+0x14b0>
   118bc:	ff0c0c1b          	addiw	s8,s8,-16
   118c0:	0f8d5c63          	ble	s8,s10,119b8 <_vfprintf_r+0x15a4>
   118c4:	0107071b          	addiw	a4,a4,16
   118c8:	0017879b          	addiw	a5,a5,1
   118cc:	0138b023          	sd	s3,0(a7)
   118d0:	0198b423          	sd	s9,8(a7)
   118d4:	0ae12223          	sw	a4,164(sp)
   118d8:	0af12023          	sw	a5,160(sp)
   118dc:	01088893          	addi	a7,a7,16
   118e0:	fcfddee3          	ble	a5,s11,118bc <_vfprintf_r+0x14a8>
   118e4:	000a8513          	mv	a0,s5
   118e8:	00090593          	mv	a1,s2
   118ec:	09810613          	addi	a2,sp,152
   118f0:	249040ef          	jal	16338 <__sprint_r>
   118f4:	a8051463          	bnez	a0,10b7c <_vfprintf_r+0x768>
   118f8:	0a412703          	lw	a4,164(sp)
   118fc:	0a012783          	lw	a5,160(sp)
   11900:	15010893          	addi	a7,sp,336
   11904:	fb9ff06f          	j	118bc <_vfprintf_r+0x14a8>
   11908:	04700793          	li	a5,71
   1190c:	2587ca63          	blt	a5,s8,11b60 <_vfprintf_r+0x174c>
   11910:	0001b437          	lui	s0,0x1b
   11914:	c0040413          	addi	s0,s0,-1024 # 1ac00 <__clz_tab+0x118>
   11918:	00300693          	li	a3,3
   1191c:	02d12023          	sw	a3,32(sp)
   11920:	f7fbfb93          	andi	s7,s7,-129
   11924:	07714583          	lbu	a1,119(sp)
   11928:	03a13423          	sd	s10,40(sp)
   1192c:	02d12223          	sw	a3,36(sp)
   11930:	04012023          	sw	zero,64(sp)
   11934:	d9dfe06f          	j	106d0 <_vfprintf_r+0x2bc>
   11938:	03b12223          	sw	s11,36(sp)
   1193c:	d34ff06f          	j	10e70 <_vfprintf_r+0xa5c>
   11940:	03012283          	lw	t0,48(sp)
   11944:	0057a023          	sw	t0,0(a5)
   11948:	be5fe06f          	j	1052c <_vfprintf_r+0x118>
   1194c:	0001b437          	lui	s0,0x1b
   11950:	bf040413          	addi	s0,s0,-1040 # 1abf0 <__clz_tab+0x108>
   11954:	cbcff06f          	j	10e10 <_vfprintf_r+0x9fc>
   11958:	04412783          	lw	a5,68(sp)
   1195c:	ee079ee3          	bnez	a5,11858 <_vfprintf_r+0x1444>
   11960:	03fb9813          	slli	a6,s7,0x3f
   11964:	00084463          	bltz	a6,1196c <_vfprintf_r+0x1558>
   11968:	fa9fe06f          	j	10910 <_vfprintf_r+0x4fc>
   1196c:	eedff06f          	j	11858 <_vfprintf_r+0x1444>
   11970:	000a8513          	mv	a0,s5
   11974:	00090593          	mv	a1,s2
   11978:	09810613          	addi	a2,sp,152
   1197c:	1bd040ef          	jal	16338 <__sprint_r>
   11980:	9e051e63          	bnez	a0,10b7c <_vfprintf_r+0x768>
   11984:	08012c03          	lw	s8,128(sp)
   11988:	0a412703          	lw	a4,164(sp)
   1198c:	15010893          	addi	a7,sp,336
   11990:	ec0c14e3          	bnez	s8,11858 <_vfprintf_r+0x1444>
   11994:	fc5ff06f          	j	11958 <_vfprintf_r+0x1544>
   11998:	000a8513          	mv	a0,s5
   1199c:	00090593          	mv	a1,s2
   119a0:	09810613          	addi	a2,sp,152
   119a4:	195040ef          	jal	16338 <__sprint_r>
   119a8:	9c051a63          	bnez	a0,10b7c <_vfprintf_r+0x768>
   119ac:	0a412703          	lw	a4,164(sp)
   119b0:	15010893          	addi	a7,sp,336
   119b4:	f3cff06f          	j	110f0 <_vfprintf_r+0xcdc>
   119b8:	0187073b          	addw	a4,a4,s8
   119bc:	0017879b          	addiw	a5,a5,1
   119c0:	00700693          	li	a3,7
   119c4:	0138b023          	sd	s3,0(a7)
   119c8:	0188b423          	sd	s8,8(a7)
   119cc:	0ae12223          	sw	a4,164(sp)
   119d0:	0af12023          	sw	a5,160(sp)
   119d4:	01088893          	addi	a7,a7,16
   119d8:	02f6d263          	ble	a5,a3,119fc <_vfprintf_r+0x15e8>
   119dc:	000a8513          	mv	a0,s5
   119e0:	00090593          	mv	a1,s2
   119e4:	09810613          	addi	a2,sp,152
   119e8:	151040ef          	jal	16338 <__sprint_r>
   119ec:	98051863          	bnez	a0,10b7c <_vfprintf_r+0x768>
   119f0:	0a412703          	lw	a4,164(sp)
   119f4:	0a012783          	lw	a5,160(sp)
   119f8:	15010893          	addi	a7,sp,336
   119fc:	04412683          	lw	a3,68(sp)
   11a00:	0017879b          	addiw	a5,a5,1
   11a04:	0088b023          	sd	s0,0(a7)
   11a08:	00e6873b          	addw	a4,a3,a4
   11a0c:	eedfe06f          	j	108f8 <_vfprintf_r+0x4e4>
   11a10:	01113023          	sd	a7,0(sp)
   11a14:	76c040ef          	jal	16180 <strlen>
   11a18:	02a12223          	sw	a0,36(sp)
   11a1c:	02412283          	lw	t0,36(sp)
   11a20:	07714583          	lbu	a1,119(sp)
   11a24:	03a13423          	sd	s10,40(sp)
   11a28:	fff2c993          	not	s3,t0
   11a2c:	41f9d99b          	sraiw	s3,s3,0x1f
   11a30:	0132f9b3          	and	s3,t0,s3
   11a34:	03312023          	sw	s3,32(sp)
   11a38:	04012023          	sw	zero,64(sp)
   11a3c:	00013883          	ld	a7,0(sp)
   11a40:	c91fe06f          	j	106d0 <_vfprintf_r+0x2bc>
   11a44:	228405d3          	fmv.d	fa1,fs0
   11a48:	000a8513          	mv	a0,s5
   11a4c:	00300613          	li	a2,3
   11a50:	000d8693          	mv	a3,s11
   11a54:	08010713          	addi	a4,sp,128
   11a58:	08410793          	addi	a5,sp,132
   11a5c:	09010813          	addi	a6,sp,144
   11a60:	01113023          	sd	a7,0(sp)
   11a64:	1a5000ef          	jal	12408 <_dtoa_r>
   11a68:	00013883          	ld	a7,0(sp)
   11a6c:	00050413          	mv	s0,a0
   11a70:	000d8993          	mv	s3,s11
   11a74:	04600793          	li	a5,70
   11a78:	01340633          	add	a2,s0,s3
   11a7c:	bcfc9ee3          	bne	s9,a5,11658 <_vfprintf_r+0x1244>
   11a80:	00044703          	lbu	a4,0(s0)
   11a84:	03000793          	li	a5,48
   11a88:	2cf70a63          	beq	a4,a5,11d5c <_vfprintf_r+0x1948>
   11a8c:	08012983          	lw	s3,128(sp)
   11a90:	01360633          	add	a2,a2,s3
   11a94:	bc5ff06f          	j	11658 <_vfprintf_r+0x1244>
   11a98:	0a012783          	lw	a5,160(sp)
   11a9c:	05613423          	sd	s6,72(sp)
   11aa0:	ce9fe06f          	j	10788 <_vfprintf_r+0x374>
   11aa4:	00600713          	li	a4,6
   11aa8:	000d8793          	mv	a5,s11
   11aac:	01b77463          	bleu	s11,a4,11ab4 <_vfprintf_r+0x16a0>
   11ab0:	00070793          	mv	a5,a4
   11ab4:	fff7c993          	not	s3,a5
   11ab8:	41f9d99b          	sraiw	s3,s3,0x1f
   11abc:	0137f9b3          	and	s3,a5,s3
   11ac0:	0001b437          	lui	s0,0x1b
   11ac4:	02f12223          	sw	a5,36(sp)
   11ac8:	03312023          	sw	s3,32(sp)
   11acc:	03a13423          	sd	s10,40(sp)
   11ad0:	c4040413          	addi	s0,s0,-960 # 1ac40 <__clz_tab+0x158>
   11ad4:	938ff06f          	j	10c0c <_vfprintf_r+0x7f8>
   11ad8:	0a012783          	lw	a5,160(sp)
   11adc:	05613423          	sd	s6,72(sp)
   11ae0:	ebdfe06f          	j	1099c <_vfprintf_r+0x588>
   11ae4:	02812b83          	lw	s7,40(sp)
   11ae8:	07714583          	lbu	a1,119(sp)
   11aec:	03a13423          	sd	s10,40(sp)
   11af0:	04012023          	sw	zero,64(sp)
   11af4:	bddfe06f          	j	106d0 <_vfprintf_r+0x2bc>
   11af8:	02d00793          	li	a5,45
   11afc:	06f10ba3          	sb	a5,119(sp)
   11b00:	02d00593          	li	a1,45
   11b04:	afcff06f          	j	10e00 <_vfprintf_r+0x9ec>
   11b08:	000a8513          	mv	a0,s5
   11b0c:	00090593          	mv	a1,s2
   11b10:	09810613          	addi	a2,sp,152
   11b14:	025040ef          	jal	16338 <__sprint_r>
   11b18:	00050463          	beqz	a0,11b20 <_vfprintf_r+0x170c>
   11b1c:	860ff06f          	j	10b7c <_vfprintf_r+0x768>
   11b20:	08012c03          	lw	s8,128(sp)
   11b24:	0a412703          	lw	a4,164(sp)
   11b28:	15010893          	addi	a7,sp,336
   11b2c:	909ff06f          	j	11434 <_vfprintf_r+0x1020>
   11b30:	000a8513          	mv	a0,s5
   11b34:	00090593          	mv	a1,s2
   11b38:	09810613          	addi	a2,sp,152
   11b3c:	7fc040ef          	jal	16338 <__sprint_r>
   11b40:	00050463          	beqz	a0,11b48 <_vfprintf_r+0x1734>
   11b44:	838ff06f          	j	10b7c <_vfprintf_r+0x768>
   11b48:	08012c03          	lw	s8,128(sp)
   11b4c:	0a412703          	lw	a4,164(sp)
   11b50:	0a012783          	lw	a5,160(sp)
   11b54:	000c0693          	mv	a3,s8
   11b58:	15010893          	addi	a7,sp,336
   11b5c:	c59ff06f          	j	117b4 <_vfprintf_r+0x13a0>
   11b60:	0001b437          	lui	s0,0x1b
   11b64:	c0840413          	addi	s0,s0,-1016 # 1ac08 <__clz_tab+0x120>
   11b68:	db1ff06f          	j	11918 <_vfprintf_r+0x1504>
   11b6c:	000a8513          	mv	a0,s5
   11b70:	00090593          	mv	a1,s2
   11b74:	09810613          	addi	a2,sp,152
   11b78:	7c0040ef          	jal	16338 <__sprint_r>
   11b7c:	00050463          	beqz	a0,11b84 <_vfprintf_r+0x1770>
   11b80:	ffdfe06f          	j	10b7c <_vfprintf_r+0x768>
   11b84:	08012c03          	lw	s8,128(sp)
   11b88:	0a412703          	lw	a4,164(sp)
   11b8c:	0a012783          	lw	a5,160(sp)
   11b90:	15010893          	addi	a7,sp,336
   11b94:	c55ff06f          	j	117e8 <_vfprintf_r+0x13d4>
   11b98:	08012c83          	lw	s9,128(sp)
   11b9c:	ffd00793          	li	a5,-3
   11ba0:	04fcc663          	blt	s9,a5,11bec <_vfprintf_r+0x17d8>
   11ba4:	059dc463          	blt	s11,s9,11bec <_vfprintf_r+0x17d8>
   11ba8:	03912223          	sw	s9,36(sp)
   11bac:	06700c13          	li	s8,103
   11bb0:	b01ff06f          	j	116b0 <_vfprintf_r+0x129c>
   11bb4:	03b12023          	sw	s11,32(sp)
   11bb8:	07714583          	lbu	a1,119(sp)
   11bbc:	03b12223          	sw	s11,36(sp)
   11bc0:	03a13423          	sd	s10,40(sp)
   11bc4:	04012023          	sw	zero,64(sp)
   11bc8:	b09fe06f          	j	106d0 <_vfprintf_r+0x2bc>
   11bcc:	02412803          	lw	a6,36(sp)
   11bd0:	0018081b          	addiw	a6,a6,1
   11bd4:	fff84993          	not	s3,a6
   11bd8:	41f9d99b          	sraiw	s3,s3,0x1f
   11bdc:	013879b3          	and	s3,a6,s3
   11be0:	03012223          	sw	a6,36(sp)
   11be4:	03312023          	sw	s3,32(sp)
   11be8:	aedff06f          	j	116d4 <_vfprintf_r+0x12c0>
   11bec:	ffec0c1b          	addiw	s8,s8,-2
   11bf0:	fffc8c9b          	addiw	s9,s9,-1
   11bf4:	09912023          	sw	s9,128(sp)
   11bf8:	09810423          	sb	s8,136(sp)
   11bfc:	200cc263          	bltz	s9,11e00 <_vfprintf_r+0x19ec>
   11c00:	02b00793          	li	a5,43
   11c04:	08f104a3          	sb	a5,137(sp)
   11c08:	00900693          	li	a3,9
   11c0c:	1796d863          	ble	s9,a3,11d7c <_vfprintf_r+0x1968>
   11c10:	09710613          	addi	a2,sp,151
   11c14:	00060793          	mv	a5,a2
   11c18:	00a00593          	li	a1,10
   11c1c:	02bce73b          	remw	a4,s9,a1
   11c20:	fff78793          	addi	a5,a5,-1
   11c24:	02bcccbb          	divw	s9,s9,a1
   11c28:	0307071b          	addiw	a4,a4,48
   11c2c:	00e78023          	sb	a4,0(a5)
   11c30:	ff96c6e3          	blt	a3,s9,11c1c <_vfprintf_r+0x1808>
   11c34:	030c8c9b          	addiw	s9,s9,48
   11c38:	0ffcfc93          	andi	s9,s9,255
   11c3c:	fff78713          	addi	a4,a5,-1
   11c40:	ff978fa3          	sb	s9,-1(a5)
   11c44:	1cc77c63          	bleu	a2,a4,11e1c <_vfprintf_r+0x1a08>
   11c48:	08a10693          	addi	a3,sp,138
   11c4c:	0080006f          	j	11c54 <_vfprintf_r+0x1840>
   11c50:	00074c83          	lbu	s9,0(a4)
   11c54:	00168693          	addi	a3,a3,1
   11c58:	00170713          	addi	a4,a4,1
   11c5c:	ff968fa3          	sb	s9,-1(a3)
   11c60:	fec718e3          	bne	a4,a2,11c50 <_vfprintf_r+0x183c>
   11c64:	09810713          	addi	a4,sp,152
   11c68:	40f707b3          	sub	a5,a4,a5
   11c6c:	08a10613          	addi	a2,sp,138
   11c70:	00f607b3          	add	a5,a2,a5
   11c74:	08810713          	addi	a4,sp,136
   11c78:	40e787b3          	sub	a5,a5,a4
   11c7c:	06f12423          	sw	a5,104(sp)
   11c80:	04412683          	lw	a3,68(sp)
   11c84:	06812283          	lw	t0,104(sp)
   11c88:	00100793          	li	a5,1
   11c8c:	005686bb          	addw	a3,a3,t0
   11c90:	02d12223          	sw	a3,36(sp)
   11c94:	04412683          	lw	a3,68(sp)
   11c98:	f2d7cae3          	blt	a5,a3,11bcc <_vfprintf_r+0x17b8>
   11c9c:	03fb9713          	slli	a4,s7,0x3f
   11ca0:	f20746e3          	bltz	a4,11bcc <_vfprintf_r+0x17b8>
   11ca4:	02412783          	lw	a5,36(sp)
   11ca8:	fff7c993          	not	s3,a5
   11cac:	41f9d99b          	sraiw	s3,s3,0x1f
   11cb0:	0137f9b3          	and	s3,a5,s3
   11cb4:	03312023          	sw	s3,32(sp)
   11cb8:	a1dff06f          	j	116d4 <_vfprintf_r+0x12c0>
   11cbc:	000a8513          	mv	a0,s5
   11cc0:	00090593          	mv	a1,s2
   11cc4:	09810613          	addi	a2,sp,152
   11cc8:	670040ef          	jal	16338 <__sprint_r>
   11ccc:	00050463          	beqz	a0,11cd4 <_vfprintf_r+0x18c0>
   11cd0:	eadfe06f          	j	10b7c <_vfprintf_r+0x768>
   11cd4:	08012c03          	lw	s8,128(sp)
   11cd8:	0a412703          	lw	a4,164(sp)
   11cdc:	0a012783          	lw	a5,160(sp)
   11ce0:	15010893          	addi	a7,sp,336
   11ce4:	ba9ff06f          	j	1188c <_vfprintf_r+0x1478>
   11ce8:	8e0d98e3          	bnez	s11,115d8 <_vfprintf_r+0x11c4>
   11cec:	00040d93          	mv	s11,s0
   11cf0:	8e9ff06f          	j	115d8 <_vfprintf_r+0x11c4>
   11cf4:	22841453          	fneg.d	fs0,fs0
   11cf8:	02d00493          	li	s1,45
   11cfc:	8f9ff06f          	j	115f4 <_vfprintf_r+0x11e0>
   11d00:	00600d93          	li	s11,6
   11d04:	8d5ff06f          	j	115d8 <_vfprintf_r+0x11c4>
   11d08:	02412283          	lw	t0,36(sp)
   11d0c:	00100793          	li	a5,1
   11d10:	10505063          	blez	t0,11e10 <_vfprintf_r+0x19fc>
   11d14:	04412683          	lw	a3,68(sp)
   11d18:	00d787bb          	addw	a5,a5,a3
   11d1c:	fff7c993          	not	s3,a5
   11d20:	41f9d99b          	sraiw	s3,s3,0x1f
   11d24:	0137f9b3          	and	s3,a5,s3
   11d28:	02f12223          	sw	a5,36(sp)
   11d2c:	03312023          	sw	s3,32(sp)
   11d30:	9a5ff06f          	j	116d4 <_vfprintf_r+0x12c0>
   11d34:	08012683          	lw	a3,128(sp)
   11d38:	02d12223          	sw	a3,36(sp)
   11d3c:	06d05863          	blez	a3,11dac <_vfprintf_r+0x1998>
   11d40:	040d9a63          	bnez	s11,11d94 <_vfprintf_r+0x1980>
   11d44:	03fb9713          	slli	a4,s7,0x3f
   11d48:	04074663          	bltz	a4,11d94 <_vfprintf_r+0x1980>
   11d4c:	02d12023          	sw	a3,32(sp)
   11d50:	985ff06f          	j	116d4 <_vfprintf_r+0x12c0>
   11d54:	09013783          	ld	a5,144(sp)
   11d58:	931ff06f          	j	11688 <_vfprintf_r+0x1274>
   11d5c:	f2000053          	fmv.d.x	ft0,zero
   11d60:	a20427d3          	feq.d	a5,fs0,ft0
   11d64:	d20794e3          	bnez	a5,11a8c <_vfprintf_r+0x1678>
   11d68:	00100793          	li	a5,1
   11d6c:	413789bb          	subw	s3,a5,s3
   11d70:	09312023          	sw	s3,128(sp)
   11d74:	01360633          	add	a2,a2,s3
   11d78:	8e1ff06f          	j	11658 <_vfprintf_r+0x1244>
   11d7c:	03000793          	li	a5,48
   11d80:	030c8c9b          	addiw	s9,s9,48
   11d84:	08f10523          	sb	a5,138(sp)
   11d88:	099105a3          	sb	s9,139(sp)
   11d8c:	08c10793          	addi	a5,sp,140
   11d90:	ee5ff06f          	j	11c74 <_vfprintf_r+0x1860>
   11d94:	02412803          	lw	a6,36(sp)
   11d98:	001d879b          	addiw	a5,s11,1
   11d9c:	00f8083b          	addw	a6,a6,a5
   11da0:	e35ff06f          	j	11bd4 <_vfprintf_r+0x17c0>
   11da4:	fff00413          	li	s0,-1
   11da8:	d3dfe06f          	j	10ae4 <_vfprintf_r+0x6d0>
   11dac:	000d9c63          	bnez	s11,11dc4 <_vfprintf_r+0x19b0>
   11db0:	00100293          	li	t0,1
   11db4:	03fb9613          	slli	a2,s7,0x3f
   11db8:	02512023          	sw	t0,32(sp)
   11dbc:	02512223          	sw	t0,36(sp)
   11dc0:	90065ae3          	bgez	a2,116d4 <_vfprintf_r+0x12c0>
   11dc4:	002d8d9b          	addiw	s11,s11,2
   11dc8:	fffdc993          	not	s3,s11
   11dcc:	41f9d99b          	sraiw	s3,s3,0x1f
   11dd0:	013df9b3          	and	s3,s11,s3
   11dd4:	03b12223          	sw	s11,36(sp)
   11dd8:	03312023          	sw	s3,32(sp)
   11ddc:	8f9ff06f          	j	116d4 <_vfprintf_r+0x12c0>
   11de0:	02813283          	ld	t0,40(sp)
   11de4:	0002ad83          	lw	s11,0(t0)
   11de8:	00828293          	addi	t0,t0,8
   11dec:	02513423          	sd	t0,40(sp)
   11df0:	000dc463          	bltz	s11,11df8 <_vfprintf_r+0x19e4>
   11df4:	fd0fe06f          	j	105c4 <_vfprintf_r+0x1b0>
   11df8:	fff00d93          	li	s11,-1
   11dfc:	fc8fe06f          	j	105c4 <_vfprintf_r+0x1b0>
   11e00:	02d00793          	li	a5,45
   11e04:	41900cbb          	negw	s9,s9
   11e08:	08f104a3          	sb	a5,137(sp)
   11e0c:	dfdff06f          	j	11c08 <_vfprintf_r+0x17f4>
   11e10:	00200793          	li	a5,2
   11e14:	405787bb          	subw	a5,a5,t0
   11e18:	efdff06f          	j	11d14 <_vfprintf_r+0x1900>
   11e1c:	08a10793          	addi	a5,sp,138
   11e20:	e55ff06f          	j	11c74 <_vfprintf_r+0x1860>
   11e24:	08012c83          	lw	s9,128(sp)
   11e28:	dc9ff06f          	j	11bf0 <_vfprintf_r+0x17dc>

0000000000011e2c <vfprintf>:
   11e2c:	00050713          	mv	a4,a0
   11e30:	8101b503          	ld	a0,-2032(gp) # 1d070 <_impure_ptr>
   11e34:	00058793          	mv	a5,a1
   11e38:	00060693          	mv	a3,a2
   11e3c:	00070593          	mv	a1,a4
   11e40:	00078613          	mv	a2,a5
   11e44:	dd0fe06f          	j	10414 <_vfprintf_r>

0000000000011e48 <__swsetup_r>:
   11e48:	8101b783          	ld	a5,-2032(gp) # 1d070 <_impure_ptr>
   11e4c:	fe010113          	addi	sp,sp,-32
   11e50:	00813823          	sd	s0,16(sp)
   11e54:	00913423          	sd	s1,8(sp)
   11e58:	00113c23          	sd	ra,24(sp)
   11e5c:	00050493          	mv	s1,a0
   11e60:	00058413          	mv	s0,a1
   11e64:	00078663          	beqz	a5,11e70 <__swsetup_r+0x28>
   11e68:	0507a703          	lw	a4,80(a5)
   11e6c:	0c070c63          	beqz	a4,11f44 <__swsetup_r+0xfc>
   11e70:	01041703          	lh	a4,16(s0)
   11e74:	03071793          	slli	a5,a4,0x30
   11e78:	0307d793          	srli	a5,a5,0x30
   11e7c:	0087f693          	andi	a3,a5,8
   11e80:	04068263          	beqz	a3,11ec4 <__swsetup_r+0x7c>
   11e84:	01843683          	ld	a3,24(s0)
   11e88:	06068663          	beqz	a3,11ef4 <__swsetup_r+0xac>
   11e8c:	03f79713          	slli	a4,a5,0x3f
   11e90:	08074463          	bltz	a4,11f18 <__swsetup_r+0xd0>
   11e94:	0027f793          	andi	a5,a5,2
   11e98:	00000713          	li	a4,0
   11e9c:	00079463          	bnez	a5,11ea4 <__swsetup_r+0x5c>
   11ea0:	02042703          	lw	a4,32(s0)
   11ea4:	00e42623          	sw	a4,12(s0)
   11ea8:	00000513          	li	a0,0
   11eac:	08068263          	beqz	a3,11f30 <__swsetup_r+0xe8>
   11eb0:	01813083          	ld	ra,24(sp)
   11eb4:	01013403          	ld	s0,16(sp)
   11eb8:	00813483          	ld	s1,8(sp)
   11ebc:	02010113          	addi	sp,sp,32
   11ec0:	00008067          	ret
   11ec4:	0107f693          	andi	a3,a5,16
   11ec8:	06068a63          	beqz	a3,11f3c <__swsetup_r+0xf4>
   11ecc:	0047f793          	andi	a5,a5,4
   11ed0:	08079063          	bnez	a5,11f50 <__swsetup_r+0x108>
   11ed4:	01843683          	ld	a3,24(s0)
   11ed8:	00876793          	ori	a5,a4,8
   11edc:	0107979b          	slliw	a5,a5,0x10
   11ee0:	4107d79b          	sraiw	a5,a5,0x10
   11ee4:	00f41823          	sh	a5,16(s0)
   11ee8:	03079793          	slli	a5,a5,0x30
   11eec:	0307d793          	srli	a5,a5,0x30
   11ef0:	f8069ee3          	bnez	a3,11e8c <__swsetup_r+0x44>
   11ef4:	2807f613          	andi	a2,a5,640
   11ef8:	20000713          	li	a4,512
   11efc:	f8e608e3          	beq	a2,a4,11e8c <__swsetup_r+0x44>
   11f00:	00048513          	mv	a0,s1
   11f04:	00040593          	mv	a1,s0
   11f08:	2b4020ef          	jal	141bc <__smakebuf_r>
   11f0c:	01045783          	lhu	a5,16(s0)
   11f10:	01843683          	ld	a3,24(s0)
   11f14:	f79ff06f          	j	11e8c <__swsetup_r+0x44>
   11f18:	02042783          	lw	a5,32(s0)
   11f1c:	00042623          	sw	zero,12(s0)
   11f20:	00000513          	li	a0,0
   11f24:	40f007bb          	negw	a5,a5
   11f28:	02f42423          	sw	a5,40(s0)
   11f2c:	f80692e3          	bnez	a3,11eb0 <__swsetup_r+0x68>
   11f30:	01045783          	lhu	a5,16(s0)
   11f34:	0807f793          	andi	a5,a5,128
   11f38:	f6078ce3          	beqz	a5,11eb0 <__swsetup_r+0x68>
   11f3c:	fff00513          	li	a0,-1
   11f40:	f71ff06f          	j	11eb0 <__swsetup_r+0x68>
   11f44:	00078513          	mv	a0,a5
   11f48:	3e1010ef          	jal	13b28 <__sinit>
   11f4c:	f25ff06f          	j	11e70 <__swsetup_r+0x28>
   11f50:	05843583          	ld	a1,88(s0)
   11f54:	00058e63          	beqz	a1,11f70 <__swsetup_r+0x128>
   11f58:	07440793          	addi	a5,s0,116
   11f5c:	00f58863          	beq	a1,a5,11f6c <__swsetup_r+0x124>
   11f60:	00048513          	mv	a0,s1
   11f64:	51d010ef          	jal	13c80 <_free_r>
   11f68:	01041703          	lh	a4,16(s0)
   11f6c:	04043c23          	sd	zero,88(s0)
   11f70:	01843683          	ld	a3,24(s0)
   11f74:	fdb77713          	andi	a4,a4,-37
   11f78:	0107171b          	slliw	a4,a4,0x10
   11f7c:	4107571b          	sraiw	a4,a4,0x10
   11f80:	00042423          	sw	zero,8(s0)
   11f84:	00d43023          	sd	a3,0(s0)
   11f88:	f51ff06f          	j	11ed8 <__swsetup_r+0x90>

0000000000011f8c <__register_exitproc>:
   11f8c:	fc010113          	addi	sp,sp,-64
   11f90:	02813823          	sd	s0,48(sp)
   11f94:	8081b403          	ld	s0,-2040(gp) # 1d068 <_global_impure_ptr>
   11f98:	02913423          	sd	s1,40(sp)
   11f9c:	02113c23          	sd	ra,56(sp)
   11fa0:	1f843783          	ld	a5,504(s0)
   11fa4:	00050493          	mv	s1,a0
   11fa8:	0c078a63          	beqz	a5,1207c <__register_exitproc+0xf0>
   11fac:	0087a803          	lw	a6,8(a5)
   11fb0:	01f00713          	li	a4,31
   11fb4:	0018089b          	addiw	a7,a6,1
   11fb8:	05075a63          	ble	a6,a4,1200c <__register_exitproc+0x80>
   11fbc:	00000793          	li	a5,0
   11fc0:	0c078463          	beqz	a5,12088 <__register_exitproc+0xfc>
   11fc4:	31800513          	li	a0,792
   11fc8:	00b13c23          	sd	a1,24(sp)
   11fcc:	00c13823          	sd	a2,16(sp)
   11fd0:	00d13423          	sd	a3,8(sp)
   11fd4:	82cee0ef          	jal	0 <_ftext-0x10000>
   11fd8:	00050793          	mv	a5,a0
   11fdc:	01813583          	ld	a1,24(sp)
   11fe0:	01013603          	ld	a2,16(sp)
   11fe4:	00813683          	ld	a3,8(sp)
   11fe8:	0a050063          	beqz	a0,12088 <__register_exitproc+0xfc>
   11fec:	1f843703          	ld	a4,504(s0)
   11ff0:	00100893          	li	a7,1
   11ff4:	00052423          	sw	zero,8(a0)
   11ff8:	00e53023          	sd	a4,0(a0)
   11ffc:	00000813          	li	a6,0
   12000:	1ea43c23          	sd	a0,504(s0)
   12004:	30052823          	sw	zero,784(a0)
   12008:	30052a23          	sw	zero,788(a0)
   1200c:	00080713          	mv	a4,a6
   12010:	02049863          	bnez	s1,12040 <__register_exitproc+0xb4>
   12014:	00270713          	addi	a4,a4,2
   12018:	00371713          	slli	a4,a4,0x3
   1201c:	00e78733          	add	a4,a5,a4
   12020:	0117a423          	sw	a7,8(a5)
   12024:	00000513          	li	a0,0
   12028:	00b73023          	sd	a1,0(a4)
   1202c:	03813083          	ld	ra,56(sp)
   12030:	03013403          	ld	s0,48(sp)
   12034:	02813483          	ld	s1,40(sp)
   12038:	04010113          	addi	sp,sp,64
   1203c:	00008067          	ret
   12040:	00381513          	slli	a0,a6,0x3
   12044:	00a78533          	add	a0,a5,a0
   12048:	10c53823          	sd	a2,272(a0)
   1204c:	3107a283          	lw	t0,784(a5)
   12050:	00100613          	li	a2,1
   12054:	0106183b          	sllw	a6,a2,a6
   12058:	0102e633          	or	a2,t0,a6
   1205c:	30c7a823          	sw	a2,784(a5)
   12060:	20d53823          	sd	a3,528(a0)
   12064:	00200693          	li	a3,2
   12068:	fad496e3          	bne	s1,a3,12014 <__register_exitproc+0x88>
   1206c:	3147a683          	lw	a3,788(a5)
   12070:	0106e833          	or	a6,a3,a6
   12074:	3107aa23          	sw	a6,788(a5)
   12078:	f9dff06f          	j	12014 <__register_exitproc+0x88>
   1207c:	20040793          	addi	a5,s0,512
   12080:	1ef43c23          	sd	a5,504(s0)
   12084:	f29ff06f          	j	11fac <__register_exitproc+0x20>
   12088:	fff00513          	li	a0,-1
   1208c:	fa1ff06f          	j	1202c <__register_exitproc+0xa0>

0000000000012090 <__call_exitprocs>:
   12090:	fa010113          	addi	sp,sp,-96
   12094:	03313c23          	sd	s3,56(sp)
   12098:	8081b983          	ld	s3,-2040(gp) # 1d068 <_global_impure_ptr>
   1209c:	05213023          	sd	s2,64(sp)
   120a0:	04913423          	sd	s1,72(sp)
   120a4:	03413823          	sd	s4,48(sp)
   120a8:	03513423          	sd	s5,40(sp)
   120ac:	01713c23          	sd	s7,24(sp)
   120b0:	01813823          	sd	s8,16(sp)
   120b4:	04113c23          	sd	ra,88(sp)
   120b8:	04813823          	sd	s0,80(sp)
   120bc:	03613023          	sd	s6,32(sp)
   120c0:	01913423          	sd	s9,8(sp)
   120c4:	01a13023          	sd	s10,0(sp)
   120c8:	00050493          	mv	s1,a0
   120cc:	00058b93          	mv	s7,a1
   120d0:	1f898a13          	addi	s4,s3,504
   120d4:	00100a93          	li	s5,1
   120d8:	fff00c13          	li	s8,-1
   120dc:	00000913          	li	s2,0
   120e0:	1f89bb03          	ld	s6,504(s3)
   120e4:	0a0b0a63          	beqz	s6,12198 <__call_exitprocs+0x108>
   120e8:	000a0d13          	mv	s10,s4
   120ec:	008b2403          	lw	s0,8(s6)
   120f0:	fff4041b          	addiw	s0,s0,-1
   120f4:	02045263          	bgez	s0,12118 <__call_exitprocs+0x88>
   120f8:	0780006f          	j	12170 <__call_exitprocs+0xe0>
   120fc:	02040793          	addi	a5,s0,32
   12100:	00379793          	slli	a5,a5,0x3
   12104:	00fb07b3          	add	a5,s6,a5
   12108:	1107b783          	ld	a5,272(a5)
   1210c:	01778a63          	beq	a5,s7,12120 <__call_exitprocs+0x90>
   12110:	fff4041b          	addiw	s0,s0,-1
   12114:	05840e63          	beq	s0,s8,12170 <__call_exitprocs+0xe0>
   12118:	00040713          	mv	a4,s0
   1211c:	fe0b90e3          	bnez	s7,120fc <__call_exitprocs+0x6c>
   12120:	008b2783          	lw	a5,8(s6)
   12124:	00371713          	slli	a4,a4,0x3
   12128:	00eb0733          	add	a4,s6,a4
   1212c:	fff7879b          	addiw	a5,a5,-1
   12130:	01073683          	ld	a3,16(a4)
   12134:	0a878c63          	beq	a5,s0,121ec <__call_exitprocs+0x15c>
   12138:	00073823          	sd	zero,16(a4)
   1213c:	fc068ae3          	beqz	a3,12110 <__call_exitprocs+0x80>
   12140:	310b2783          	lw	a5,784(s6)
   12144:	008a963b          	sllw	a2,s5,s0
   12148:	008b2c83          	lw	s9,8(s6)
   1214c:	00f677b3          	and	a5,a2,a5
   12150:	08079063          	bnez	a5,121d0 <__call_exitprocs+0x140>
   12154:	000680e7          	jalr	a3
   12158:	008b2783          	lw	a5,8(s6)
   1215c:	f99792e3          	bne	a5,s9,120e0 <__call_exitprocs+0x50>
   12160:	000d3783          	ld	a5,0(s10)
   12164:	f7679ee3          	bne	a5,s6,120e0 <__call_exitprocs+0x50>
   12168:	fff4041b          	addiw	s0,s0,-1
   1216c:	fb8416e3          	bne	s0,s8,12118 <__call_exitprocs+0x88>
   12170:	02090463          	beqz	s2,12198 <__call_exitprocs+0x108>
   12174:	008b2783          	lw	a5,8(s6)
   12178:	08079463          	bnez	a5,12200 <__call_exitprocs+0x170>
   1217c:	000b3783          	ld	a5,0(s6)
   12180:	08078a63          	beqz	a5,12214 <__call_exitprocs+0x184>
   12184:	000b0513          	mv	a0,s6
   12188:	00fd3023          	sd	a5,0(s10)
   1218c:	e75ed0ef          	jal	0 <_ftext-0x10000>
   12190:	000d3b03          	ld	s6,0(s10)
   12194:	f40b1ce3          	bnez	s6,120ec <__call_exitprocs+0x5c>
   12198:	05813083          	ld	ra,88(sp)
   1219c:	05013403          	ld	s0,80(sp)
   121a0:	04813483          	ld	s1,72(sp)
   121a4:	04013903          	ld	s2,64(sp)
   121a8:	03813983          	ld	s3,56(sp)
   121ac:	03013a03          	ld	s4,48(sp)
   121b0:	02813a83          	ld	s5,40(sp)
   121b4:	02013b03          	ld	s6,32(sp)
   121b8:	01813b83          	ld	s7,24(sp)
   121bc:	01013c03          	ld	s8,16(sp)
   121c0:	00813c83          	ld	s9,8(sp)
   121c4:	00013d03          	ld	s10,0(sp)
   121c8:	06010113          	addi	sp,sp,96
   121cc:	00008067          	ret
   121d0:	314b2783          	lw	a5,788(s6)
   121d4:	00f677b3          	and	a5,a2,a5
   121d8:	00079e63          	bnez	a5,121f4 <__call_exitprocs+0x164>
   121dc:	11073583          	ld	a1,272(a4)
   121e0:	00048513          	mv	a0,s1
   121e4:	000680e7          	jalr	a3
   121e8:	f71ff06f          	j	12158 <__call_exitprocs+0xc8>
   121ec:	008b2423          	sw	s0,8(s6)
   121f0:	f4dff06f          	j	1213c <__call_exitprocs+0xac>
   121f4:	11073503          	ld	a0,272(a4)
   121f8:	000680e7          	jalr	a3
   121fc:	f5dff06f          	j	12158 <__call_exitprocs+0xc8>
   12200:	000b3783          	ld	a5,0(s6)
   12204:	000b0d13          	mv	s10,s6
   12208:	00078b13          	mv	s6,a5
   1220c:	ee0b10e3          	bnez	s6,120ec <__call_exitprocs+0x5c>
   12210:	f89ff06f          	j	12198 <__call_exitprocs+0x108>
   12214:	00000793          	li	a5,0
   12218:	fedff06f          	j	12204 <__call_exitprocs+0x174>

000000000001221c <quorem>:
   1221c:	fc010113          	addi	sp,sp,-64
   12220:	03213023          	sd	s2,32(sp)
   12224:	01452783          	lw	a5,20(a0)
   12228:	0145a903          	lw	s2,20(a1)
   1222c:	02113c23          	sd	ra,56(sp)
   12230:	02813823          	sd	s0,48(sp)
   12234:	02913423          	sd	s1,40(sp)
   12238:	01313c23          	sd	s3,24(sp)
   1223c:	01413823          	sd	s4,16(sp)
   12240:	01513423          	sd	s5,8(sp)
   12244:	1b27ce63          	blt	a5,s2,12400 <quorem+0x1e4>
   12248:	fff9091b          	addiw	s2,s2,-1
   1224c:	00090e13          	mv	t3,s2
   12250:	002e1e13          	slli	t3,t3,0x2
   12254:	01858413          	addi	s0,a1,24
   12258:	01c409b3          	add	s3,s0,t3
   1225c:	01850a13          	addi	s4,a0,24
   12260:	01ca0e33          	add	t3,s4,t3
   12264:	0009a783          	lw	a5,0(s3)
   12268:	000e2483          	lw	s1,0(t3)
   1226c:	0017879b          	addiw	a5,a5,1
   12270:	02f4d4bb          	divuw	s1,s1,a5
   12274:	0a048e63          	beqz	s1,12330 <quorem+0x114>
   12278:	000102b7          	lui	t0,0x10
   1227c:	00040393          	mv	t2,s0
   12280:	000a0313          	mv	t1,s4
   12284:	00000813          	li	a6,0
   12288:	00000793          	li	a5,0
   1228c:	fff2829b          	addiw	t0,t0,-1
   12290:	00438393          	addi	t2,t2,4
   12294:	ffc3a883          	lw	a7,-4(t2)
   12298:	00032703          	lw	a4,0(t1)
   1229c:	00430313          	addi	t1,t1,4
   122a0:	0058f633          	and	a2,a7,t0
   122a4:	02c4863b          	mulw	a2,s1,a2
   122a8:	0108d89b          	srliw	a7,a7,0x10
   122ac:	00577eb3          	and	t4,a4,t0
   122b0:	0107571b          	srliw	a4,a4,0x10
   122b4:	031488bb          	mulw	a7,s1,a7
   122b8:	00c8063b          	addw	a2,a6,a2
   122bc:	005676b3          	and	a3,a2,t0
   122c0:	0106581b          	srliw	a6,a2,0x10
   122c4:	40d787bb          	subw	a5,a5,a3
   122c8:	01d786bb          	addw	a3,a5,t4
   122cc:	4106de9b          	sraiw	t4,a3,0x10
   122d0:	0056f6b3          	and	a3,a3,t0
   122d4:	0118063b          	addw	a2,a6,a7
   122d8:	005677b3          	and	a5,a2,t0
   122dc:	40f7073b          	subw	a4,a4,a5
   122e0:	01d707bb          	addw	a5,a4,t4
   122e4:	0107971b          	slliw	a4,a5,0x10
   122e8:	00d766b3          	or	a3,a4,a3
   122ec:	0106581b          	srliw	a6,a2,0x10
   122f0:	4107d79b          	sraiw	a5,a5,0x10
   122f4:	fed32e23          	sw	a3,-4(t1)
   122f8:	f879fce3          	bleu	t2,s3,12290 <quorem+0x74>
   122fc:	000e2783          	lw	a5,0(t3)
   12300:	02079863          	bnez	a5,12330 <quorem+0x114>
   12304:	ffce0793          	addi	a5,t3,-4
   12308:	02fa7263          	bleu	a5,s4,1232c <quorem+0x110>
   1230c:	ffce2703          	lw	a4,-4(t3)
   12310:	00070863          	beqz	a4,12320 <quorem+0x104>
   12314:	0180006f          	j	1232c <quorem+0x110>
   12318:	0007a703          	lw	a4,0(a5)
   1231c:	00071863          	bnez	a4,1232c <quorem+0x110>
   12320:	ffc78793          	addi	a5,a5,-4
   12324:	fff9091b          	addiw	s2,s2,-1
   12328:	fefa68e3          	bltu	s4,a5,12318 <quorem+0xfc>
   1232c:	01252a23          	sw	s2,20(a0)
   12330:	00050a93          	mv	s5,a0
   12334:	420030ef          	jal	15754 <__mcmp>
   12338:	0a054063          	bltz	a0,123d8 <quorem+0x1bc>
   1233c:	00010837          	lui	a6,0x10
   12340:	0014849b          	addiw	s1,s1,1
   12344:	000a0593          	mv	a1,s4
   12348:	00000793          	li	a5,0
   1234c:	fff8081b          	addiw	a6,a6,-1
   12350:	00440413          	addi	s0,s0,4
   12354:	ffc42603          	lw	a2,-4(s0)
   12358:	0005a703          	lw	a4,0(a1)
   1235c:	00458593          	addi	a1,a1,4
   12360:	010676b3          	and	a3,a2,a6
   12364:	40d787bb          	subw	a5,a5,a3
   12368:	010776b3          	and	a3,a4,a6
   1236c:	00d786bb          	addw	a3,a5,a3
   12370:	0107571b          	srliw	a4,a4,0x10
   12374:	0106579b          	srliw	a5,a2,0x10
   12378:	40f7073b          	subw	a4,a4,a5
   1237c:	4106d79b          	sraiw	a5,a3,0x10
   12380:	00f707bb          	addw	a5,a4,a5
   12384:	0107971b          	slliw	a4,a5,0x10
   12388:	0106f6b3          	and	a3,a3,a6
   1238c:	00d766b3          	or	a3,a4,a3
   12390:	4107d79b          	sraiw	a5,a5,0x10
   12394:	fed5ae23          	sw	a3,-4(a1)
   12398:	fa89fce3          	bleu	s0,s3,12350 <quorem+0x134>
   1239c:	00291713          	slli	a4,s2,0x2
   123a0:	00ea0733          	add	a4,s4,a4
   123a4:	00072783          	lw	a5,0(a4)
   123a8:	02079863          	bnez	a5,123d8 <quorem+0x1bc>
   123ac:	ffc70793          	addi	a5,a4,-4
   123b0:	02fa7263          	bleu	a5,s4,123d4 <quorem+0x1b8>
   123b4:	ffc72703          	lw	a4,-4(a4)
   123b8:	00070863          	beqz	a4,123c8 <quorem+0x1ac>
   123bc:	0180006f          	j	123d4 <quorem+0x1b8>
   123c0:	0007a703          	lw	a4,0(a5)
   123c4:	00071863          	bnez	a4,123d4 <quorem+0x1b8>
   123c8:	ffc78793          	addi	a5,a5,-4
   123cc:	fff9091b          	addiw	s2,s2,-1
   123d0:	fefa68e3          	bltu	s4,a5,123c0 <quorem+0x1a4>
   123d4:	012aaa23          	sw	s2,20(s5)
   123d8:	00048513          	mv	a0,s1
   123dc:	03813083          	ld	ra,56(sp)
   123e0:	03013403          	ld	s0,48(sp)
   123e4:	02813483          	ld	s1,40(sp)
   123e8:	02013903          	ld	s2,32(sp)
   123ec:	01813983          	ld	s3,24(sp)
   123f0:	01013a03          	ld	s4,16(sp)
   123f4:	00813a83          	ld	s5,8(sp)
   123f8:	04010113          	addi	sp,sp,64
   123fc:	00008067          	ret
   12400:	00000513          	li	a0,0
   12404:	fd9ff06f          	j	123dc <quorem+0x1c0>

0000000000012408 <_dtoa_r>:
   12408:	06053883          	ld	a7,96(a0)
   1240c:	f1010113          	addi	sp,sp,-240
   12410:	00b13c27          	fsd	fa1,24(sp)
   12414:	0e813023          	sd	s0,224(sp)
   12418:	0c913c23          	sd	s1,216(sp)
   1241c:	0d413023          	sd	s4,192(sp)
   12420:	0b613823          	sd	s6,176(sp)
   12424:	0b713423          	sd	s7,168(sp)
   12428:	0e113423          	sd	ra,232(sp)
   1242c:	0d213823          	sd	s2,208(sp)
   12430:	0d313423          	sd	s3,200(sp)
   12434:	0b513c23          	sd	s5,184(sp)
   12438:	0b813023          	sd	s8,160(sp)
   1243c:	09913c23          	sd	s9,152(sp)
   12440:	09a13823          	sd	s10,144(sp)
   12444:	09b13423          	sd	s11,136(sp)
   12448:	06813c27          	fsd	fs0,120(sp)
   1244c:	06913827          	fsd	fs1,112(sp)
   12450:	07213427          	fsd	fs2,104(sp)
   12454:	07313027          	fsd	fs3,96(sp)
   12458:	00050413          	mv	s0,a0
   1245c:	00060a13          	mv	s4,a2
   12460:	00068493          	mv	s1,a3
   12464:	02e13823          	sd	a4,48(sp)
   12468:	00080b93          	mv	s7,a6
   1246c:	01813b03          	ld	s6,24(sp)
   12470:	02088663          	beqz	a7,1249c <_dtoa_r+0x94>
   12474:	06852683          	lw	a3,104(a0)
   12478:	00100713          	li	a4,1
   1247c:	00088593          	mv	a1,a7
   12480:	00d7173b          	sllw	a4,a4,a3
   12484:	00d8a423          	sw	a3,8(a7)
   12488:	00e8a623          	sw	a4,12(a7)
   1248c:	00f13423          	sd	a5,8(sp)
   12490:	26d020ef          	jal	14efc <_Bfree>
   12494:	00813783          	ld	a5,8(sp)
   12498:	06043023          	sd	zero,96(s0)
   1249c:	420b5913          	srai	s2,s6,0x20
   124a0:	0c094c63          	bltz	s2,12578 <_dtoa_r+0x170>
   124a4:	0007a023          	sw	zero,0(a5)
   124a8:	7ff007b7          	lui	a5,0x7ff00
   124ac:	00f97733          	and	a4,s2,a5
   124b0:	08f70463          	beq	a4,a5,12538 <_dtoa_r+0x130>
   124b4:	f2000053          	fmv.d.x	ft0,zero
   124b8:	f20b00d3          	fmv.d.x	ft1,s6
   124bc:	01613c23          	sd	s6,24(sp)
   124c0:	a200a7d3          	feq.d	a5,ft1,ft0
   124c4:	0c078e63          	beqz	a5,125a0 <_dtoa_r+0x198>
   124c8:	03013703          	ld	a4,48(sp)
   124cc:	00100793          	li	a5,1
   124d0:	00f72023          	sw	a5,0(a4)
   124d4:	260b8c63          	beqz	s7,1274c <_dtoa_r+0x344>
   124d8:	0001b7b7          	lui	a5,0x1b
   124dc:	c4978793          	addi	a5,a5,-951 # 1ac49 <__clz_tab+0x161>
   124e0:	0001b937          	lui	s2,0x1b
   124e4:	00fbb023          	sd	a5,0(s7)
   124e8:	c4890513          	addi	a0,s2,-952 # 1ac48 <__clz_tab+0x160>
   124ec:	0e813083          	ld	ra,232(sp)
   124f0:	0e013403          	ld	s0,224(sp)
   124f4:	0d813483          	ld	s1,216(sp)
   124f8:	0d013903          	ld	s2,208(sp)
   124fc:	0c813983          	ld	s3,200(sp)
   12500:	0c013a03          	ld	s4,192(sp)
   12504:	0b813a83          	ld	s5,184(sp)
   12508:	0b013b03          	ld	s6,176(sp)
   1250c:	0a813b83          	ld	s7,168(sp)
   12510:	0a013c03          	ld	s8,160(sp)
   12514:	09813c83          	ld	s9,152(sp)
   12518:	09013d03          	ld	s10,144(sp)
   1251c:	08813d83          	ld	s11,136(sp)
   12520:	07813407          	fld	fs0,120(sp)
   12524:	07013487          	fld	fs1,112(sp)
   12528:	06813907          	fld	fs2,104(sp)
   1252c:	06013987          	fld	fs3,96(sp)
   12530:	0f010113          	addi	sp,sp,240
   12534:	00008067          	ret
   12538:	03013703          	ld	a4,48(sp)
   1253c:	000027b7          	lui	a5,0x2
   12540:	70f7879b          	addiw	a5,a5,1807
   12544:	00f72023          	sw	a5,0(a4)
   12548:	00cb1793          	slli	a5,s6,0xc
   1254c:	1c079063          	bnez	a5,1270c <_dtoa_r+0x304>
   12550:	0001b537          	lui	a0,0x1b
   12554:	c5050913          	addi	s2,a0,-944 # 1ac50 <__clz_tab+0x168>
   12558:	480b84e3          	beqz	s7,131e0 <_dtoa_r+0xdd8>
   1255c:	00394703          	lbu	a4,3(s2)
   12560:	00390793          	addi	a5,s2,3
   12564:	00070463          	beqz	a4,1256c <_dtoa_r+0x164>
   12568:	00890793          	addi	a5,s2,8
   1256c:	00fbb023          	sd	a5,0(s7)
   12570:	00090513          	mv	a0,s2
   12574:	f79ff06f          	j	124ec <_dtoa_r+0xe4>
   12578:	80000737          	lui	a4,0x80000
   1257c:	fff74713          	not	a4,a4
   12580:	00e97933          	and	s2,s2,a4
   12584:	020b1b13          	slli	s6,s6,0x20
   12588:	02091713          	slli	a4,s2,0x20
   1258c:	020b5b13          	srli	s6,s6,0x20
   12590:	00100693          	li	a3,1
   12594:	00d7a023          	sw	a3,0(a5) # 2000 <_ftext-0xe000>
   12598:	00eb6b33          	or	s6,s6,a4
   1259c:	f0dff06f          	j	124a8 <_dtoa_r+0xa0>
   125a0:	01813587          	fld	fa1,24(sp)
   125a4:	00040513          	mv	a0,s0
   125a8:	05c10613          	addi	a2,sp,92
   125ac:	05810693          	addi	a3,sp,88
   125b0:	5ac030ef          	jal	15b5c <__d2b>
   125b4:	0149571b          	srliw	a4,s2,0x14
   125b8:	00050993          	mv	s3,a0
   125bc:	14071e63          	bnez	a4,12718 <_dtoa_r+0x310>
   125c0:	05812803          	lw	a6,88(sp)
   125c4:	05c12703          	lw	a4,92(sp)
   125c8:	bef00793          	li	a5,-1041
   125cc:	00e806bb          	addw	a3,a6,a4
   125d0:	0cf6cce3          	blt	a3,a5,12ea8 <_dtoa_r+0xaa0>
   125d4:	c0e00613          	li	a2,-1010
   125d8:	40d6063b          	subw	a2,a2,a3
   125dc:	000b071b          	sext.w	a4,s6
   125e0:	4126879b          	addiw	a5,a3,1042
   125e4:	00c9193b          	sllw	s2,s2,a2
   125e8:	00f757bb          	srlw	a5,a4,a5
   125ec:	00f967b3          	or	a5,s2,a5
   125f0:	d2178053          	fcvt.d.wu	ft0,a5
   125f4:	e20007d3          	fmv.x.d	a5,ft0
   125f8:	fe100637          	lui	a2,0xfe100
   125fc:	4207d713          	srai	a4,a5,0x20
   12600:	00c7073b          	addw	a4,a4,a2
   12604:	02079793          	slli	a5,a5,0x20
   12608:	02071713          	slli	a4,a4,0x20
   1260c:	0207d793          	srli	a5,a5,0x20
   12610:	00e7e7b3          	or	a5,a5,a4
   12614:	00100a93          	li	s5,1
   12618:	fff6871b          	addiw	a4,a3,-1
   1261c:	8401b007          	fld	ft0,-1984(gp) # 1d0a0 <__wctomb+0x10>
   12620:	f2078153          	fmv.d.x	ft2,a5
   12624:	0a0170d3          	fsub.d	ft1,ft2,ft0
   12628:	8501b007          	fld	ft0,-1968(gp) # 1d0b0 <__wctomb+0x20>
   1262c:	8481b107          	fld	ft2,-1976(gp) # 1d0a8 <__wctomb+0x18>
   12630:	0220f043          	fmadd.d	ft0,ft1,ft2,ft0
   12634:	8581b107          	fld	ft2,-1960(gp) # 1d0b8 <__wctomb+0x28>
   12638:	d20700d3          	fcvt.d.w	ft1,a4
   1263c:	0220f043          	fmadd.d	ft0,ft1,ft2,ft0
   12640:	f20000d3          	fmv.d.x	ft1,zero
   12644:	a21017d3          	flt.d	a5,ft0,ft1
   12648:	c2001953          	fcvt.w.d	s2,ft0,rtz
   1264c:	62079663          	bnez	a5,12c78 <_dtoa_r+0x870>
   12650:	00100693          	li	a3,1
   12654:	01600793          	li	a5,22
   12658:	04d12423          	sw	a3,72(sp)
   1265c:	0327e663          	bltu	a5,s2,12688 <_dtoa_r+0x280>
   12660:	0001b7b7          	lui	a5,0x1b
   12664:	00391693          	slli	a3,s2,0x3
   12668:	82078793          	addi	a5,a5,-2016 # 1a820 <__mprec_tens>
   1266c:	00f687b3          	add	a5,a3,a5
   12670:	0007b007          	fld	ft0,0(a5)
   12674:	f20b00d3          	fmv.d.x	ft1,s6
   12678:	a20097d3          	flt.d	a5,ft1,ft0
   1267c:	040780e3          	beqz	a5,12ebc <_dtoa_r+0xab4>
   12680:	fff9091b          	addiw	s2,s2,-1
   12684:	04012423          	sw	zero,72(sp)
   12688:	40e8083b          	subw	a6,a6,a4
   1268c:	fff80d1b          	addiw	s10,a6,-1
   12690:	02012c23          	sw	zero,56(sp)
   12694:	0c0d4263          	bltz	s10,12758 <_dtoa_r+0x350>
   12698:	5e094a63          	bltz	s2,12c8c <_dtoa_r+0x884>
   1269c:	012d0d3b          	addw	s10,s10,s2
   126a0:	03212e23          	sw	s2,60(sp)
   126a4:	00000c13          	li	s8,0
   126a8:	00900793          	li	a5,9
   126ac:	5947ec63          	bltu	a5,s4,12c44 <_dtoa_r+0x83c>
   126b0:	00500793          	li	a5,5
   126b4:	00100893          	li	a7,1
   126b8:	0147d663          	ble	s4,a5,126c4 <_dtoa_r+0x2bc>
   126bc:	ffca0a1b          	addiw	s4,s4,-4
   126c0:	00000893          	li	a7,0
   126c4:	00300793          	li	a5,3
   126c8:	3afa02e3          	beq	s4,a5,1326c <_dtoa_r+0xe64>
   126cc:	2f47d463          	ble	s4,a5,129b4 <_dtoa_r+0x5ac>
   126d0:	00100713          	li	a4,1
   126d4:	00400793          	li	a5,4
   126d8:	02e12023          	sw	a4,32(sp)
   126dc:	08fa0663          	beq	s4,a5,12768 <_dtoa_r+0x360>
   126e0:	00500793          	li	a5,5
   126e4:	2cfa1e63          	bne	s4,a5,129c0 <_dtoa_r+0x5b8>
   126e8:	012487bb          	addw	a5,s1,s2
   126ec:	00178c9b          	addiw	s9,a5,1
   126f0:	04f12623          	sw	a5,76(sp)
   126f4:	000c8613          	mv	a2,s9
   126f8:	000c8d93          	mv	s11,s9
   126fc:	09904063          	bgtz	s9,1277c <_dtoa_r+0x374>
   12700:	06042423          	sw	zero,104(s0)
   12704:	00000593          	li	a1,0
   12708:	0a80006f          	j	127b0 <_dtoa_r+0x3a8>
   1270c:	0001b537          	lui	a0,0x1b
   12710:	c6050913          	addi	s2,a0,-928 # 1ac60 <__clz_tab+0x178>
   12714:	e45ff06f          	j	12558 <_dtoa_r+0x150>
   12718:	01813783          	ld	a5,24(sp)
   1271c:	c017071b          	addiw	a4,a4,-1023
   12720:	05812803          	lw	a6,88(sp)
   12724:	00c79693          	slli	a3,a5,0xc
   12728:	02c6d613          	srli	a2,a3,0x2c
   1272c:	3ff006b7          	lui	a3,0x3ff00
   12730:	00d666b3          	or	a3,a2,a3
   12734:	02079793          	slli	a5,a5,0x20
   12738:	02069693          	slli	a3,a3,0x20
   1273c:	0207d793          	srli	a5,a5,0x20
   12740:	00d7e7b3          	or	a5,a5,a3
   12744:	00000a93          	li	s5,0
   12748:	ed5ff06f          	j	1261c <_dtoa_r+0x214>
   1274c:	0001b937          	lui	s2,0x1b
   12750:	c4890513          	addi	a0,s2,-952 # 1ac48 <__clz_tab+0x160>
   12754:	d99ff06f          	j	124ec <_dtoa_r+0xe4>
   12758:	41a00d3b          	negw	s10,s10
   1275c:	03a12c23          	sw	s10,56(sp)
   12760:	00000d13          	li	s10,0
   12764:	f35ff06f          	j	12698 <_dtoa_r+0x290>
   12768:	329054e3          	blez	s1,13290 <_dtoa_r+0xe88>
   1276c:	00048613          	mv	a2,s1
   12770:	00048d93          	mv	s11,s1
   12774:	04912623          	sw	s1,76(sp)
   12778:	00048c93          	mv	s9,s1
   1277c:	01f00793          	li	a5,31
   12780:	06042423          	sw	zero,104(s0)
   12784:	00000593          	li	a1,0
   12788:	02c7f463          	bleu	a2,a5,127b0 <_dtoa_r+0x3a8>
   1278c:	00100693          	li	a3,1
   12790:	00400713          	li	a4,4
   12794:	0017171b          	slliw	a4,a4,0x1
   12798:	00070793          	mv	a5,a4
   1279c:	01c78793          	addi	a5,a5,28
   127a0:	00068593          	mv	a1,a3
   127a4:	0016869b          	addiw	a3,a3,1
   127a8:	fef676e3          	bleu	a5,a2,12794 <_dtoa_r+0x38c>
   127ac:	06b42423          	sw	a1,104(s0)
   127b0:	00040513          	mv	a0,s0
   127b4:	01113823          	sd	a7,16(sp)
   127b8:	698020ef          	jal	14e50 <_Balloc>
   127bc:	00e00793          	li	a5,14
   127c0:	00a13c23          	sd	a0,24(sp)
   127c4:	06a43023          	sd	a0,96(s0)
   127c8:	01013883          	ld	a7,16(sp)
   127cc:	23b7e063          	bltu	a5,s11,129ec <_dtoa_r+0x5e4>
   127d0:	20088e63          	beqz	a7,129ec <_dtoa_r+0x5e4>
   127d4:	05613023          	sd	s6,64(sp)
   127d8:	0b2054e3          	blez	s2,13080 <_dtoa_r+0xc78>
   127dc:	00f97793          	andi	a5,s2,15
   127e0:	00379713          	slli	a4,a5,0x3
   127e4:	0001b7b7          	lui	a5,0x1b
   127e8:	82078793          	addi	a5,a5,-2016 # 1a820 <__mprec_tens>
   127ec:	40495b1b          	sraiw	s6,s2,0x4
   127f0:	00f707b3          	add	a5,a4,a5
   127f4:	03bb1693          	slli	a3,s6,0x3b
   127f8:	0007b407          	fld	fs0,0(a5)
   127fc:	04013507          	fld	fa0,64(sp)
   12800:	00200d93          	li	s11,2
   12804:	0006dc63          	bgez	a3,1281c <_dtoa_r+0x414>
   12808:	0001b7b7          	lui	a5,0x1b
   1280c:	9307b587          	fld	fa1,-1744(a5) # 1a930 <__mprec_bigtens+0x20>
   12810:	00fb7b13          	andi	s6,s6,15
   12814:	00300d93          	li	s11,3
   12818:	129060ef          	jal	19140 <__divdf3>
   1281c:	020b0663          	beqz	s6,12848 <_dtoa_r+0x440>
   12820:	0001b7b7          	lui	a5,0x1b
   12824:	91078793          	addi	a5,a5,-1776 # 1a910 <__mprec_bigtens>
   12828:	03fb1713          	slli	a4,s6,0x3f
   1282c:	00075863          	bgez	a4,1283c <_dtoa_r+0x434>
   12830:	0007b007          	fld	ft0,0(a5)
   12834:	001d8d9b          	addiw	s11,s11,1
   12838:	12047453          	fmul.d	fs0,fs0,ft0
   1283c:	401b5b1b          	sraiw	s6,s6,0x1
   12840:	00878793          	addi	a5,a5,8
   12844:	fe0b12e3          	bnez	s6,12828 <_dtoa_r+0x420>
   12848:	228405d3          	fmv.d	fa1,fs0
   1284c:	0f5060ef          	jal	19140 <__divdf3>
   12850:	22a50453          	fmv.d	fs0,fa0
   12854:	04812703          	lw	a4,72(sp)
   12858:	00070863          	beqz	a4,12868 <_dtoa_r+0x460>
   1285c:	8601b007          	fld	ft0,-1952(gp) # 1d0c0 <__wctomb+0x30>
   12860:	a20417d3          	flt.d	a5,fs0,ft0
   12864:	3a079ee3          	bnez	a5,13420 <_dtoa_r+0x1018>
   12868:	8701b007          	fld	ft0,-1936(gp) # 1d0d0 <__wctomb+0x40>
   1286c:	d20d80d3          	fcvt.d.w	ft1,s11
   12870:	fcc00737          	lui	a4,0xfcc00
   12874:	0280f043          	fmadd.d	ft0,ft1,fs0,ft0
   12878:	e2000dd3          	fmv.x.d	s11,ft0
   1287c:	420dd793          	srai	a5,s11,0x20
   12880:	00e787bb          	addw	a5,a5,a4
   12884:	020d9d93          	slli	s11,s11,0x20
   12888:	02079793          	slli	a5,a5,0x20
   1288c:	020ddd93          	srli	s11,s11,0x20
   12890:	00fdedb3          	or	s11,s11,a5
   12894:	180c8ae3          	beqz	s9,13228 <_dtoa_r+0xe20>
   12898:	00090693          	mv	a3,s2
   1289c:	000c8613          	mv	a2,s9
   128a0:	02012703          	lw	a4,32(sp)
   128a4:	fff6079b          	addiw	a5,a2,-1
   128a8:	280704e3          	beqz	a4,13330 <_dtoa_r+0xf28>
   128ac:	00379713          	slli	a4,a5,0x3
   128b0:	0001b7b7          	lui	a5,0x1b
   128b4:	82078793          	addi	a5,a5,-2016 # 1a820 <__mprec_tens>
   128b8:	00f707b3          	add	a5,a4,a5
   128bc:	8801b507          	fld	fa0,-1920(gp) # 1d0e0 <__wctomb+0x50>
   128c0:	0007b587          	fld	fa1,0(a5)
   128c4:	01813783          	ld	a5,24(sp)
   128c8:	00c13423          	sd	a2,8(sp)
   128cc:	00d13823          	sd	a3,16(sp)
   128d0:	00178b13          	addi	s6,a5,1
   128d4:	06d060ef          	jal	19140 <__divdf3>
   128d8:	c20417d3          	fcvt.w.d	a5,fs0,rtz
   128dc:	f20d80d3          	fmv.d.x	ft1,s11
   128e0:	d2078053          	fcvt.d.w	ft0,a5
   128e4:	0a157553          	fsub.d	fa0,fa0,ft1
   128e8:	0a047053          	fsub.d	ft0,fs0,ft0
   128ec:	01813703          	ld	a4,24(sp)
   128f0:	0307879b          	addiw	a5,a5,48
   128f4:	0ff7f793          	andi	a5,a5,255
   128f8:	00f70023          	sb	a5,0(a4) # fffffffffcc00000 <_gp+0xfffffffffcbe27a0>
   128fc:	a2a01753          	flt.d	a4,ft0,fa0
   12900:	00813603          	ld	a2,8(sp)
   12904:	01013683          	ld	a3,16(sp)
   12908:	06071c63          	bnez	a4,12980 <_dtoa_r+0x578>
   1290c:	8601b187          	fld	ft3,-1952(gp) # 1d0c0 <__wctomb+0x30>
   12910:	0a01f0d3          	fsub.d	ft1,ft3,ft0
   12914:	a2a09753          	flt.d	a4,ft1,fa0
   12918:	3a0712e3          	bnez	a4,134bc <_dtoa_r+0x10b4>
   1291c:	00100793          	li	a5,1
   12920:	1ac7d6e3          	ble	a2,a5,132cc <_dtoa_r+0xec4>
   12924:	ffe6061b          	addiw	a2,a2,-2
   12928:	02061613          	slli	a2,a2,0x20
   1292c:	01813703          	ld	a4,24(sp)
   12930:	02065613          	srli	a2,a2,0x20
   12934:	00260613          	addi	a2,a2,2 # fffffffffe100002 <_gp+0xfffffffffe0e27a2>
   12938:	00c70633          	add	a2,a4,a2
   1293c:	8681b107          	fld	ft2,-1944(gp) # 1d0c8 <__wctomb+0x38>
   12940:	0140006f          	j	12954 <_dtoa_r+0x54c>
   12944:	0a01f0d3          	fsub.d	ft1,ft3,ft0
   12948:	a2a09753          	flt.d	a4,ft1,fa0
   1294c:	360718e3          	bnez	a4,134bc <_dtoa_r+0x10b4>
   12950:	16cb0ee3          	beq	s6,a2,132cc <_dtoa_r+0xec4>
   12954:	12207053          	fmul.d	ft0,ft0,ft2
   12958:	12257553          	fmul.d	fa0,fa0,ft2
   1295c:	001b0b13          	addi	s6,s6,1
   12960:	c20017d3          	fcvt.w.d	a5,ft0,rtz
   12964:	d20780d3          	fcvt.d.w	ft1,a5
   12968:	0a107053          	fsub.d	ft0,ft0,ft1
   1296c:	0307879b          	addiw	a5,a5,48
   12970:	0ff7f793          	andi	a5,a5,255
   12974:	fefb0fa3          	sb	a5,-1(s6)
   12978:	a2a01753          	flt.d	a4,ft0,fa0
   1297c:	fc0704e3          	beqz	a4,12944 <_dtoa_r+0x53c>
   12980:	000b0493          	mv	s1,s6
   12984:	00068913          	mv	s2,a3
   12988:	00040513          	mv	a0,s0
   1298c:	00098593          	mv	a1,s3
   12990:	56c020ef          	jal	14efc <_Bfree>
   12994:	03013703          	ld	a4,48(sp)
   12998:	0019079b          	addiw	a5,s2,1
   1299c:	00048023          	sb	zero,0(s1)
   129a0:	00f72023          	sw	a5,0(a4)
   129a4:	7c0b8e63          	beqz	s7,13180 <_dtoa_r+0xd78>
   129a8:	009bb023          	sd	s1,0(s7)
   129ac:	01813503          	ld	a0,24(sp)
   129b0:	b3dff06f          	j	124ec <_dtoa_r+0xe4>
   129b4:	00200793          	li	a5,2
   129b8:	02012023          	sw	zero,32(sp)
   129bc:	dafa06e3          	beq	s4,a5,12768 <_dtoa_r+0x360>
   129c0:	06042423          	sw	zero,104(s0)
   129c4:	00040513          	mv	a0,s0
   129c8:	00000593          	li	a1,0
   129cc:	484020ef          	jal	14e50 <_Balloc>
   129d0:	fff00c93          	li	s9,-1
   129d4:	00100793          	li	a5,1
   129d8:	00a13c23          	sd	a0,24(sp)
   129dc:	06a43023          	sd	a0,96(s0)
   129e0:	02f12023          	sw	a5,32(sp)
   129e4:	05912623          	sw	s9,76(sp)
   129e8:	00000493          	li	s1,0
   129ec:	05c12783          	lw	a5,92(sp)
   129f0:	1207c063          	bltz	a5,12b10 <_dtoa_r+0x708>
   129f4:	00e00713          	li	a4,14
   129f8:	11274c63          	blt	a4,s2,12b10 <_dtoa_r+0x708>
   129fc:	0001b7b7          	lui	a5,0x1b
   12a00:	00391713          	slli	a4,s2,0x3
   12a04:	82078793          	addi	a5,a5,-2016 # 1a820 <__mprec_tens>
   12a08:	00f707b3          	add	a5,a4,a5
   12a0c:	0007b487          	fld	fs1,0(a5)
   12a10:	5c04c863          	bltz	s1,12fe0 <_dtoa_r+0xbd8>
   12a14:	01813703          	ld	a4,24(sp)
   12a18:	229485d3          	fmv.d	fa1,fs1
   12a1c:	f20b0553          	fmv.d.x	fa0,s6
   12a20:	00170493          	addi	s1,a4,1
   12a24:	71c060ef          	jal	19140 <__divdf3>
   12a28:	c20517d3          	fcvt.w.d	a5,fa0,rtz
   12a2c:	01813683          	ld	a3,24(sp)
   12a30:	d2078053          	fcvt.d.w	ft0,a5
   12a34:	0307871b          	addiw	a4,a5,48
   12a38:	f20b0453          	fmv.d.x	fs0,s6
   12a3c:	22001053          	fneg.d	ft0,ft0
   12a40:	00e68023          	sb	a4,0(a3) # 3ff00000 <_gp+0x3fee27a0>
   12a44:	00100713          	li	a4,1
   12a48:	42907443          	fmadd.d	fs0,ft0,fs1,fs0
   12a4c:	28ec84e3          	beq	s9,a4,134d4 <_dtoa_r+0x10cc>
   12a50:	8681b987          	fld	fs3,-1944(gp) # 1d0c8 <__wctomb+0x38>
   12a54:	f2000953          	fmv.d.x	fs2,zero
   12a58:	13347453          	fmul.d	fs0,fs0,fs3
   12a5c:	a32427d3          	feq.d	a5,fs0,fs2
   12a60:	f20794e3          	bnez	a5,12988 <_dtoa_r+0x580>
   12a64:	ffec8b1b          	addiw	s6,s9,-2
   12a68:	020b1b13          	slli	s6,s6,0x20
   12a6c:	01813703          	ld	a4,24(sp)
   12a70:	020b5b13          	srli	s6,s6,0x20
   12a74:	002b0b13          	addi	s6,s6,2
   12a78:	01670b33          	add	s6,a4,s6
   12a7c:	0100006f          	j	12a8c <_dtoa_r+0x684>
   12a80:	13347453          	fmul.d	fs0,fs0,fs3
   12a84:	a32427d3          	feq.d	a5,fs0,fs2
   12a88:	f00790e3          	bnez	a5,12988 <_dtoa_r+0x580>
   12a8c:	22840553          	fmv.d	fa0,fs0
   12a90:	229485d3          	fmv.d	fa1,fs1
   12a94:	00148493          	addi	s1,s1,1
   12a98:	6a8060ef          	jal	19140 <__divdf3>
   12a9c:	c20517d3          	fcvt.w.d	a5,fa0,rtz
   12aa0:	d2078053          	fcvt.d.w	ft0,a5
   12aa4:	22001053          	fneg.d	ft0,ft0
   12aa8:	0307871b          	addiw	a4,a5,48
   12aac:	42907443          	fmadd.d	fs0,ft0,fs1,fs0
   12ab0:	fee48fa3          	sb	a4,-1(s1)
   12ab4:	fd6496e3          	bne	s1,s6,12a80 <_dtoa_r+0x678>
   12ab8:	02847453          	fadd.d	fs0,fs0,fs0
   12abc:	a2849753          	flt.d	a4,fs1,fs0
   12ac0:	00071c63          	bnez	a4,12ad8 <_dtoa_r+0x6d0>
   12ac4:	a284a753          	feq.d	a4,fs1,fs0
   12ac8:	000b0493          	mv	s1,s6
   12acc:	ea070ee3          	beqz	a4,12988 <_dtoa_r+0x580>
   12ad0:	03f79693          	slli	a3,a5,0x3f
   12ad4:	ea06dae3          	bgez	a3,12988 <_dtoa_r+0x580>
   12ad8:	fffb4783          	lbu	a5,-1(s6)
   12adc:	03900693          	li	a3,57
   12ae0:	0140006f          	j	12af4 <_dtoa_r+0x6ec>
   12ae4:	01813783          	ld	a5,24(sp)
   12ae8:	7ee78663          	beq	a5,a4,132d4 <_dtoa_r+0xecc>
   12aec:	fff74783          	lbu	a5,-1(a4)
   12af0:	00070b13          	mv	s6,a4
   12af4:	fffb0713          	addi	a4,s6,-1
   12af8:	fed786e3          	beq	a5,a3,12ae4 <_dtoa_r+0x6dc>
   12afc:	0017879b          	addiw	a5,a5,1
   12b00:	000b0493          	mv	s1,s6
   12b04:	0ff7f793          	andi	a5,a5,255
   12b08:	00f70023          	sb	a5,0(a4)
   12b0c:	e7dff06f          	j	12988 <_dtoa_r+0x580>
   12b10:	02012703          	lw	a4,32(sp)
   12b14:	18070863          	beqz	a4,12ca4 <_dtoa_r+0x89c>
   12b18:	00100713          	li	a4,1
   12b1c:	55475863          	ble	s4,a4,1306c <_dtoa_r+0xc64>
   12b20:	fffc871b          	addiw	a4,s9,-1
   12b24:	74ec4863          	blt	s8,a4,13274 <_dtoa_r+0xe6c>
   12b28:	40ec073b          	subw	a4,s8,a4
   12b2c:	03812d83          	lw	s11,56(sp)
   12b30:	000c8793          	mv	a5,s9
   12b34:	0c0cc4e3          	bltz	s9,133fc <_dtoa_r+0xff4>
   12b38:	03812683          	lw	a3,56(sp)
   12b3c:	00040513          	mv	a0,s0
   12b40:	00100593          	li	a1,1
   12b44:	00f686bb          	addw	a3,a3,a5
   12b48:	00e13823          	sd	a4,16(sp)
   12b4c:	02d12c23          	sw	a3,56(sp)
   12b50:	00fd0d3b          	addw	s10,s10,a5
   12b54:	738020ef          	jal	1528c <__i2b>
   12b58:	01013703          	ld	a4,16(sp)
   12b5c:	00050a93          	mv	s5,a0
   12b60:	020d8263          	beqz	s11,12b84 <_dtoa_r+0x77c>
   12b64:	03a05063          	blez	s10,12b84 <_dtoa_r+0x77c>
   12b68:	000d0793          	mv	a5,s10
   12b6c:	47adc663          	blt	s11,s10,12fd8 <_dtoa_r+0xbd0>
   12b70:	03812683          	lw	a3,56(sp)
   12b74:	40fd8dbb          	subw	s11,s11,a5
   12b78:	40fd0d3b          	subw	s10,s10,a5
   12b7c:	40f686bb          	subw	a3,a3,a5
   12b80:	02d12c23          	sw	a3,56(sp)
   12b84:	07805063          	blez	s8,12be4 <_dtoa_r+0x7dc>
   12b88:	02012783          	lw	a5,32(sp)
   12b8c:	6c078463          	beqz	a5,13254 <_dtoa_r+0xe4c>
   12b90:	04e05663          	blez	a4,12bdc <_dtoa_r+0x7d4>
   12b94:	00070613          	mv	a2,a4
   12b98:	000a8593          	mv	a1,s5
   12b9c:	00040513          	mv	a0,s0
   12ba0:	00e13823          	sd	a4,16(sp)
   12ba4:	115020ef          	jal	154b8 <__pow5mult>
   12ba8:	00050a93          	mv	s5,a0
   12bac:	00098613          	mv	a2,s3
   12bb0:	000a8593          	mv	a1,s5
   12bb4:	00040513          	mv	a0,s0
   12bb8:	708020ef          	jal	152c0 <__multiply>
   12bbc:	00050793          	mv	a5,a0
   12bc0:	00098593          	mv	a1,s3
   12bc4:	00040513          	mv	a0,s0
   12bc8:	00f13423          	sd	a5,8(sp)
   12bcc:	330020ef          	jal	14efc <_Bfree>
   12bd0:	00813783          	ld	a5,8(sp)
   12bd4:	01013703          	ld	a4,16(sp)
   12bd8:	00078993          	mv	s3,a5
   12bdc:	40ec063b          	subw	a2,s8,a4
   12be0:	44061063          	bnez	a2,13020 <_dtoa_r+0xc18>
   12be4:	00040513          	mv	a0,s0
   12be8:	00100593          	li	a1,1
   12bec:	6a0020ef          	jal	1528c <__i2b>
   12bf0:	03c12683          	lw	a3,60(sp)
   12bf4:	00050c13          	mv	s8,a0
   12bf8:	0ad05e63          	blez	a3,12cb4 <_dtoa_r+0x8ac>
   12bfc:	000c0593          	mv	a1,s8
   12c00:	00040513          	mv	a0,s0
   12c04:	00068613          	mv	a2,a3
   12c08:	0b1020ef          	jal	154b8 <__pow5mult>
   12c0c:	00100793          	li	a5,1
   12c10:	00050c13          	mv	s8,a0
   12c14:	4347d063          	ble	s4,a5,13034 <_dtoa_r+0xc2c>
   12c18:	04012023          	sw	zero,64(sp)
   12c1c:	014c2783          	lw	a5,20(s8)
   12c20:	fff7879b          	addiw	a5,a5,-1
   12c24:	00478793          	addi	a5,a5,4
   12c28:	00279793          	slli	a5,a5,0x2
   12c2c:	00fc07b3          	add	a5,s8,a5
   12c30:	0087a503          	lw	a0,8(a5)
   12c34:	530020ef          	jal	15164 <__hi0bits>
   12c38:	02000793          	li	a5,32
   12c3c:	40a7853b          	subw	a0,a5,a0
   12c40:	08c0006f          	j	12ccc <_dtoa_r+0x8c4>
   12c44:	06042423          	sw	zero,104(s0)
   12c48:	00040513          	mv	a0,s0
   12c4c:	00000593          	li	a1,0
   12c50:	200020ef          	jal	14e50 <_Balloc>
   12c54:	fff00c93          	li	s9,-1
   12c58:	00100713          	li	a4,1
   12c5c:	00a13c23          	sd	a0,24(sp)
   12c60:	06a43023          	sd	a0,96(s0)
   12c64:	02e12023          	sw	a4,32(sp)
   12c68:	00000a13          	li	s4,0
   12c6c:	05912623          	sw	s9,76(sp)
   12c70:	00000493          	li	s1,0
   12c74:	d79ff06f          	j	129ec <_dtoa_r+0x5e4>
   12c78:	d20900d3          	fcvt.d.w	ft1,s2
   12c7c:	a200a7d3          	feq.d	a5,ft1,ft0
   12c80:	0017b793          	seqz	a5,a5
   12c84:	40f9093b          	subw	s2,s2,a5
   12c88:	9c9ff06f          	j	12650 <_dtoa_r+0x248>
   12c8c:	03812683          	lw	a3,56(sp)
   12c90:	41200c3b          	negw	s8,s2
   12c94:	02012e23          	sw	zero,60(sp)
   12c98:	412686bb          	subw	a3,a3,s2
   12c9c:	02d12c23          	sw	a3,56(sp)
   12ca0:	a09ff06f          	j	126a8 <_dtoa_r+0x2a0>
   12ca4:	000c0713          	mv	a4,s8
   12ca8:	03812d83          	lw	s11,56(sp)
   12cac:	00000a93          	li	s5,0
   12cb0:	eb1ff06f          	j	12b60 <_dtoa_r+0x758>
   12cb4:	00100793          	li	a5,1
   12cb8:	04012023          	sw	zero,64(sp)
   12cbc:	4d47d663          	ble	s4,a5,13188 <_dtoa_r+0xd80>
   12cc0:	03c12783          	lw	a5,60(sp)
   12cc4:	00100513          	li	a0,1
   12cc8:	f4079ae3          	bnez	a5,12c1c <_dtoa_r+0x814>
   12ccc:	01a5053b          	addw	a0,a0,s10
   12cd0:	01f57513          	andi	a0,a0,31
   12cd4:	1a050c63          	beqz	a0,12e8c <_dtoa_r+0xa84>
   12cd8:	02000793          	li	a5,32
   12cdc:	40a787bb          	subw	a5,a5,a0
   12ce0:	00400713          	li	a4,4
   12ce4:	04f752e3          	ble	a5,a4,13528 <_dtoa_r+0x1120>
   12ce8:	03812683          	lw	a3,56(sp)
   12cec:	01c00793          	li	a5,28
   12cf0:	40a7853b          	subw	a0,a5,a0
   12cf4:	00a686bb          	addw	a3,a3,a0
   12cf8:	02d12c23          	sw	a3,56(sp)
   12cfc:	00ad8dbb          	addw	s11,s11,a0
   12d00:	00ad0d3b          	addw	s10,s10,a0
   12d04:	03812783          	lw	a5,56(sp)
   12d08:	00f05c63          	blez	a5,12d20 <_dtoa_r+0x918>
   12d0c:	00098593          	mv	a1,s3
   12d10:	00040513          	mv	a0,s0
   12d14:	00078613          	mv	a2,a5
   12d18:	0d9020ef          	jal	155f0 <__lshift>
   12d1c:	00050993          	mv	s3,a0
   12d20:	01a05c63          	blez	s10,12d38 <_dtoa_r+0x930>
   12d24:	000c0593          	mv	a1,s8
   12d28:	00040513          	mv	a0,s0
   12d2c:	000d0613          	mv	a2,s10
   12d30:	0c1020ef          	jal	155f0 <__lshift>
   12d34:	00050c13          	mv	s8,a0
   12d38:	04812683          	lw	a3,72(sp)
   12d3c:	18069463          	bnez	a3,12ec4 <_dtoa_r+0xabc>
   12d40:	45905a63          	blez	s9,13194 <_dtoa_r+0xd8c>
   12d44:	02012783          	lw	a5,32(sp)
   12d48:	1c078463          	beqz	a5,12f10 <_dtoa_r+0xb08>
   12d4c:	01b05c63          	blez	s11,12d64 <_dtoa_r+0x95c>
   12d50:	000a8593          	mv	a1,s5
   12d54:	00040513          	mv	a0,s0
   12d58:	000d8613          	mv	a2,s11
   12d5c:	095020ef          	jal	155f0 <__lshift>
   12d60:	00050a93          	mv	s5,a0
   12d64:	04012703          	lw	a4,64(sp)
   12d68:	000a8d93          	mv	s11,s5
   12d6c:	58071263          	bnez	a4,132f0 <_dtoa_r+0xee8>
   12d70:	fffc849b          	addiw	s1,s9,-1
   12d74:	01813783          	ld	a5,24(sp)
   12d78:	02049493          	slli	s1,s1,0x20
   12d7c:	0204d493          	srli	s1,s1,0x20
   12d80:	00148493          	addi	s1,s1,1
   12d84:	001b7b13          	andi	s6,s6,1
   12d88:	009784b3          	add	s1,a5,s1
   12d8c:	00078c93          	mv	s9,a5
   12d90:	03612023          	sw	s6,32(sp)
   12d94:	000c0593          	mv	a1,s8
   12d98:	00098513          	mv	a0,s3
   12d9c:	c80ff0ef          	jal	1221c <quorem>
   12da0:	02a12c23          	sw	a0,56(sp)
   12da4:	000a8593          	mv	a1,s5
   12da8:	00098513          	mv	a0,s3
   12dac:	1a9020ef          	jal	15754 <__mcmp>
   12db0:	00050b13          	mv	s6,a0
   12db4:	000c0593          	mv	a1,s8
   12db8:	00040513          	mv	a0,s0
   12dbc:	000d8613          	mv	a2,s11
   12dc0:	1f5020ef          	jal	157b4 <__mdiff>
   12dc4:	01052683          	lw	a3,16(a0)
   12dc8:	03812703          	lw	a4,56(sp)
   12dcc:	00050793          	mv	a5,a0
   12dd0:	03070d1b          	addiw	s10,a4,48
   12dd4:	00100713          	li	a4,1
   12dd8:	00069e63          	bnez	a3,12df4 <_dtoa_r+0x9ec>
   12ddc:	00078593          	mv	a1,a5
   12de0:	00098513          	mv	a0,s3
   12de4:	00f13423          	sd	a5,8(sp)
   12de8:	16d020ef          	jal	15754 <__mcmp>
   12dec:	00813783          	ld	a5,8(sp)
   12df0:	00050713          	mv	a4,a0
   12df4:	00078593          	mv	a1,a5
   12df8:	00040513          	mv	a0,s0
   12dfc:	00e13823          	sd	a4,16(sp)
   12e00:	0fc020ef          	jal	14efc <_Bfree>
   12e04:	01013703          	ld	a4,16(sp)
   12e08:	014767b3          	or	a5,a4,s4
   12e0c:	00079663          	bnez	a5,12e18 <_dtoa_r+0xa10>
   12e10:	02012783          	lw	a5,32(sp)
   12e14:	2c078663          	beqz	a5,130e0 <_dtoa_r+0xcd8>
   12e18:	2e0b4863          	bltz	s6,13108 <_dtoa_r+0xd00>
   12e1c:	014b6b33          	or	s6,s6,s4
   12e20:	000b1663          	bnez	s6,12e2c <_dtoa_r+0xa24>
   12e24:	02012783          	lw	a5,32(sp)
   12e28:	2e078063          	beqz	a5,13108 <_dtoa_r+0xd00>
   12e2c:	5ae04a63          	bgtz	a4,133e0 <_dtoa_r+0xfd8>
   12e30:	001c8c93          	addi	s9,s9,1
   12e34:	ffac8fa3          	sb	s10,-1(s9)
   12e38:	5a9c8c63          	beq	s9,s1,133f0 <_dtoa_r+0xfe8>
   12e3c:	00098593          	mv	a1,s3
   12e40:	00040513          	mv	a0,s0
   12e44:	00a00613          	li	a2,10
   12e48:	00000693          	li	a3,0
   12e4c:	0d4020ef          	jal	14f20 <__multadd>
   12e50:	00050993          	mv	s3,a0
   12e54:	31ba8663          	beq	s5,s11,13160 <_dtoa_r+0xd58>
   12e58:	000a8593          	mv	a1,s5
   12e5c:	00a00613          	li	a2,10
   12e60:	00000693          	li	a3,0
   12e64:	00040513          	mv	a0,s0
   12e68:	0b8020ef          	jal	14f20 <__multadd>
   12e6c:	00050a93          	mv	s5,a0
   12e70:	000d8593          	mv	a1,s11
   12e74:	00040513          	mv	a0,s0
   12e78:	00a00613          	li	a2,10
   12e7c:	00000693          	li	a3,0
   12e80:	0a0020ef          	jal	14f20 <__multadd>
   12e84:	00050d93          	mv	s11,a0
   12e88:	f0dff06f          	j	12d94 <_dtoa_r+0x98c>
   12e8c:	01c00513          	li	a0,28
   12e90:	03812703          	lw	a4,56(sp)
   12e94:	00ad8dbb          	addw	s11,s11,a0
   12e98:	00ad0d3b          	addw	s10,s10,a0
   12e9c:	00a7073b          	addw	a4,a4,a0
   12ea0:	02e12c23          	sw	a4,56(sp)
   12ea4:	e61ff06f          	j	12d04 <_dtoa_r+0x8fc>
   12ea8:	bee00713          	li	a4,-1042
   12eac:	000b079b          	sext.w	a5,s6
   12eb0:	40d7073b          	subw	a4,a4,a3
   12eb4:	00e797bb          	sllw	a5,a5,a4
   12eb8:	f38ff06f          	j	125f0 <_dtoa_r+0x1e8>
   12ebc:	04012423          	sw	zero,72(sp)
   12ec0:	fc8ff06f          	j	12688 <_dtoa_r+0x280>
   12ec4:	00098513          	mv	a0,s3
   12ec8:	000c0593          	mv	a1,s8
   12ecc:	089020ef          	jal	15754 <__mcmp>
   12ed0:	e60558e3          	bgez	a0,12d40 <_dtoa_r+0x938>
   12ed4:	00098593          	mv	a1,s3
   12ed8:	00040513          	mv	a0,s0
   12edc:	00a00613          	li	a2,10
   12ee0:	00000693          	li	a3,0
   12ee4:	03c020ef          	jal	14f20 <__multadd>
   12ee8:	02012703          	lw	a4,32(sp)
   12eec:	00050993          	mv	s3,a0
   12ef0:	fff9091b          	addiw	s2,s2,-1
   12ef4:	5e071c63          	bnez	a4,134ec <_dtoa_r+0x10e4>
   12ef8:	04c12783          	lw	a5,76(sp)
   12efc:	00078c93          	mv	s9,a5
   12f00:	00f04863          	bgtz	a5,12f10 <_dtoa_r+0xb08>
   12f04:	00200793          	li	a5,2
   12f08:	6147cc63          	blt	a5,s4,13520 <_dtoa_r+0x1118>
   12f0c:	04c12c83          	lw	s9,76(sp)
   12f10:	01813483          	ld	s1,24(sp)
   12f14:	00100a13          	li	s4,1
   12f18:	0100006f          	j	12f28 <_dtoa_r+0xb20>
   12f1c:	004020ef          	jal	14f20 <__multadd>
   12f20:	00050993          	mv	s3,a0
   12f24:	001a0a1b          	addiw	s4,s4,1
   12f28:	000c0593          	mv	a1,s8
   12f2c:	00098513          	mv	a0,s3
   12f30:	aecff0ef          	jal	1221c <quorem>
   12f34:	03050d1b          	addiw	s10,a0,48
   12f38:	00148493          	addi	s1,s1,1
   12f3c:	00040513          	mv	a0,s0
   12f40:	00098593          	mv	a1,s3
   12f44:	00a00613          	li	a2,10
   12f48:	00000693          	li	a3,0
   12f4c:	ffa48fa3          	sb	s10,-1(s1)
   12f50:	fd9a46e3          	blt	s4,s9,12f1c <_dtoa_r+0xb14>
   12f54:	00000a13          	li	s4,0
   12f58:	00098593          	mv	a1,s3
   12f5c:	00100613          	li	a2,1
   12f60:	00040513          	mv	a0,s0
   12f64:	68c020ef          	jal	155f0 <__lshift>
   12f68:	000c0593          	mv	a1,s8
   12f6c:	00050993          	mv	s3,a0
   12f70:	7e4020ef          	jal	15754 <__mcmp>
   12f74:	32a05863          	blez	a0,132a4 <_dtoa_r+0xe9c>
   12f78:	fff4c703          	lbu	a4,-1(s1)
   12f7c:	03900693          	li	a3,57
   12f80:	0140006f          	j	12f94 <_dtoa_r+0xb8c>
   12f84:	01813703          	ld	a4,24(sp)
   12f88:	26f70063          	beq	a4,a5,131e8 <_dtoa_r+0xde0>
   12f8c:	fff7c703          	lbu	a4,-1(a5)
   12f90:	00078493          	mv	s1,a5
   12f94:	fff48793          	addi	a5,s1,-1
   12f98:	fed706e3          	beq	a4,a3,12f84 <_dtoa_r+0xb7c>
   12f9c:	0017071b          	addiw	a4,a4,1
   12fa0:	00e78023          	sb	a4,0(a5)
   12fa4:	00040513          	mv	a0,s0
   12fa8:	000c0593          	mv	a1,s8
   12fac:	751010ef          	jal	14efc <_Bfree>
   12fb0:	9c0a8ce3          	beqz	s5,12988 <_dtoa_r+0x580>
   12fb4:	000a0a63          	beqz	s4,12fc8 <_dtoa_r+0xbc0>
   12fb8:	015a0863          	beq	s4,s5,12fc8 <_dtoa_r+0xbc0>
   12fbc:	00040513          	mv	a0,s0
   12fc0:	000a0593          	mv	a1,s4
   12fc4:	739010ef          	jal	14efc <_Bfree>
   12fc8:	00040513          	mv	a0,s0
   12fcc:	000a8593          	mv	a1,s5
   12fd0:	72d010ef          	jal	14efc <_Bfree>
   12fd4:	9b5ff06f          	j	12988 <_dtoa_r+0x580>
   12fd8:	000d8793          	mv	a5,s11
   12fdc:	b95ff06f          	j	12b70 <_dtoa_r+0x768>
   12fe0:	a3904ae3          	bgtz	s9,12a14 <_dtoa_r+0x60c>
   12fe4:	260c9263          	bnez	s9,13248 <_dtoa_r+0xe40>
   12fe8:	8781b007          	fld	ft0,-1928(gp) # 1d0d8 <__wctomb+0x48>
   12fec:	00000c13          	li	s8,0
   12ff0:	00000a93          	li	s5,0
   12ff4:	1204f4d3          	fmul.d	fs1,fs1,ft0
   12ff8:	f20b0053          	fmv.d.x	ft0,s6
   12ffc:	a2900b53          	fle.d	s6,ft0,fs1
   13000:	1c0b0463          	beqz	s6,131c8 <_dtoa_r+0xdc0>
   13004:	fff4c913          	not	s2,s1
   13008:	01813483          	ld	s1,24(sp)
   1300c:	00040513          	mv	a0,s0
   13010:	000c0593          	mv	a1,s8
   13014:	6e9010ef          	jal	14efc <_Bfree>
   13018:	fa0a98e3          	bnez	s5,12fc8 <_dtoa_r+0xbc0>
   1301c:	96dff06f          	j	12988 <_dtoa_r+0x580>
   13020:	00098593          	mv	a1,s3
   13024:	00040513          	mv	a0,s0
   13028:	490020ef          	jal	154b8 <__pow5mult>
   1302c:	00050993          	mv	s3,a0
   13030:	bb5ff06f          	j	12be4 <_dtoa_r+0x7dc>
   13034:	00cb1793          	slli	a5,s6,0xc
   13038:	be0790e3          	bnez	a5,12c18 <_dtoa_r+0x810>
   1303c:	420b5713          	srai	a4,s6,0x20
   13040:	7ff007b7          	lui	a5,0x7ff00
   13044:	00f777b3          	and	a5,a4,a5
   13048:	04012023          	sw	zero,64(sp)
   1304c:	c6078ae3          	beqz	a5,12cc0 <_dtoa_r+0x8b8>
   13050:	03812783          	lw	a5,56(sp)
   13054:	00100713          	li	a4,1
   13058:	001d0d1b          	addiw	s10,s10,1
   1305c:	0017879b          	addiw	a5,a5,1
   13060:	02f12c23          	sw	a5,56(sp)
   13064:	04e12023          	sw	a4,64(sp)
   13068:	c59ff06f          	j	12cc0 <_dtoa_r+0x8b8>
   1306c:	380a8e63          	beqz	s5,13408 <_dtoa_r+0x1000>
   13070:	4337879b          	addiw	a5,a5,1075
   13074:	000c0713          	mv	a4,s8
   13078:	03812d83          	lw	s11,56(sp)
   1307c:	abdff06f          	j	12b38 <_dtoa_r+0x730>
   13080:	412007bb          	negw	a5,s2
   13084:	04013407          	fld	fs0,64(sp)
   13088:	00200d93          	li	s11,2
   1308c:	fc078463          	beqz	a5,12854 <_dtoa_r+0x44c>
   13090:	00f7f713          	andi	a4,a5,15
   13094:	00371693          	slli	a3,a4,0x3
   13098:	0001b737          	lui	a4,0x1b
   1309c:	82070713          	addi	a4,a4,-2016 # 1a820 <__mprec_tens>
   130a0:	00e68733          	add	a4,a3,a4
   130a4:	00073007          	fld	ft0,0(a4)
   130a8:	4047d79b          	sraiw	a5,a5,0x4
   130ac:	12047453          	fmul.d	fs0,fs0,ft0
   130b0:	fa078263          	beqz	a5,12854 <_dtoa_r+0x44c>
   130b4:	0001b737          	lui	a4,0x1b
   130b8:	91070713          	addi	a4,a4,-1776 # 1a910 <__mprec_bigtens>
   130bc:	03f79693          	slli	a3,a5,0x3f
   130c0:	0006d863          	bgez	a3,130d0 <_dtoa_r+0xcc8>
   130c4:	00073007          	fld	ft0,0(a4)
   130c8:	001d8d9b          	addiw	s11,s11,1
   130cc:	12047453          	fmul.d	fs0,fs0,ft0
   130d0:	4017d79b          	sraiw	a5,a5,0x1
   130d4:	00870713          	addi	a4,a4,8
   130d8:	fe0792e3          	bnez	a5,130bc <_dtoa_r+0xcb4>
   130dc:	f78ff06f          	j	12854 <_dtoa_r+0x44c>
   130e0:	03900793          	li	a5,57
   130e4:	3afd0e63          	beq	s10,a5,134a0 <_dtoa_r+0x1098>
   130e8:	01605663          	blez	s6,130f4 <_dtoa_r+0xcec>
   130ec:	03812683          	lw	a3,56(sp)
   130f0:	03168d1b          	addiw	s10,a3,49
   130f4:	000a8a13          	mv	s4,s5
   130f8:	001c8493          	addi	s1,s9,1
   130fc:	01ac8023          	sb	s10,0(s9)
   13100:	000d8a93          	mv	s5,s11
   13104:	ea1ff06f          	j	12fa4 <_dtoa_r+0xb9c>
   13108:	000d0793          	mv	a5,s10
   1310c:	00098b13          	mv	s6,s3
   13110:	02e05c63          	blez	a4,13148 <_dtoa_r+0xd40>
   13114:	00100613          	li	a2,1
   13118:	00098593          	mv	a1,s3
   1311c:	00040513          	mv	a0,s0
   13120:	00f13423          	sd	a5,8(sp)
   13124:	4cc020ef          	jal	155f0 <__lshift>
   13128:	000c0593          	mv	a1,s8
   1312c:	00050b13          	mv	s6,a0
   13130:	624020ef          	jal	15754 <__mcmp>
   13134:	00813783          	ld	a5,8(sp)
   13138:	38a05663          	blez	a0,134c4 <_dtoa_r+0x10bc>
   1313c:	03900793          	li	a5,57
   13140:	38fd0e63          	beq	s10,a5,134dc <_dtoa_r+0x10d4>
   13144:	001d079b          	addiw	a5,s10,1
   13148:	000a8a13          	mv	s4,s5
   1314c:	001c8493          	addi	s1,s9,1
   13150:	00fc8023          	sb	a5,0(s9)
   13154:	000d8a93          	mv	s5,s11
   13158:	000b0993          	mv	s3,s6
   1315c:	e49ff06f          	j	12fa4 <_dtoa_r+0xb9c>
   13160:	000a8593          	mv	a1,s5
   13164:	00040513          	mv	a0,s0
   13168:	00a00613          	li	a2,10
   1316c:	00000693          	li	a3,0
   13170:	5b1010ef          	jal	14f20 <__multadd>
   13174:	00050a93          	mv	s5,a0
   13178:	00050d93          	mv	s11,a0
   1317c:	c19ff06f          	j	12d94 <_dtoa_r+0x98c>
   13180:	01813503          	ld	a0,24(sp)
   13184:	b68ff06f          	j	124ec <_dtoa_r+0xe4>
   13188:	00cb1713          	slli	a4,s6,0xc
   1318c:	b2071ae3          	bnez	a4,12cc0 <_dtoa_r+0x8b8>
   13190:	eadff06f          	j	1303c <_dtoa_r+0xc34>
   13194:	00200793          	li	a5,2
   13198:	bb47d6e3          	ble	s4,a5,12d44 <_dtoa_r+0x93c>
   1319c:	e60c94e3          	bnez	s9,13004 <_dtoa_r+0xbfc>
   131a0:	000c0593          	mv	a1,s8
   131a4:	00040513          	mv	a0,s0
   131a8:	00500613          	li	a2,5
   131ac:	00000693          	li	a3,0
   131b0:	571010ef          	jal	14f20 <__multadd>
   131b4:	00050c13          	mv	s8,a0
   131b8:	000c0593          	mv	a1,s8
   131bc:	00098513          	mv	a0,s3
   131c0:	594020ef          	jal	15754 <__mcmp>
   131c4:	e4a050e3          	blez	a0,13004 <_dtoa_r+0xbfc>
   131c8:	01813703          	ld	a4,24(sp)
   131cc:	03100793          	li	a5,49
   131d0:	0019091b          	addiw	s2,s2,1
   131d4:	00170493          	addi	s1,a4,1
   131d8:	00f70023          	sb	a5,0(a4)
   131dc:	e31ff06f          	j	1300c <_dtoa_r+0xc04>
   131e0:	00090513          	mv	a0,s2
   131e4:	b08ff06f          	j	124ec <_dtoa_r+0xe4>
   131e8:	01813703          	ld	a4,24(sp)
   131ec:	03100793          	li	a5,49
   131f0:	0019091b          	addiw	s2,s2,1
   131f4:	00f70023          	sb	a5,0(a4)
   131f8:	dadff06f          	j	12fa4 <_dtoa_r+0xb9c>
   131fc:	8701b087          	fld	ft1,-1936(gp) # 1d0d0 <__wctomb+0x40>
   13200:	d20d8053          	fcvt.d.w	ft0,s11
   13204:	fcc00737          	lui	a4,0xfcc00
   13208:	0a0470c3          	fmadd.d	ft1,fs0,ft0,ft1
   1320c:	e2008dd3          	fmv.x.d	s11,ft1
   13210:	420dd793          	srai	a5,s11,0x20
   13214:	00e787bb          	addw	a5,a5,a4
   13218:	020d9d93          	slli	s11,s11,0x20
   1321c:	02079793          	slli	a5,a5,0x20
   13220:	020ddd93          	srli	s11,s11,0x20
   13224:	00fdedb3          	or	s11,s11,a5
   13228:	8781b007          	fld	ft0,-1928(gp) # 1d0d8 <__wctomb+0x48>
   1322c:	f20d80d3          	fmv.d.x	ft1,s11
   13230:	0a047053          	fsub.d	ft0,fs0,ft0
   13234:	a20097d3          	flt.d	a5,ft1,ft0
   13238:	18079e63          	bnez	a5,133d4 <_dtoa_r+0xfcc>
   1323c:	221090d3          	fneg.d	ft1,ft1
   13240:	a21017d3          	flt.d	a5,ft0,ft1
   13244:	08078463          	beqz	a5,132cc <_dtoa_r+0xec4>
   13248:	00000c13          	li	s8,0
   1324c:	00000a93          	li	s5,0
   13250:	db5ff06f          	j	13004 <_dtoa_r+0xbfc>
   13254:	00098593          	mv	a1,s3
   13258:	00040513          	mv	a0,s0
   1325c:	000c0613          	mv	a2,s8
   13260:	258020ef          	jal	154b8 <__pow5mult>
   13264:	00050993          	mv	s3,a0
   13268:	97dff06f          	j	12be4 <_dtoa_r+0x7dc>
   1326c:	02012023          	sw	zero,32(sp)
   13270:	c78ff06f          	j	126e8 <_dtoa_r+0x2e0>
   13274:	03c12783          	lw	a5,60(sp)
   13278:	41870c3b          	subw	s8,a4,s8
   1327c:	018787bb          	addw	a5,a5,s8
   13280:	02f12e23          	sw	a5,60(sp)
   13284:	00070c13          	mv	s8,a4
   13288:	00000713          	li	a4,0
   1328c:	8a1ff06f          	j	12b2c <_dtoa_r+0x724>
   13290:	00100d93          	li	s11,1
   13294:	05b12623          	sw	s11,76(sp)
   13298:	000d8c93          	mv	s9,s11
   1329c:	000d8493          	mv	s1,s11
   132a0:	c60ff06f          	j	12700 <_dtoa_r+0x2f8>
   132a4:	00051663          	bnez	a0,132b0 <_dtoa_r+0xea8>
   132a8:	03fd1713          	slli	a4,s10,0x3f
   132ac:	cc0746e3          	bltz	a4,12f78 <_dtoa_r+0xb70>
   132b0:	03000693          	li	a3,48
   132b4:	0080006f          	j	132bc <_dtoa_r+0xeb4>
   132b8:	00070493          	mv	s1,a4
   132bc:	fff4c783          	lbu	a5,-1(s1)
   132c0:	fff48713          	addi	a4,s1,-1
   132c4:	fed78ae3          	beq	a5,a3,132b8 <_dtoa_r+0xeb0>
   132c8:	cddff06f          	j	12fa4 <_dtoa_r+0xb9c>
   132cc:	04013b03          	ld	s6,64(sp)
   132d0:	f1cff06f          	j	129ec <_dtoa_r+0x5e4>
   132d4:	01813703          	ld	a4,24(sp)
   132d8:	03000793          	li	a5,48
   132dc:	000b0493          	mv	s1,s6
   132e0:	00f70023          	sb	a5,0(a4) # fffffffffcc00000 <_gp+0xfffffffffcbe27a0>
   132e4:	0019091b          	addiw	s2,s2,1
   132e8:	03100793          	li	a5,49
   132ec:	81dff06f          	j	12b08 <_dtoa_r+0x700>
   132f0:	008aa583          	lw	a1,8(s5)
   132f4:	00040513          	mv	a0,s0
   132f8:	359010ef          	jal	14e50 <_Balloc>
   132fc:	014aa603          	lw	a2,20(s5)
   13300:	00050493          	mv	s1,a0
   13304:	010a8593          	addi	a1,s5,16
   13308:	00260613          	addi	a2,a2,2
   1330c:	00261613          	slli	a2,a2,0x2
   13310:	01050513          	addi	a0,a0,16
   13314:	125010ef          	jal	14c38 <memcpy>
   13318:	00040513          	mv	a0,s0
   1331c:	00048593          	mv	a1,s1
   13320:	00100613          	li	a2,1
   13324:	2cc020ef          	jal	155f0 <__lshift>
   13328:	00050d93          	mv	s11,a0
   1332c:	a45ff06f          	j	12d70 <_dtoa_r+0x968>
   13330:	00379713          	slli	a4,a5,0x3
   13334:	0001b7b7          	lui	a5,0x1b
   13338:	82078793          	addi	a5,a5,-2016 # 1a820 <__mprec_tens>
   1333c:	00f707b3          	add	a5,a4,a5
   13340:	01813703          	ld	a4,24(sp)
   13344:	0007b187          	fld	ft3,0(a5)
   13348:	c20417d3          	fcvt.w.d	a5,fs0,rtz
   1334c:	d2078053          	fcvt.d.w	ft0,a5
   13350:	f20d80d3          	fmv.d.x	ft1,s11
   13354:	0307879b          	addiw	a5,a5,48
   13358:	00f70023          	sb	a5,0(a4)
   1335c:	00100793          	li	a5,1
   13360:	1211f1d3          	fmul.d	ft3,ft3,ft1
   13364:	0a047053          	fsub.d	ft0,fs0,ft0
   13368:	00170b13          	addi	s6,a4,1
   1336c:	04f60663          	beq	a2,a5,133b8 <_dtoa_r+0xfb0>
   13370:	ffe6061b          	addiw	a2,a2,-2
   13374:	02061613          	slli	a2,a2,0x20
   13378:	8681b107          	fld	ft2,-1944(gp) # 1d0c8 <__wctomb+0x38>
   1337c:	01813783          	ld	a5,24(sp)
   13380:	02065613          	srli	a2,a2,0x20
   13384:	00260593          	addi	a1,a2,2
   13388:	00b785b3          	add	a1,a5,a1
   1338c:	000b0713          	mv	a4,s6
   13390:	12207053          	fmul.d	ft0,ft0,ft2
   13394:	00170713          	addi	a4,a4,1
   13398:	c20017d3          	fcvt.w.d	a5,ft0,rtz
   1339c:	d20780d3          	fcvt.d.w	ft1,a5
   133a0:	0307879b          	addiw	a5,a5,48
   133a4:	0a107053          	fsub.d	ft0,ft0,ft1
   133a8:	fef70fa3          	sb	a5,-1(a4)
   133ac:	feb712e3          	bne	a4,a1,13390 <_dtoa_r+0xf88>
   133b0:	00160613          	addi	a2,a2,1
   133b4:	00cb0b33          	add	s6,s6,a2
   133b8:	8801b087          	fld	ft1,-1920(gp) # 1d0e0 <__wctomb+0x50>
   133bc:	0211f153          	fadd.d	ft2,ft3,ft1
   133c0:	a20117d3          	flt.d	a5,ft2,ft0
   133c4:	0a078663          	beqz	a5,13470 <_dtoa_r+0x1068>
   133c8:	fffb4783          	lbu	a5,-1(s6)
   133cc:	00068913          	mv	s2,a3
   133d0:	f0cff06f          	j	12adc <_dtoa_r+0x6d4>
   133d4:	00000c13          	li	s8,0
   133d8:	00000a93          	li	s5,0
   133dc:	dedff06f          	j	131c8 <_dtoa_r+0xdc0>
   133e0:	03900793          	li	a5,57
   133e4:	0afd0e63          	beq	s10,a5,134a0 <_dtoa_r+0x1098>
   133e8:	001d0d1b          	addiw	s10,s10,1
   133ec:	d09ff06f          	j	130f4 <_dtoa_r+0xcec>
   133f0:	000a8a13          	mv	s4,s5
   133f4:	000d8a93          	mv	s5,s11
   133f8:	b61ff06f          	j	12f58 <_dtoa_r+0xb50>
   133fc:	419d8dbb          	subw	s11,s11,s9
   13400:	00000793          	li	a5,0
   13404:	f34ff06f          	j	12b38 <_dtoa_r+0x730>
   13408:	05812683          	lw	a3,88(sp)
   1340c:	03600793          	li	a5,54
   13410:	000c0713          	mv	a4,s8
   13414:	40d787bb          	subw	a5,a5,a3
   13418:	03812d83          	lw	s11,56(sp)
   1341c:	f1cff06f          	j	12b38 <_dtoa_r+0x730>
   13420:	dc0c8ee3          	beqz	s9,131fc <_dtoa_r+0xdf4>
   13424:	04c12783          	lw	a5,76(sp)
   13428:	eaf052e3          	blez	a5,132cc <_dtoa_r+0xec4>
   1342c:	8681b007          	fld	ft0,-1944(gp) # 1d0c8 <__wctomb+0x38>
   13430:	8701b087          	fld	ft1,-1936(gp) # 1d0d0 <__wctomb+0x40>
   13434:	12047453          	fmul.d	fs0,fs0,ft0
   13438:	001d8d9b          	addiw	s11,s11,1
   1343c:	d20d8053          	fcvt.d.w	ft0,s11
   13440:	fcc00737          	lui	a4,0xfcc00
   13444:	fff9069b          	addiw	a3,s2,-1
   13448:	04c12603          	lw	a2,76(sp)
   1344c:	0a0470c3          	fmadd.d	ft1,fs0,ft0,ft1
   13450:	e2008dd3          	fmv.x.d	s11,ft1
   13454:	420dd793          	srai	a5,s11,0x20
   13458:	00e787bb          	addw	a5,a5,a4
   1345c:	020d9d93          	slli	s11,s11,0x20
   13460:	02079793          	slli	a5,a5,0x20
   13464:	020ddd93          	srli	s11,s11,0x20
   13468:	00fdedb3          	or	s11,s11,a5
   1346c:	c34ff06f          	j	128a0 <_dtoa_r+0x498>
   13470:	0a30f1d3          	fsub.d	ft3,ft1,ft3
   13474:	a23017d3          	flt.d	a5,ft0,ft3
   13478:	e4078ae3          	beqz	a5,132cc <_dtoa_r+0xec4>
   1347c:	000b0493          	mv	s1,s6
   13480:	03000613          	li	a2,48
   13484:	0080006f          	j	1348c <_dtoa_r+0x1084>
   13488:	00070493          	mv	s1,a4
   1348c:	fff4c783          	lbu	a5,-1(s1)
   13490:	fff48713          	addi	a4,s1,-1
   13494:	fec78ae3          	beq	a5,a2,13488 <_dtoa_r+0x1080>
   13498:	00068913          	mv	s2,a3
   1349c:	cecff06f          	j	12988 <_dtoa_r+0x580>
   134a0:	000a8a13          	mv	s4,s5
   134a4:	000d8a93          	mv	s5,s11
   134a8:	03900793          	li	a5,57
   134ac:	001c8493          	addi	s1,s9,1
   134b0:	00fc8023          	sb	a5,0(s9)
   134b4:	03900713          	li	a4,57
   134b8:	ac5ff06f          	j	12f7c <_dtoa_r+0xb74>
   134bc:	00068913          	mv	s2,a3
   134c0:	e1cff06f          	j	12adc <_dtoa_r+0x6d4>
   134c4:	c80512e3          	bnez	a0,13148 <_dtoa_r+0xd40>
   134c8:	03fd1693          	slli	a3,s10,0x3f
   134cc:	c606dee3          	bgez	a3,13148 <_dtoa_r+0xd40>
   134d0:	c6dff06f          	j	1313c <_dtoa_r+0xd34>
   134d4:	00048b13          	mv	s6,s1
   134d8:	de0ff06f          	j	12ab8 <_dtoa_r+0x6b0>
   134dc:	000a8a13          	mv	s4,s5
   134e0:	000b0993          	mv	s3,s6
   134e4:	000d8a93          	mv	s5,s11
   134e8:	fc1ff06f          	j	134a8 <_dtoa_r+0x10a0>
   134ec:	000a8593          	mv	a1,s5
   134f0:	00040513          	mv	a0,s0
   134f4:	00a00613          	li	a2,10
   134f8:	00000693          	li	a3,0
   134fc:	225010ef          	jal	14f20 <__multadd>
   13500:	04c12783          	lw	a5,76(sp)
   13504:	00050a93          	mv	s5,a0
   13508:	00078c93          	mv	s9,a5
   1350c:	84f040e3          	bgtz	a5,12d4c <_dtoa_r+0x944>
   13510:	00200793          	li	a5,2
   13514:	0147c663          	blt	a5,s4,13520 <_dtoa_r+0x1118>
   13518:	04c12c83          	lw	s9,76(sp)
   1351c:	831ff06f          	j	12d4c <_dtoa_r+0x944>
   13520:	04c12c83          	lw	s9,76(sp)
   13524:	c79ff06f          	j	1319c <_dtoa_r+0xd94>
   13528:	fce78e63          	beq	a5,a4,12d04 <_dtoa_r+0x8fc>
   1352c:	03c00793          	li	a5,60
   13530:	40a7853b          	subw	a0,a5,a0
   13534:	95dff06f          	j	12e90 <_dtoa_r+0xa88>

0000000000013538 <_fflush_r>:
   13538:	fd010113          	addi	sp,sp,-48
   1353c:	02813023          	sd	s0,32(sp)
   13540:	01313423          	sd	s3,8(sp)
   13544:	02113423          	sd	ra,40(sp)
   13548:	00913c23          	sd	s1,24(sp)
   1354c:	01213823          	sd	s2,16(sp)
   13550:	00050993          	mv	s3,a0
   13554:	00058413          	mv	s0,a1
   13558:	00050663          	beqz	a0,13564 <_fflush_r+0x2c>
   1355c:	05052783          	lw	a5,80(a0)
   13560:	18078463          	beqz	a5,136e8 <_fflush_r+0x1b0>
   13564:	01041703          	lh	a4,16(s0)
   13568:	0c070e63          	beqz	a4,13644 <_fflush_r+0x10c>
   1356c:	00877793          	andi	a5,a4,8
   13570:	0e079a63          	bnez	a5,13664 <_fflush_r+0x12c>
   13574:	000017b7          	lui	a5,0x1
   13578:	8007879b          	addiw	a5,a5,-2048
   1357c:	00f767b3          	or	a5,a4,a5
   13580:	00842683          	lw	a3,8(s0)
   13584:	0107979b          	slliw	a5,a5,0x10
   13588:	4107d79b          	sraiw	a5,a5,0x10
   1358c:	00f41823          	sh	a5,16(s0)
   13590:	18d05a63          	blez	a3,13724 <_fflush_r+0x1ec>
   13594:	04843703          	ld	a4,72(s0)
   13598:	0a070663          	beqz	a4,13644 <_fflush_r+0x10c>
   1359c:	03079793          	slli	a5,a5,0x30
   135a0:	0307d793          	srli	a5,a5,0x30
   135a4:	03379693          	slli	a3,a5,0x33
   135a8:	0009a483          	lw	s1,0(s3)
   135ac:	0009a023          	sw	zero,0(s3)
   135b0:	1406d463          	bgez	a3,136f8 <_fflush_r+0x1c0>
   135b4:	08c42603          	lw	a2,140(s0)
   135b8:	0047f793          	andi	a5,a5,4
   135bc:	00078e63          	beqz	a5,135d8 <_fflush_r+0xa0>
   135c0:	00842683          	lw	a3,8(s0)
   135c4:	05843783          	ld	a5,88(s0)
   135c8:	40d60633          	sub	a2,a2,a3
   135cc:	00078663          	beqz	a5,135d8 <_fflush_r+0xa0>
   135d0:	07042783          	lw	a5,112(s0)
   135d4:	40f60633          	sub	a2,a2,a5
   135d8:	03043583          	ld	a1,48(s0)
   135dc:	00098513          	mv	a0,s3
   135e0:	00000693          	li	a3,0
   135e4:	000700e7          	jalr	a4
   135e8:	fff00793          	li	a5,-1
   135ec:	14f50263          	beq	a0,a5,13730 <_fflush_r+0x1f8>
   135f0:	01045683          	lhu	a3,16(s0)
   135f4:	fffff7b7          	lui	a5,0xfffff
   135f8:	7ff7879b          	addiw	a5,a5,2047
   135fc:	01843703          	ld	a4,24(s0)
   13600:	00f6f7b3          	and	a5,a3,a5
   13604:	0107979b          	slliw	a5,a5,0x10
   13608:	4107d79b          	sraiw	a5,a5,0x10
   1360c:	00e43023          	sd	a4,0(s0)
   13610:	03379713          	slli	a4,a5,0x33
   13614:	00f41823          	sh	a5,16(s0)
   13618:	00042423          	sw	zero,8(s0)
   1361c:	00075463          	bgez	a4,13624 <_fflush_r+0xec>
   13620:	08a42623          	sw	a0,140(s0)
   13624:	05843583          	ld	a1,88(s0)
   13628:	0099a023          	sw	s1,0(s3)
   1362c:	00058c63          	beqz	a1,13644 <_fflush_r+0x10c>
   13630:	07440793          	addi	a5,s0,116
   13634:	00f58663          	beq	a1,a5,13640 <_fflush_r+0x108>
   13638:	00098513          	mv	a0,s3
   1363c:	644000ef          	jal	13c80 <_free_r>
   13640:	04043c23          	sd	zero,88(s0)
   13644:	00000513          	li	a0,0
   13648:	02813083          	ld	ra,40(sp)
   1364c:	02013403          	ld	s0,32(sp)
   13650:	01813483          	ld	s1,24(sp)
   13654:	01013903          	ld	s2,16(sp)
   13658:	00813983          	ld	s3,8(sp)
   1365c:	03010113          	addi	sp,sp,48
   13660:	00008067          	ret
   13664:	01843903          	ld	s2,24(s0)
   13668:	fc090ee3          	beqz	s2,13644 <_fflush_r+0x10c>
   1366c:	00043483          	ld	s1,0(s0)
   13670:	03e71693          	slli	a3,a4,0x3e
   13674:	00000793          	li	a5,0
   13678:	01243023          	sd	s2,0(s0)
   1367c:	412484bb          	subw	s1,s1,s2
   13680:	06068863          	beqz	a3,136f0 <_fflush_r+0x1b8>
   13684:	00f42623          	sw	a5,12(s0)
   13688:	00904863          	bgtz	s1,13698 <_fflush_r+0x160>
   1368c:	fb9ff06f          	j	13644 <_fflush_r+0x10c>
   13690:	00f90933          	add	s2,s2,a5
   13694:	fa9058e3          	blez	s1,13644 <_fflush_r+0x10c>
   13698:	04043783          	ld	a5,64(s0)
   1369c:	03043583          	ld	a1,48(s0)
   136a0:	00048693          	mv	a3,s1
   136a4:	00090613          	mv	a2,s2
   136a8:	00098513          	mv	a0,s3
   136ac:	000780e7          	jalr	a5
   136b0:	00050793          	mv	a5,a0
   136b4:	40a484bb          	subw	s1,s1,a0
   136b8:	fca04ce3          	bgtz	a0,13690 <_fflush_r+0x158>
   136bc:	01045783          	lhu	a5,16(s0)
   136c0:	02813083          	ld	ra,40(sp)
   136c4:	fff00513          	li	a0,-1
   136c8:	0407e793          	ori	a5,a5,64
   136cc:	00f41823          	sh	a5,16(s0)
   136d0:	01813483          	ld	s1,24(sp)
   136d4:	02013403          	ld	s0,32(sp)
   136d8:	01013903          	ld	s2,16(sp)
   136dc:	00813983          	ld	s3,8(sp)
   136e0:	03010113          	addi	sp,sp,48
   136e4:	00008067          	ret
   136e8:	440000ef          	jal	13b28 <__sinit>
   136ec:	e79ff06f          	j	13564 <_fflush_r+0x2c>
   136f0:	02042783          	lw	a5,32(s0)
   136f4:	f91ff06f          	j	13684 <_fflush_r+0x14c>
   136f8:	03043583          	ld	a1,48(s0)
   136fc:	00000613          	li	a2,0
   13700:	00098513          	mv	a0,s3
   13704:	00100693          	li	a3,1
   13708:	000700e7          	jalr	a4
   1370c:	fff00793          	li	a5,-1
   13710:	00050613          	mv	a2,a0
   13714:	08f50663          	beq	a0,a5,137a0 <_fflush_r+0x268>
   13718:	01045783          	lhu	a5,16(s0)
   1371c:	04843703          	ld	a4,72(s0)
   13720:	e99ff06f          	j	135b8 <_fflush_r+0x80>
   13724:	07042703          	lw	a4,112(s0)
   13728:	e6e046e3          	bgtz	a4,13594 <_fflush_r+0x5c>
   1372c:	f19ff06f          	j	13644 <_fflush_r+0x10c>
   13730:	0009a783          	lw	a5,0(s3)
   13734:	02078c63          	beqz	a5,1376c <_fflush_r+0x234>
   13738:	01d00713          	li	a4,29
   1373c:	00e78663          	beq	a5,a4,13748 <_fflush_r+0x210>
   13740:	01600713          	li	a4,22
   13744:	08e79063          	bne	a5,a4,137c4 <_fflush_r+0x28c>
   13748:	01045683          	lhu	a3,16(s0)
   1374c:	01843703          	ld	a4,24(s0)
   13750:	fffff7b7          	lui	a5,0xfffff
   13754:	7ff7879b          	addiw	a5,a5,2047
   13758:	00f6f7b3          	and	a5,a3,a5
   1375c:	00f41823          	sh	a5,16(s0)
   13760:	00042423          	sw	zero,8(s0)
   13764:	00e43023          	sd	a4,0(s0)
   13768:	ebdff06f          	j	13624 <_fflush_r+0xec>
   1376c:	01045683          	lhu	a3,16(s0)
   13770:	fffff7b7          	lui	a5,0xfffff
   13774:	7ff7879b          	addiw	a5,a5,2047
   13778:	00f6f7b3          	and	a5,a3,a5
   1377c:	01843703          	ld	a4,24(s0)
   13780:	0107979b          	slliw	a5,a5,0x10
   13784:	4107d79b          	sraiw	a5,a5,0x10
   13788:	03379693          	slli	a3,a5,0x33
   1378c:	00f41823          	sh	a5,16(s0)
   13790:	00042423          	sw	zero,8(s0)
   13794:	00e43023          	sd	a4,0(s0)
   13798:	e806c4e3          	bltz	a3,13620 <_fflush_r+0xe8>
   1379c:	e89ff06f          	j	13624 <_fflush_r+0xec>
   137a0:	0009a783          	lw	a5,0(s3)
   137a4:	f6078ae3          	beqz	a5,13718 <_fflush_r+0x1e0>
   137a8:	01d00713          	li	a4,29
   137ac:	00e78663          	beq	a5,a4,137b8 <_fflush_r+0x280>
   137b0:	01600713          	li	a4,22
   137b4:	f0e794e3          	bne	a5,a4,136bc <_fflush_r+0x184>
   137b8:	0099a023          	sw	s1,0(s3)
   137bc:	00000513          	li	a0,0
   137c0:	e89ff06f          	j	13648 <_fflush_r+0x110>
   137c4:	01045783          	lhu	a5,16(s0)
   137c8:	0407e793          	ori	a5,a5,64
   137cc:	00f41823          	sh	a5,16(s0)
   137d0:	e79ff06f          	j	13648 <_fflush_r+0x110>

00000000000137d4 <fflush>:
   137d4:	00050593          	mv	a1,a0
   137d8:	00050663          	beqz	a0,137e4 <fflush+0x10>
   137dc:	8101b503          	ld	a0,-2032(gp) # 1d070 <_impure_ptr>
   137e0:	d59ff06f          	j	13538 <_fflush_r>
   137e4:	8081b503          	ld	a0,-2040(gp) # 1d068 <_global_impure_ptr>
   137e8:	000135b7          	lui	a1,0x13
   137ec:	53858593          	addi	a1,a1,1336 # 13538 <_fflush_r>
   137f0:	0550006f          	j	14044 <_fwalk_reent>

00000000000137f4 <__fp_lock>:
   137f4:	00000513          	li	a0,0
   137f8:	00008067          	ret

00000000000137fc <__fp_unlock>:
   137fc:	00000513          	li	a0,0
   13800:	00008067          	ret

0000000000013804 <_cleanup_r>:
   13804:	000175b7          	lui	a1,0x17
   13808:	59c58593          	addi	a1,a1,1436 # 1759c <fclose>
   1380c:	7940006f          	j	13fa0 <_fwalk>

0000000000013810 <__sinit.part.1>:
   13810:	fb010113          	addi	sp,sp,-80
   13814:	000147b7          	lui	a5,0x14
   13818:	04813023          	sd	s0,64(sp)
   1381c:	80478793          	addi	a5,a5,-2044 # 13804 <_cleanup_r>
   13820:	00853403          	ld	s0,8(a0)
   13824:	04113423          	sd	ra,72(sp)
   13828:	02913c23          	sd	s1,56(sp)
   1382c:	03213823          	sd	s2,48(sp)
   13830:	03313423          	sd	s3,40(sp)
   13834:	03413023          	sd	s4,32(sp)
   13838:	01513c23          	sd	s5,24(sp)
   1383c:	01613823          	sd	s6,16(sp)
   13840:	01713423          	sd	s7,8(sp)
   13844:	04f53c23          	sd	a5,88(a0)
   13848:	00300793          	li	a5,3
   1384c:	52f52423          	sw	a5,1320(a0)
   13850:	53850713          	addi	a4,a0,1336
   13854:	00100b93          	li	s7,1
   13858:	00400793          	li	a5,4
   1385c:	52e53823          	sd	a4,1328(a0)
   13860:	05752823          	sw	s7,80(a0)
   13864:	52053023          	sd	zero,1312(a0)
   13868:	00050913          	mv	s2,a0
   1386c:	00f41823          	sh	a5,16(s0)
   13870:	00000593          	li	a1,0
   13874:	00800613          	li	a2,8
   13878:	00043023          	sd	zero,0(s0)
   1387c:	00042423          	sw	zero,8(s0)
   13880:	00042623          	sw	zero,12(s0)
   13884:	0a042223          	sw	zero,164(s0)
   13888:	00041923          	sh	zero,18(s0)
   1388c:	00043c23          	sd	zero,24(s0)
   13890:	02042023          	sw	zero,32(s0)
   13894:	02042423          	sw	zero,40(s0)
   13898:	09c40513          	addi	a0,s0,156
   1389c:	4d0010ef          	jal	14d6c <memset>
   138a0:	01093483          	ld	s1,16(s2)
   138a4:	00016b37          	lui	s6,0x16
   138a8:	00016ab7          	lui	s5,0x16
   138ac:	00016a37          	lui	s4,0x16
   138b0:	000169b7          	lui	s3,0x16
   138b4:	f04b0b13          	addi	s6,s6,-252 # 15f04 <__sread>
   138b8:	f70a8a93          	addi	s5,s5,-144 # 15f70 <__swrite>
   138bc:	fe0a0a13          	addi	s4,s4,-32 # 15fe0 <__sseek>
   138c0:	04c98993          	addi	s3,s3,76 # 1604c <__sclose>
   138c4:	00900793          	li	a5,9
   138c8:	03643c23          	sd	s6,56(s0)
   138cc:	05543023          	sd	s5,64(s0)
   138d0:	05443423          	sd	s4,72(s0)
   138d4:	05343823          	sd	s3,80(s0)
   138d8:	02843823          	sd	s0,48(s0)
   138dc:	00000593          	li	a1,0
   138e0:	00f49823          	sh	a5,16(s1)
   138e4:	01749923          	sh	s7,18(s1)
   138e8:	00800613          	li	a2,8
   138ec:	0004b023          	sd	zero,0(s1)
   138f0:	0004a423          	sw	zero,8(s1)
   138f4:	0004a623          	sw	zero,12(s1)
   138f8:	0a04a223          	sw	zero,164(s1)
   138fc:	0004bc23          	sd	zero,24(s1)
   13900:	0204a023          	sw	zero,32(s1)
   13904:	0204a423          	sw	zero,40(s1)
   13908:	09c48513          	addi	a0,s1,156
   1390c:	460010ef          	jal	14d6c <memset>
   13910:	01893403          	ld	s0,24(s2)
   13914:	01200793          	li	a5,18
   13918:	0364bc23          	sd	s6,56(s1)
   1391c:	0554b023          	sd	s5,64(s1)
   13920:	0544b423          	sd	s4,72(s1)
   13924:	0534b823          	sd	s3,80(s1)
   13928:	0294b823          	sd	s1,48(s1)
   1392c:	00f41823          	sh	a5,16(s0)
   13930:	00200793          	li	a5,2
   13934:	09c40513          	addi	a0,s0,156
   13938:	00043023          	sd	zero,0(s0)
   1393c:	00042423          	sw	zero,8(s0)
   13940:	00042623          	sw	zero,12(s0)
   13944:	0a042223          	sw	zero,164(s0)
   13948:	00f41923          	sh	a5,18(s0)
   1394c:	00043c23          	sd	zero,24(s0)
   13950:	02042023          	sw	zero,32(s0)
   13954:	02042423          	sw	zero,40(s0)
   13958:	00000593          	li	a1,0
   1395c:	00800613          	li	a2,8
   13960:	40c010ef          	jal	14d6c <memset>
   13964:	04813083          	ld	ra,72(sp)
   13968:	03643c23          	sd	s6,56(s0)
   1396c:	05543023          	sd	s5,64(s0)
   13970:	05443423          	sd	s4,72(s0)
   13974:	05343823          	sd	s3,80(s0)
   13978:	02843823          	sd	s0,48(s0)
   1397c:	03813483          	ld	s1,56(sp)
   13980:	04013403          	ld	s0,64(sp)
   13984:	03013903          	ld	s2,48(sp)
   13988:	02813983          	ld	s3,40(sp)
   1398c:	02013a03          	ld	s4,32(sp)
   13990:	01813a83          	ld	s5,24(sp)
   13994:	01013b03          	ld	s6,16(sp)
   13998:	00813b83          	ld	s7,8(sp)
   1399c:	05010113          	addi	sp,sp,80
   139a0:	00008067          	ret

00000000000139a4 <__sfmoreglue>:
   139a4:	fe010113          	addi	sp,sp,-32
   139a8:	01213023          	sd	s2,0(sp)
   139ac:	00058913          	mv	s2,a1
   139b0:	00913423          	sd	s1,8(sp)
   139b4:	00090793          	mv	a5,s2
   139b8:	0a800493          	li	s1,168
   139bc:	029784b3          	mul	s1,a5,s1
   139c0:	00813823          	sd	s0,16(sp)
   139c4:	00113c23          	sd	ra,24(sp)
   139c8:	01848593          	addi	a1,s1,24
   139cc:	1a1000ef          	jal	1436c <_malloc_r>
   139d0:	00050413          	mv	s0,a0
   139d4:	02050063          	beqz	a0,139f4 <__sfmoreglue+0x50>
   139d8:	01850513          	addi	a0,a0,24
   139dc:	00043023          	sd	zero,0(s0)
   139e0:	01242423          	sw	s2,8(s0)
   139e4:	00a43823          	sd	a0,16(s0)
   139e8:	00000593          	li	a1,0
   139ec:	00048613          	mv	a2,s1
   139f0:	37c010ef          	jal	14d6c <memset>
   139f4:	01813083          	ld	ra,24(sp)
   139f8:	00040513          	mv	a0,s0
   139fc:	00813483          	ld	s1,8(sp)
   13a00:	01013403          	ld	s0,16(sp)
   13a04:	00013903          	ld	s2,0(sp)
   13a08:	02010113          	addi	sp,sp,32
   13a0c:	00008067          	ret

0000000000013a10 <__sfp>:
   13a10:	fd010113          	addi	sp,sp,-48
   13a14:	01213823          	sd	s2,16(sp)
   13a18:	8081b903          	ld	s2,-2040(gp) # 1d068 <_global_impure_ptr>
   13a1c:	01313423          	sd	s3,8(sp)
   13a20:	02113423          	sd	ra,40(sp)
   13a24:	05092783          	lw	a5,80(s2)
   13a28:	02813023          	sd	s0,32(sp)
   13a2c:	00913c23          	sd	s1,24(sp)
   13a30:	00050993          	mv	s3,a0
   13a34:	00079663          	bnez	a5,13a40 <__sfp+0x30>
   13a38:	00090513          	mv	a0,s2
   13a3c:	dd5ff0ef          	jal	13810 <__sinit.part.1>
   13a40:	52090913          	addi	s2,s2,1312
   13a44:	fff00493          	li	s1,-1
   13a48:	00892783          	lw	a5,8(s2)
   13a4c:	01093403          	ld	s0,16(s2)
   13a50:	fff7879b          	addiw	a5,a5,-1
   13a54:	0007da63          	bgez	a5,13a68 <__sfp+0x58>
   13a58:	0840006f          	j	13adc <__sfp+0xcc>
   13a5c:	fff7879b          	addiw	a5,a5,-1
   13a60:	0a840413          	addi	s0,s0,168
   13a64:	06978c63          	beq	a5,s1,13adc <__sfp+0xcc>
   13a68:	01041703          	lh	a4,16(s0)
   13a6c:	fe0718e3          	bnez	a4,13a5c <__sfp+0x4c>
   13a70:	fff00793          	li	a5,-1
   13a74:	00f41923          	sh	a5,18(s0)
   13a78:	00100793          	li	a5,1
   13a7c:	00f41823          	sh	a5,16(s0)
   13a80:	0a042223          	sw	zero,164(s0)
   13a84:	00043023          	sd	zero,0(s0)
   13a88:	00042623          	sw	zero,12(s0)
   13a8c:	00042423          	sw	zero,8(s0)
   13a90:	00043c23          	sd	zero,24(s0)
   13a94:	02042023          	sw	zero,32(s0)
   13a98:	02042423          	sw	zero,40(s0)
   13a9c:	09c40513          	addi	a0,s0,156
   13aa0:	00000593          	li	a1,0
   13aa4:	00800613          	li	a2,8
   13aa8:	2c4010ef          	jal	14d6c <memset>
   13aac:	04043c23          	sd	zero,88(s0)
   13ab0:	06042023          	sw	zero,96(s0)
   13ab4:	06043c23          	sd	zero,120(s0)
   13ab8:	08042023          	sw	zero,128(s0)
   13abc:	00040513          	mv	a0,s0
   13ac0:	02813083          	ld	ra,40(sp)
   13ac4:	02013403          	ld	s0,32(sp)
   13ac8:	01813483          	ld	s1,24(sp)
   13acc:	01013903          	ld	s2,16(sp)
   13ad0:	00813983          	ld	s3,8(sp)
   13ad4:	03010113          	addi	sp,sp,48
   13ad8:	00008067          	ret
   13adc:	00093783          	ld	a5,0(s2)
   13ae0:	00078663          	beqz	a5,13aec <__sfp+0xdc>
   13ae4:	00078913          	mv	s2,a5
   13ae8:	f61ff06f          	j	13a48 <__sfp+0x38>
   13aec:	00098513          	mv	a0,s3
   13af0:	00400593          	li	a1,4
   13af4:	eb1ff0ef          	jal	139a4 <__sfmoreglue>
   13af8:	00a93023          	sd	a0,0(s2)
   13afc:	00050663          	beqz	a0,13b08 <__sfp+0xf8>
   13b00:	00050913          	mv	s2,a0
   13b04:	f45ff06f          	j	13a48 <__sfp+0x38>
   13b08:	00c00793          	li	a5,12
   13b0c:	00f9a023          	sw	a5,0(s3)
   13b10:	00000513          	li	a0,0
   13b14:	fadff06f          	j	13ac0 <__sfp+0xb0>

0000000000013b18 <_cleanup>:
   13b18:	8081b503          	ld	a0,-2040(gp) # 1d068 <_global_impure_ptr>
   13b1c:	000175b7          	lui	a1,0x17
   13b20:	59c58593          	addi	a1,a1,1436 # 1759c <fclose>
   13b24:	47c0006f          	j	13fa0 <_fwalk>

0000000000013b28 <__sinit>:
   13b28:	05052783          	lw	a5,80(a0)
   13b2c:	00078463          	beqz	a5,13b34 <__sinit+0xc>
   13b30:	00008067          	ret
   13b34:	cddff06f          	j	13810 <__sinit.part.1>

0000000000013b38 <__sfp_lock_acquire>:
   13b38:	00008067          	ret

0000000000013b3c <__sfp_lock_release>:
   13b3c:	00008067          	ret

0000000000013b40 <__sinit_lock_acquire>:
   13b40:	00008067          	ret

0000000000013b44 <__sinit_lock_release>:
   13b44:	00008067          	ret

0000000000013b48 <__fp_lock_all>:
   13b48:	8101b503          	ld	a0,-2032(gp) # 1d070 <_impure_ptr>
   13b4c:	000135b7          	lui	a1,0x13
   13b50:	7f458593          	addi	a1,a1,2036 # 137f4 <__fp_lock>
   13b54:	44c0006f          	j	13fa0 <_fwalk>

0000000000013b58 <__fp_unlock_all>:
   13b58:	8101b503          	ld	a0,-2032(gp) # 1d070 <_impure_ptr>
   13b5c:	000135b7          	lui	a1,0x13
   13b60:	7fc58593          	addi	a1,a1,2044 # 137fc <__fp_unlock>
   13b64:	43c0006f          	j	13fa0 <_fwalk>

0000000000013b68 <_malloc_trim_r>:
   13b68:	fd010113          	addi	sp,sp,-48
   13b6c:	01213823          	sd	s2,16(sp)
   13b70:	0001d937          	lui	s2,0x1d
   13b74:	85090913          	addi	s2,s2,-1968 # 1c850 <__malloc_av_>
   13b78:	02813023          	sd	s0,32(sp)
   13b7c:	00913c23          	sd	s1,24(sp)
   13b80:	00058413          	mv	s0,a1
   13b84:	01313423          	sd	s3,8(sp)
   13b88:	02113423          	sd	ra,40(sp)
   13b8c:	00050993          	mv	s3,a0
   13b90:	2b8010ef          	jal	14e48 <__malloc_lock>
   13b94:	01093703          	ld	a4,16(s2)
   13b98:	000017b7          	lui	a5,0x1
   13b9c:	fdf78593          	addi	a1,a5,-33 # fdf <_ftext-0xf021>
   13ba0:	00873483          	ld	s1,8(a4) # fffffffffcc00008 <_gp+0xfffffffffcbe27a8>
   13ba4:	ffc4f493          	andi	s1,s1,-4
   13ba8:	40848433          	sub	s0,s1,s0
   13bac:	00b40433          	add	s0,s0,a1
   13bb0:	00c45413          	srli	s0,s0,0xc
   13bb4:	fff40413          	addi	s0,s0,-1
   13bb8:	00c41413          	slli	s0,s0,0xc
   13bbc:	00f44c63          	blt	s0,a5,13bd4 <_malloc_trim_r+0x6c>
   13bc0:	00000513          	li	a0,0
   13bc4:	66d040ef          	jal	18a30 <sbrk>
   13bc8:	01093783          	ld	a5,16(s2)
   13bcc:	009787b3          	add	a5,a5,s1
   13bd0:	02f50663          	beq	a0,a5,13bfc <_malloc_trim_r+0x94>
   13bd4:	00098513          	mv	a0,s3
   13bd8:	274010ef          	jal	14e4c <__malloc_unlock>
   13bdc:	02813083          	ld	ra,40(sp)
   13be0:	00000513          	li	a0,0
   13be4:	02013403          	ld	s0,32(sp)
   13be8:	01813483          	ld	s1,24(sp)
   13bec:	01013903          	ld	s2,16(sp)
   13bf0:	00813983          	ld	s3,8(sp)
   13bf4:	03010113          	addi	sp,sp,48
   13bf8:	00008067          	ret
   13bfc:	40800533          	neg	a0,s0
   13c00:	631040ef          	jal	18a30 <sbrk>
   13c04:	fff00793          	li	a5,-1
   13c08:	04f50463          	beq	a0,a5,13c50 <_malloc_trim_r+0xe8>
   13c0c:	9181a783          	lw	a5,-1768(gp) # 1d178 <__malloc_current_mallinfo>
   13c10:	01093683          	ld	a3,16(s2)
   13c14:	408484b3          	sub	s1,s1,s0
   13c18:	0014e493          	ori	s1,s1,1
   13c1c:	4087843b          	subw	s0,a5,s0
   13c20:	00098513          	mv	a0,s3
   13c24:	0096b423          	sd	s1,8(a3)
   13c28:	9081ac23          	sw	s0,-1768(gp) # 1d178 <__malloc_current_mallinfo>
   13c2c:	220010ef          	jal	14e4c <__malloc_unlock>
   13c30:	02813083          	ld	ra,40(sp)
   13c34:	00100513          	li	a0,1
   13c38:	02013403          	ld	s0,32(sp)
   13c3c:	01813483          	ld	s1,24(sp)
   13c40:	01013903          	ld	s2,16(sp)
   13c44:	00813983          	ld	s3,8(sp)
   13c48:	03010113          	addi	sp,sp,48
   13c4c:	00008067          	ret
   13c50:	00000513          	li	a0,0
   13c54:	5dd040ef          	jal	18a30 <sbrk>
   13c58:	01093703          	ld	a4,16(s2)
   13c5c:	01f00693          	li	a3,31
   13c60:	40e507b3          	sub	a5,a0,a4
   13c64:	f6f6d8e3          	ble	a5,a3,13bd4 <_malloc_trim_r+0x6c>
   13c68:	8201b683          	ld	a3,-2016(gp) # 1d080 <__malloc_sbrk_base>
   13c6c:	0017e793          	ori	a5,a5,1
   13c70:	00f73423          	sd	a5,8(a4)
   13c74:	40d50533          	sub	a0,a0,a3
   13c78:	90a1ac23          	sw	a0,-1768(gp) # 1d178 <__malloc_current_mallinfo>
   13c7c:	f59ff06f          	j	13bd4 <_malloc_trim_r+0x6c>

0000000000013c80 <_free_r>:
   13c80:	12058c63          	beqz	a1,13db8 <_free_r+0x138>
   13c84:	fe010113          	addi	sp,sp,-32
   13c88:	00813823          	sd	s0,16(sp)
   13c8c:	00058413          	mv	s0,a1
   13c90:	00913423          	sd	s1,8(sp)
   13c94:	00113c23          	sd	ra,24(sp)
   13c98:	00050493          	mv	s1,a0
   13c9c:	1ac010ef          	jal	14e48 <__malloc_lock>
   13ca0:	ff843503          	ld	a0,-8(s0)
   13ca4:	ff040613          	addi	a2,s0,-16
   13ca8:	0001d6b7          	lui	a3,0x1d
   13cac:	ffe57793          	andi	a5,a0,-2
   13cb0:	00f605b3          	add	a1,a2,a5
   13cb4:	85068693          	addi	a3,a3,-1968 # 1c850 <__malloc_av_>
   13cb8:	0085b703          	ld	a4,8(a1)
   13cbc:	0106b803          	ld	a6,16(a3)
   13cc0:	ffc77713          	andi	a4,a4,-4
   13cc4:	16b80663          	beq	a6,a1,13e30 <_free_r+0x1b0>
   13cc8:	03f51813          	slli	a6,a0,0x3f
   13ccc:	00e5b423          	sd	a4,8(a1)
   13cd0:	02084663          	bltz	a6,13cfc <_free_r+0x7c>
   13cd4:	ff043503          	ld	a0,-16(s0)
   13cd8:	40a60633          	sub	a2,a2,a0
   13cdc:	01063803          	ld	a6,16(a2)
   13ce0:	00a787b3          	add	a5,a5,a0
   13ce4:	0001d537          	lui	a0,0x1d
   13ce8:	86050513          	addi	a0,a0,-1952 # 1c860 <__malloc_av_+0x10>
   13cec:	18a80863          	beq	a6,a0,13e7c <_free_r+0x1fc>
   13cf0:	01863503          	ld	a0,24(a2)
   13cf4:	00a83c23          	sd	a0,24(a6) # 10018 <_ftext+0x18>
   13cf8:	01053823          	sd	a6,16(a0)
   13cfc:	00e58533          	add	a0,a1,a4
   13d00:	00853503          	ld	a0,8(a0)
   13d04:	03f51813          	slli	a6,a0,0x3f
   13d08:	02084c63          	bltz	a6,13d40 <_free_r+0xc0>
   13d0c:	0105b503          	ld	a0,16(a1)
   13d10:	00e787b3          	add	a5,a5,a4
   13d14:	0001d737          	lui	a4,0x1d
   13d18:	86070713          	addi	a4,a4,-1952 # 1c860 <__malloc_av_+0x10>
   13d1c:	1ee50663          	beq	a0,a4,13f08 <_free_r+0x288>
   13d20:	0185b803          	ld	a6,24(a1)
   13d24:	00f60733          	add	a4,a2,a5
   13d28:	0017e593          	ori	a1,a5,1
   13d2c:	01053c23          	sd	a6,24(a0)
   13d30:	00a83823          	sd	a0,16(a6)
   13d34:	00b63423          	sd	a1,8(a2)
   13d38:	00f73023          	sd	a5,0(a4)
   13d3c:	0140006f          	j	13d50 <_free_r+0xd0>
   13d40:	0017e593          	ori	a1,a5,1
   13d44:	00f60733          	add	a4,a2,a5
   13d48:	00b63423          	sd	a1,8(a2)
   13d4c:	00f73023          	sd	a5,0(a4)
   13d50:	1ff00713          	li	a4,511
   13d54:	06f76463          	bltu	a4,a5,13dbc <_free_r+0x13c>
   13d58:	0037d793          	srli	a5,a5,0x3
   13d5c:	0007879b          	sext.w	a5,a5
   13d60:	0017871b          	addiw	a4,a5,1
   13d64:	0017171b          	slliw	a4,a4,0x1
   13d68:	ffe70713          	addi	a4,a4,-2
   13d6c:	00371713          	slli	a4,a4,0x3
   13d70:	00e68733          	add	a4,a3,a4
   13d74:	0086b583          	ld	a1,8(a3)
   13d78:	01073803          	ld	a6,16(a4)
   13d7c:	4027d79b          	sraiw	a5,a5,0x2
   13d80:	00100513          	li	a0,1
   13d84:	00f517b3          	sll	a5,a0,a5
   13d88:	00b7e7b3          	or	a5,a5,a1
   13d8c:	00e63c23          	sd	a4,24(a2)
   13d90:	01063823          	sd	a6,16(a2)
   13d94:	00f6b423          	sd	a5,8(a3)
   13d98:	00c73823          	sd	a2,16(a4)
   13d9c:	00c83c23          	sd	a2,24(a6)
   13da0:	00048513          	mv	a0,s1
   13da4:	01813083          	ld	ra,24(sp)
   13da8:	01013403          	ld	s0,16(sp)
   13dac:	00813483          	ld	s1,8(sp)
   13db0:	02010113          	addi	sp,sp,32
   13db4:	0980106f          	j	14e4c <__malloc_unlock>
   13db8:	00008067          	ret
   13dbc:	0097d713          	srli	a4,a5,0x9
   13dc0:	00400593          	li	a1,4
   13dc4:	10e5e263          	bltu	a1,a4,13ec8 <_free_r+0x248>
   13dc8:	0067d713          	srli	a4,a5,0x6
   13dcc:	0007071b          	sext.w	a4,a4
   13dd0:	0397059b          	addiw	a1,a4,57
   13dd4:	0015959b          	slliw	a1,a1,0x1
   13dd8:	0387051b          	addiw	a0,a4,56
   13ddc:	ffe58593          	addi	a1,a1,-2
   13de0:	00359593          	slli	a1,a1,0x3
   13de4:	00b685b3          	add	a1,a3,a1
   13de8:	0105b703          	ld	a4,16(a1)
   13dec:	0eb70e63          	beq	a4,a1,13ee8 <_free_r+0x268>
   13df0:	00873683          	ld	a3,8(a4)
   13df4:	ffc6f693          	andi	a3,a3,-4
   13df8:	00d7f663          	bleu	a3,a5,13e04 <_free_r+0x184>
   13dfc:	01073703          	ld	a4,16(a4)
   13e00:	fee598e3          	bne	a1,a4,13df0 <_free_r+0x170>
   13e04:	01873783          	ld	a5,24(a4)
   13e08:	00048513          	mv	a0,s1
   13e0c:	01813083          	ld	ra,24(sp)
   13e10:	01013403          	ld	s0,16(sp)
   13e14:	00813483          	ld	s1,8(sp)
   13e18:	00f63c23          	sd	a5,24(a2)
   13e1c:	00e63823          	sd	a4,16(a2)
   13e20:	02010113          	addi	sp,sp,32
   13e24:	00c7b823          	sd	a2,16(a5)
   13e28:	00c73c23          	sd	a2,24(a4)
   13e2c:	0200106f          	j	14e4c <__malloc_unlock>
   13e30:	00f707b3          	add	a5,a4,a5
   13e34:	03f51713          	slli	a4,a0,0x3f
   13e38:	02074063          	bltz	a4,13e58 <_free_r+0x1d8>
   13e3c:	ff043503          	ld	a0,-16(s0)
   13e40:	40a60633          	sub	a2,a2,a0
   13e44:	01863703          	ld	a4,24(a2)
   13e48:	01063583          	ld	a1,16(a2)
   13e4c:	00a787b3          	add	a5,a5,a0
   13e50:	00e5bc23          	sd	a4,24(a1)
   13e54:	00b73823          	sd	a1,16(a4)
   13e58:	8281b703          	ld	a4,-2008(gp) # 1d088 <__malloc_trim_threshold>
   13e5c:	0017e593          	ori	a1,a5,1
   13e60:	00b63423          	sd	a1,8(a2)
   13e64:	00c6b823          	sd	a2,16(a3)
   13e68:	f2e7ece3          	bltu	a5,a4,13da0 <_free_r+0x120>
   13e6c:	8d01b583          	ld	a1,-1840(gp) # 1d130 <__malloc_top_pad>
   13e70:	00048513          	mv	a0,s1
   13e74:	cf5ff0ef          	jal	13b68 <_malloc_trim_r>
   13e78:	f29ff06f          	j	13da0 <_free_r+0x120>
   13e7c:	00e586b3          	add	a3,a1,a4
   13e80:	0086b683          	ld	a3,8(a3)
   13e84:	03f69513          	slli	a0,a3,0x3f
   13e88:	02054663          	bltz	a0,13eb4 <_free_r+0x234>
   13e8c:	0185b683          	ld	a3,24(a1)
   13e90:	0105b583          	ld	a1,16(a1)
   13e94:	00e787b3          	add	a5,a5,a4
   13e98:	0017e513          	ori	a0,a5,1
   13e9c:	00f60733          	add	a4,a2,a5
   13ea0:	00d5bc23          	sd	a3,24(a1)
   13ea4:	00b6b823          	sd	a1,16(a3)
   13ea8:	00a63423          	sd	a0,8(a2)
   13eac:	00f73023          	sd	a5,0(a4)
   13eb0:	ef1ff06f          	j	13da0 <_free_r+0x120>
   13eb4:	0017e693          	ori	a3,a5,1
   13eb8:	00f60733          	add	a4,a2,a5
   13ebc:	00d63423          	sd	a3,8(a2)
   13ec0:	00f73023          	sd	a5,0(a4)
   13ec4:	eddff06f          	j	13da0 <_free_r+0x120>
   13ec8:	01400593          	li	a1,20
   13ecc:	06e5e063          	bltu	a1,a4,13f2c <_free_r+0x2ac>
   13ed0:	0007071b          	sext.w	a4,a4
   13ed4:	05c7059b          	addiw	a1,a4,92
   13ed8:	0015959b          	slliw	a1,a1,0x1
   13edc:	05b7051b          	addiw	a0,a4,91
   13ee0:	ffe58593          	addi	a1,a1,-2
   13ee4:	efdff06f          	j	13de0 <_free_r+0x160>
   13ee8:	0086b783          	ld	a5,8(a3)
   13eec:	4025551b          	sraiw	a0,a0,0x2
   13ef0:	00100593          	li	a1,1
   13ef4:	00a59533          	sll	a0,a1,a0
   13ef8:	00f56533          	or	a0,a0,a5
   13efc:	00a6b423          	sd	a0,8(a3)
   13f00:	00070793          	mv	a5,a4
   13f04:	f05ff06f          	j	13e08 <_free_r+0x188>
   13f08:	0017e593          	ori	a1,a5,1
   13f0c:	00f60733          	add	a4,a2,a5
   13f10:	02c6b423          	sd	a2,40(a3)
   13f14:	02c6b023          	sd	a2,32(a3)
   13f18:	00a63c23          	sd	a0,24(a2)
   13f1c:	00a63823          	sd	a0,16(a2)
   13f20:	00b63423          	sd	a1,8(a2)
   13f24:	00f73023          	sd	a5,0(a4)
   13f28:	e79ff06f          	j	13da0 <_free_r+0x120>
   13f2c:	05400593          	li	a1,84
   13f30:	02e5e063          	bltu	a1,a4,13f50 <_free_r+0x2d0>
   13f34:	00c7d713          	srli	a4,a5,0xc
   13f38:	0007071b          	sext.w	a4,a4
   13f3c:	06f7059b          	addiw	a1,a4,111
   13f40:	0015959b          	slliw	a1,a1,0x1
   13f44:	06e7051b          	addiw	a0,a4,110
   13f48:	ffe58593          	addi	a1,a1,-2
   13f4c:	e95ff06f          	j	13de0 <_free_r+0x160>
   13f50:	15400593          	li	a1,340
   13f54:	02e5e063          	bltu	a1,a4,13f74 <_free_r+0x2f4>
   13f58:	00f7d713          	srli	a4,a5,0xf
   13f5c:	0007071b          	sext.w	a4,a4
   13f60:	0787059b          	addiw	a1,a4,120
   13f64:	0015959b          	slliw	a1,a1,0x1
   13f68:	0777051b          	addiw	a0,a4,119
   13f6c:	ffe58593          	addi	a1,a1,-2
   13f70:	e71ff06f          	j	13de0 <_free_r+0x160>
   13f74:	55400813          	li	a6,1364
   13f78:	0fc00593          	li	a1,252
   13f7c:	07e00513          	li	a0,126
   13f80:	e6e860e3          	bltu	a6,a4,13de0 <_free_r+0x160>
   13f84:	0127d713          	srli	a4,a5,0x12
   13f88:	0007071b          	sext.w	a4,a4
   13f8c:	07d7059b          	addiw	a1,a4,125
   13f90:	0015959b          	slliw	a1,a1,0x1
   13f94:	07c7051b          	addiw	a0,a4,124
   13f98:	ffe58593          	addi	a1,a1,-2
   13f9c:	e45ff06f          	j	13de0 <_free_r+0x160>

0000000000013fa0 <_fwalk>:
   13fa0:	fc010113          	addi	sp,sp,-64
   13fa4:	01313c23          	sd	s3,24(sp)
   13fa8:	52050993          	addi	s3,a0,1312
   13fac:	01413823          	sd	s4,16(sp)
   13fb0:	01513423          	sd	s5,8(sp)
   13fb4:	02113c23          	sd	ra,56(sp)
   13fb8:	02813823          	sd	s0,48(sp)
   13fbc:	02913423          	sd	s1,40(sp)
   13fc0:	03213023          	sd	s2,32(sp)
   13fc4:	00058a93          	mv	s5,a1
   13fc8:	00000a13          	li	s4,0
   13fcc:	b6dff0ef          	jal	13b38 <__sfp_lock_acquire>
   13fd0:	04098463          	beqz	s3,14018 <_fwalk+0x78>
   13fd4:	fff00913          	li	s2,-1
   13fd8:	0089a483          	lw	s1,8(s3)
   13fdc:	0109b403          	ld	s0,16(s3)
   13fe0:	fff4849b          	addiw	s1,s1,-1
   13fe4:	0204c663          	bltz	s1,14010 <_fwalk+0x70>
   13fe8:	01041783          	lh	a5,16(s0)
   13fec:	fff4849b          	addiw	s1,s1,-1
   13ff0:	00078c63          	beqz	a5,14008 <_fwalk+0x68>
   13ff4:	01241783          	lh	a5,18(s0)
   13ff8:	00040513          	mv	a0,s0
   13ffc:	01278663          	beq	a5,s2,14008 <_fwalk+0x68>
   14000:	000a80e7          	jalr	s5
   14004:	00aa6a33          	or	s4,s4,a0
   14008:	0a840413          	addi	s0,s0,168
   1400c:	fd249ee3          	bne	s1,s2,13fe8 <_fwalk+0x48>
   14010:	0009b983          	ld	s3,0(s3)
   14014:	fc0992e3          	bnez	s3,13fd8 <_fwalk+0x38>
   14018:	b25ff0ef          	jal	13b3c <__sfp_lock_release>
   1401c:	03813083          	ld	ra,56(sp)
   14020:	000a0513          	mv	a0,s4
   14024:	03013403          	ld	s0,48(sp)
   14028:	02813483          	ld	s1,40(sp)
   1402c:	02013903          	ld	s2,32(sp)
   14030:	01813983          	ld	s3,24(sp)
   14034:	01013a03          	ld	s4,16(sp)
   14038:	00813a83          	ld	s5,8(sp)
   1403c:	04010113          	addi	sp,sp,64
   14040:	00008067          	ret

0000000000014044 <_fwalk_reent>:
   14044:	fc010113          	addi	sp,sp,-64
   14048:	01313c23          	sd	s3,24(sp)
   1404c:	52050993          	addi	s3,a0,1312
   14050:	01413823          	sd	s4,16(sp)
   14054:	01513423          	sd	s5,8(sp)
   14058:	01613023          	sd	s6,0(sp)
   1405c:	02113c23          	sd	ra,56(sp)
   14060:	02813823          	sd	s0,48(sp)
   14064:	02913423          	sd	s1,40(sp)
   14068:	03213023          	sd	s2,32(sp)
   1406c:	00050a93          	mv	s5,a0
   14070:	00058b13          	mv	s6,a1
   14074:	00000a13          	li	s4,0
   14078:	ac1ff0ef          	jal	13b38 <__sfp_lock_acquire>
   1407c:	04098663          	beqz	s3,140c8 <_fwalk_reent+0x84>
   14080:	fff00913          	li	s2,-1
   14084:	0089a483          	lw	s1,8(s3)
   14088:	0109b403          	ld	s0,16(s3)
   1408c:	fff4849b          	addiw	s1,s1,-1
   14090:	0204c863          	bltz	s1,140c0 <_fwalk_reent+0x7c>
   14094:	01041783          	lh	a5,16(s0)
   14098:	fff4849b          	addiw	s1,s1,-1
   1409c:	00078e63          	beqz	a5,140b8 <_fwalk_reent+0x74>
   140a0:	01241783          	lh	a5,18(s0)
   140a4:	00040593          	mv	a1,s0
   140a8:	000a8513          	mv	a0,s5
   140ac:	01278663          	beq	a5,s2,140b8 <_fwalk_reent+0x74>
   140b0:	000b00e7          	jalr	s6
   140b4:	00aa6a33          	or	s4,s4,a0
   140b8:	0a840413          	addi	s0,s0,168
   140bc:	fd249ce3          	bne	s1,s2,14094 <_fwalk_reent+0x50>
   140c0:	0009b983          	ld	s3,0(s3)
   140c4:	fc0990e3          	bnez	s3,14084 <_fwalk_reent+0x40>
   140c8:	a75ff0ef          	jal	13b3c <__sfp_lock_release>
   140cc:	03813083          	ld	ra,56(sp)
   140d0:	000a0513          	mv	a0,s4
   140d4:	03013403          	ld	s0,48(sp)
   140d8:	02813483          	ld	s1,40(sp)
   140dc:	02013903          	ld	s2,32(sp)
   140e0:	01813983          	ld	s3,24(sp)
   140e4:	01013a03          	ld	s4,16(sp)
   140e8:	00813a83          	ld	s5,8(sp)
   140ec:	00013b03          	ld	s6,0(sp)
   140f0:	04010113          	addi	sp,sp,64
   140f4:	00008067          	ret

00000000000140f8 <_setlocale_r>:
   140f8:	fe010113          	addi	sp,sp,-32
   140fc:	00913423          	sd	s1,8(sp)
   14100:	00113c23          	sd	ra,24(sp)
   14104:	00813823          	sd	s0,16(sp)
   14108:	0001b4b7          	lui	s1,0x1b
   1410c:	02060063          	beqz	a2,1412c <_setlocale_r+0x34>
   14110:	0001b5b7          	lui	a1,0x1b
   14114:	00060513          	mv	a0,a2
   14118:	c6858593          	addi	a1,a1,-920 # 1ac68 <__clz_tab+0x180>
   1411c:	00060413          	mv	s0,a2
   14120:	735010ef          	jal	16054 <strcmp>
   14124:	0001b4b7          	lui	s1,0x1b
   14128:	00051e63          	bnez	a0,14144 <_setlocale_r+0x4c>
   1412c:	be848513          	addi	a0,s1,-1048 # 1abe8 <__clz_tab+0x100>
   14130:	01813083          	ld	ra,24(sp)
   14134:	01013403          	ld	s0,16(sp)
   14138:	00813483          	ld	s1,8(sp)
   1413c:	02010113          	addi	sp,sp,32
   14140:	00008067          	ret
   14144:	00040513          	mv	a0,s0
   14148:	be848593          	addi	a1,s1,-1048
   1414c:	709010ef          	jal	16054 <strcmp>
   14150:	fc050ee3          	beqz	a0,1412c <_setlocale_r+0x34>
   14154:	0001b5b7          	lui	a1,0x1b
   14158:	00040513          	mv	a0,s0
   1415c:	c2058593          	addi	a1,a1,-992 # 1ac20 <__clz_tab+0x138>
   14160:	6f5010ef          	jal	16054 <strcmp>
   14164:	fc0504e3          	beqz	a0,1412c <_setlocale_r+0x34>
   14168:	00000513          	li	a0,0
   1416c:	fc5ff06f          	j	14130 <_setlocale_r+0x38>

0000000000014170 <__locale_charset>:
   14170:	0001d537          	lui	a0,0x1d
   14174:	81050513          	addi	a0,a0,-2032 # 1c810 <lc_ctype_charset>
   14178:	00008067          	ret

000000000001417c <__locale_msgcharset>:
   1417c:	0001d537          	lui	a0,0x1d
   14180:	83050513          	addi	a0,a0,-2000 # 1c830 <lc_message_charset>
   14184:	00008067          	ret

0000000000014188 <__locale_cjk_lang>:
   14188:	00000513          	li	a0,0
   1418c:	00008067          	ret

0000000000014190 <_localeconv_r>:
   14190:	0001a537          	lui	a0,0x1a
   14194:	7b050513          	addi	a0,a0,1968 # 1a7b0 <lconv>
   14198:	00008067          	ret

000000000001419c <setlocale>:
   1419c:	00050793          	mv	a5,a0
   141a0:	8101b503          	ld	a0,-2032(gp) # 1d070 <_impure_ptr>
   141a4:	00058613          	mv	a2,a1
   141a8:	00078593          	mv	a1,a5
   141ac:	f4dff06f          	j	140f8 <_setlocale_r>

00000000000141b0 <localeconv>:
   141b0:	0001a537          	lui	a0,0x1a
   141b4:	7b050513          	addi	a0,a0,1968 # 1a7b0 <lconv>
   141b8:	00008067          	ret

00000000000141bc <__smakebuf_r>:
   141bc:	01059783          	lh	a5,16(a1)
   141c0:	f5010113          	addi	sp,sp,-176
   141c4:	08913c23          	sd	s1,152(sp)
   141c8:	03079493          	slli	s1,a5,0x30
   141cc:	0304d493          	srli	s1,s1,0x30
   141d0:	0024f713          	andi	a4,s1,2
   141d4:	0a113423          	sd	ra,168(sp)
   141d8:	0a813023          	sd	s0,160(sp)
   141dc:	09213823          	sd	s2,144(sp)
   141e0:	09313423          	sd	s3,136(sp)
   141e4:	0e071263          	bnez	a4,142c8 <__smakebuf_r+0x10c>
   141e8:	00050913          	mv	s2,a0
   141ec:	01259503          	lh	a0,18(a1)
   141f0:	00058413          	mv	s0,a1
   141f4:	04054c63          	bltz	a0,1424c <__smakebuf_r+0x90>
   141f8:	00010593          	mv	a1,sp
   141fc:	568040ef          	jal	18764 <fstat>
   14200:	04054063          	bltz	a0,14240 <__smakebuf_r+0x84>
   14204:	01012703          	lw	a4,16(sp)
   14208:	0000f7b7          	lui	a5,0xf
   1420c:	ffffe9b7          	lui	s3,0xffffe
   14210:	00f777b3          	and	a5,a4,a5
   14214:	013789bb          	addw	s3,a5,s3
   14218:	00008737          	lui	a4,0x8
   1421c:	0019b993          	seqz	s3,s3
   14220:	0ce78c63          	beq	a5,a4,142f8 <__smakebuf_r+0x13c>
   14224:	01045703          	lhu	a4,16(s0)
   14228:	000017b7          	lui	a5,0x1
   1422c:	8007879b          	addiw	a5,a5,-2048
   14230:	00f767b3          	or	a5,a4,a5
   14234:	00f41823          	sh	a5,16(s0)
   14238:	40000493          	li	s1,1024
   1423c:	0380006f          	j	14274 <__smakebuf_r+0xb8>
   14240:	01041783          	lh	a5,16(s0)
   14244:	03079493          	slli	s1,a5,0x30
   14248:	0304d493          	srli	s1,s1,0x30
   1424c:	0804f493          	andi	s1,s1,128
   14250:	0014b493          	seqz	s1,s1
   14254:	00001737          	lui	a4,0x1
   14258:	409004b3          	neg	s1,s1
   1425c:	8007071b          	addiw	a4,a4,-2048
   14260:	3c04f493          	andi	s1,s1,960
   14264:	00e7e7b3          	or	a5,a5,a4
   14268:	04048493          	addi	s1,s1,64
   1426c:	00f41823          	sh	a5,16(s0)
   14270:	00000993          	li	s3,0
   14274:	00090513          	mv	a0,s2
   14278:	00048593          	mv	a1,s1
   1427c:	0f0000ef          	jal	1436c <_malloc_r>
   14280:	0c050063          	beqz	a0,14340 <__smakebuf_r+0x184>
   14284:	01045783          	lhu	a5,16(s0)
   14288:	00014737          	lui	a4,0x14
   1428c:	80470713          	addi	a4,a4,-2044 # 13804 <_cleanup_r>
   14290:	0807e793          	ori	a5,a5,128
   14294:	04e93c23          	sd	a4,88(s2)
   14298:	00f41823          	sh	a5,16(s0)
   1429c:	00a43023          	sd	a0,0(s0)
   142a0:	00a43c23          	sd	a0,24(s0)
   142a4:	02942023          	sw	s1,32(s0)
   142a8:	06099e63          	bnez	s3,14324 <__smakebuf_r+0x168>
   142ac:	0a813083          	ld	ra,168(sp)
   142b0:	0a013403          	ld	s0,160(sp)
   142b4:	09813483          	ld	s1,152(sp)
   142b8:	09013903          	ld	s2,144(sp)
   142bc:	08813983          	ld	s3,136(sp)
   142c0:	0b010113          	addi	sp,sp,176
   142c4:	00008067          	ret
   142c8:	0a813083          	ld	ra,168(sp)
   142cc:	07758793          	addi	a5,a1,119
   142d0:	00f5b023          	sd	a5,0(a1)
   142d4:	00f5bc23          	sd	a5,24(a1)
   142d8:	00100793          	li	a5,1
   142dc:	0a013403          	ld	s0,160(sp)
   142e0:	09813483          	ld	s1,152(sp)
   142e4:	09013903          	ld	s2,144(sp)
   142e8:	08813983          	ld	s3,136(sp)
   142ec:	02f5a023          	sw	a5,32(a1)
   142f0:	0b010113          	addi	sp,sp,176
   142f4:	00008067          	ret
   142f8:	04843703          	ld	a4,72(s0)
   142fc:	000167b7          	lui	a5,0x16
   14300:	fe078793          	addi	a5,a5,-32 # 15fe0 <__sseek>
   14304:	f2f710e3          	bne	a4,a5,14224 <__smakebuf_r+0x68>
   14308:	01045783          	lhu	a5,16(s0)
   1430c:	40000713          	li	a4,1024
   14310:	08e42423          	sw	a4,136(s0)
   14314:	00e7e7b3          	or	a5,a5,a4
   14318:	00f41823          	sh	a5,16(s0)
   1431c:	40000493          	li	s1,1024
   14320:	f55ff06f          	j	14274 <__smakebuf_r+0xb8>
   14324:	01241503          	lh	a0,18(s0)
   14328:	5c8040ef          	jal	188f0 <isatty>
   1432c:	f80500e3          	beqz	a0,142ac <__smakebuf_r+0xf0>
   14330:	01045783          	lhu	a5,16(s0)
   14334:	0017e793          	ori	a5,a5,1
   14338:	00f41823          	sh	a5,16(s0)
   1433c:	f71ff06f          	j	142ac <__smakebuf_r+0xf0>
   14340:	01041783          	lh	a5,16(s0)
   14344:	2007f713          	andi	a4,a5,512
   14348:	f60712e3          	bnez	a4,142ac <__smakebuf_r+0xf0>
   1434c:	0027e793          	ori	a5,a5,2
   14350:	07740713          	addi	a4,s0,119
   14354:	00f41823          	sh	a5,16(s0)
   14358:	00100793          	li	a5,1
   1435c:	00e43023          	sd	a4,0(s0)
   14360:	00e43c23          	sd	a4,24(s0)
   14364:	02f42023          	sw	a5,32(s0)
   14368:	f45ff06f          	j	142ac <__smakebuf_r+0xf0>

000000000001436c <_malloc_r>:
   1436c:	fa010113          	addi	sp,sp,-96
   14370:	04913423          	sd	s1,72(sp)
   14374:	02e00793          	li	a5,46
   14378:	01758493          	addi	s1,a1,23
   1437c:	05213023          	sd	s2,64(sp)
   14380:	04113c23          	sd	ra,88(sp)
   14384:	04813823          	sd	s0,80(sp)
   14388:	03313c23          	sd	s3,56(sp)
   1438c:	03413823          	sd	s4,48(sp)
   14390:	03513423          	sd	s5,40(sp)
   14394:	03613023          	sd	s6,32(sp)
   14398:	01713c23          	sd	s7,24(sp)
   1439c:	01813823          	sd	s8,16(sp)
   143a0:	01913423          	sd	s9,8(sp)
   143a4:	00050913          	mv	s2,a0
   143a8:	0a97fc63          	bleu	s1,a5,14460 <_malloc_r+0xf4>
   143ac:	800007b7          	lui	a5,0x80000
   143b0:	ff04f493          	andi	s1,s1,-16
   143b4:	fff7c793          	not	a5,a5
   143b8:	2697e263          	bltu	a5,s1,1461c <_malloc_r+0x2b0>
   143bc:	26b4e063          	bltu	s1,a1,1461c <_malloc_r+0x2b0>
   143c0:	289000ef          	jal	14e48 <__malloc_lock>
   143c4:	1f700793          	li	a5,503
   143c8:	0a97e463          	bltu	a5,s1,14470 <_malloc_r+0x104>
   143cc:	0034d693          	srli	a3,s1,0x3
   143d0:	0006869b          	sext.w	a3,a3
   143d4:	0016879b          	addiw	a5,a3,1
   143d8:	0017979b          	slliw	a5,a5,0x1
   143dc:	0001d9b7          	lui	s3,0x1d
   143e0:	ffe78793          	addi	a5,a5,-2 # ffffffff7ffffffe <_gp+0xffffffff7ffe279e>
   143e4:	85098993          	addi	s3,s3,-1968 # 1c850 <__malloc_av_>
   143e8:	00379793          	slli	a5,a5,0x3
   143ec:	00f987b3          	add	a5,s3,a5
   143f0:	0187b403          	ld	s0,24(a5)
   143f4:	52f40a63          	beq	s0,a5,14928 <_malloc_r+0x5bc>
   143f8:	00843783          	ld	a5,8(s0)
   143fc:	01843683          	ld	a3,24(s0)
   14400:	01043603          	ld	a2,16(s0)
   14404:	ffc7f793          	andi	a5,a5,-4
   14408:	00f407b3          	add	a5,s0,a5
   1440c:	0087b703          	ld	a4,8(a5)
   14410:	00090513          	mv	a0,s2
   14414:	00d63c23          	sd	a3,24(a2)
   14418:	00176713          	ori	a4,a4,1
   1441c:	00c6b823          	sd	a2,16(a3)
   14420:	00e7b423          	sd	a4,8(a5)
   14424:	229000ef          	jal	14e4c <__malloc_unlock>
   14428:	01040513          	addi	a0,s0,16
   1442c:	05813083          	ld	ra,88(sp)
   14430:	05013403          	ld	s0,80(sp)
   14434:	04813483          	ld	s1,72(sp)
   14438:	04013903          	ld	s2,64(sp)
   1443c:	03813983          	ld	s3,56(sp)
   14440:	03013a03          	ld	s4,48(sp)
   14444:	02813a83          	ld	s5,40(sp)
   14448:	02013b03          	ld	s6,32(sp)
   1444c:	01813b83          	ld	s7,24(sp)
   14450:	01013c03          	ld	s8,16(sp)
   14454:	00813c83          	ld	s9,8(sp)
   14458:	06010113          	addi	sp,sp,96
   1445c:	00008067          	ret
   14460:	02000493          	li	s1,32
   14464:	1ab4ec63          	bltu	s1,a1,1461c <_malloc_r+0x2b0>
   14468:	1e1000ef          	jal	14e48 <__malloc_lock>
   1446c:	f61ff06f          	j	143cc <_malloc_r+0x60>
   14470:	0094d793          	srli	a5,s1,0x9
   14474:	07e00693          	li	a3,126
   14478:	04000513          	li	a0,64
   1447c:	03f00593          	li	a1,63
   14480:	1a079663          	bnez	a5,1462c <_malloc_r+0x2c0>
   14484:	0001d9b7          	lui	s3,0x1d
   14488:	85098993          	addi	s3,s3,-1968 # 1c850 <__malloc_av_>
   1448c:	00369693          	slli	a3,a3,0x3
   14490:	00d986b3          	add	a3,s3,a3
   14494:	0186b403          	ld	s0,24(a3)
   14498:	1a868c63          	beq	a3,s0,14650 <_malloc_r+0x2e4>
   1449c:	00843783          	ld	a5,8(s0)
   144a0:	01f00613          	li	a2,31
   144a4:	ffc7f793          	andi	a5,a5,-4
   144a8:	40978733          	sub	a4,a5,s1
   144ac:	02e64063          	blt	a2,a4,144cc <_malloc_r+0x160>
   144b0:	1a075463          	bgez	a4,14658 <_malloc_r+0x2ec>
   144b4:	01843403          	ld	s0,24(s0)
   144b8:	18868c63          	beq	a3,s0,14650 <_malloc_r+0x2e4>
   144bc:	00843783          	ld	a5,8(s0)
   144c0:	ffc7f793          	andi	a5,a5,-4
   144c4:	40978733          	sub	a4,a5,s1
   144c8:	fee654e3          	ble	a4,a2,144b0 <_malloc_r+0x144>
   144cc:	00058693          	mv	a3,a1
   144d0:	0209b403          	ld	s0,32(s3)
   144d4:	01098813          	addi	a6,s3,16
   144d8:	43040a63          	beq	s0,a6,1490c <_malloc_r+0x5a0>
   144dc:	00843783          	ld	a5,8(s0)
   144e0:	01f00613          	li	a2,31
   144e4:	ffc7f793          	andi	a5,a5,-4
   144e8:	40978733          	sub	a4,a5,s1
   144ec:	3ee64263          	blt	a2,a4,148d0 <_malloc_r+0x564>
   144f0:	0309b423          	sd	a6,40(s3)
   144f4:	0309b023          	sd	a6,32(s3)
   144f8:	18075863          	bgez	a4,14688 <_malloc_r+0x31c>
   144fc:	1ff00713          	li	a4,511
   14500:	36f76663          	bltu	a4,a5,1486c <_malloc_r+0x500>
   14504:	0037d793          	srli	a5,a5,0x3
   14508:	0007879b          	sext.w	a5,a5
   1450c:	0017861b          	addiw	a2,a5,1
   14510:	0016161b          	slliw	a2,a2,0x1
   14514:	ffe60613          	addi	a2,a2,-2
   14518:	00361613          	slli	a2,a2,0x3
   1451c:	00c98633          	add	a2,s3,a2
   14520:	0089b703          	ld	a4,8(s3)
   14524:	01063503          	ld	a0,16(a2)
   14528:	4027d79b          	sraiw	a5,a5,0x2
   1452c:	00100593          	li	a1,1
   14530:	00f597b3          	sll	a5,a1,a5
   14534:	00e7e7b3          	or	a5,a5,a4
   14538:	00c43c23          	sd	a2,24(s0)
   1453c:	00a43823          	sd	a0,16(s0)
   14540:	00f9b423          	sd	a5,8(s3)
   14544:	00863823          	sd	s0,16(a2)
   14548:	00853c23          	sd	s0,24(a0)
   1454c:	4026d61b          	sraiw	a2,a3,0x2
   14550:	00100713          	li	a4,1
   14554:	00c71633          	sll	a2,a4,a2
   14558:	14c7e863          	bltu	a5,a2,146a8 <_malloc_r+0x33c>
   1455c:	00c7f733          	and	a4,a5,a2
   14560:	02071463          	bnez	a4,14588 <_malloc_r+0x21c>
   14564:	00161613          	slli	a2,a2,0x1
   14568:	ffc6f693          	andi	a3,a3,-4
   1456c:	00c7f733          	and	a4,a5,a2
   14570:	0046869b          	addiw	a3,a3,4
   14574:	00071a63          	bnez	a4,14588 <_malloc_r+0x21c>
   14578:	00161613          	slli	a2,a2,0x1
   1457c:	00c7f733          	and	a4,a5,a2
   14580:	0046869b          	addiw	a3,a3,4
   14584:	fe070ae3          	beqz	a4,14578 <_malloc_r+0x20c>
   14588:	01f00513          	li	a0,31
   1458c:	0016889b          	addiw	a7,a3,1
   14590:	0018989b          	slliw	a7,a7,0x1
   14594:	ffe88893          	addi	a7,a7,-2
   14598:	00389893          	slli	a7,a7,0x3
   1459c:	011988b3          	add	a7,s3,a7
   145a0:	00088593          	mv	a1,a7
   145a4:	00068293          	mv	t0,a3
   145a8:	0185b403          	ld	s0,24(a1)
   145ac:	00859a63          	bne	a1,s0,145c0 <_malloc_r+0x254>
   145b0:	3640006f          	j	14914 <_malloc_r+0x5a8>
   145b4:	38075463          	bgez	a4,1493c <_malloc_r+0x5d0>
   145b8:	01843403          	ld	s0,24(s0)
   145bc:	34858c63          	beq	a1,s0,14914 <_malloc_r+0x5a8>
   145c0:	00843783          	ld	a5,8(s0)
   145c4:	ffc7f793          	andi	a5,a5,-4
   145c8:	40978733          	sub	a4,a5,s1
   145cc:	fee554e3          	ble	a4,a0,145b4 <_malloc_r+0x248>
   145d0:	01843683          	ld	a3,24(s0)
   145d4:	01043603          	ld	a2,16(s0)
   145d8:	009407b3          	add	a5,s0,s1
   145dc:	00176893          	ori	a7,a4,1
   145e0:	00e785b3          	add	a1,a5,a4
   145e4:	0014e493          	ori	s1,s1,1
   145e8:	00943423          	sd	s1,8(s0)
   145ec:	00090513          	mv	a0,s2
   145f0:	00d63c23          	sd	a3,24(a2)
   145f4:	00c6b823          	sd	a2,16(a3)
   145f8:	02f9b423          	sd	a5,40(s3)
   145fc:	02f9b023          	sd	a5,32(s3)
   14600:	0107bc23          	sd	a6,24(a5)
   14604:	0107b823          	sd	a6,16(a5)
   14608:	0117b423          	sd	a7,8(a5)
   1460c:	00e5b023          	sd	a4,0(a1)
   14610:	03d000ef          	jal	14e4c <__malloc_unlock>
   14614:	01040513          	addi	a0,s0,16
   14618:	e15ff06f          	j	1442c <_malloc_r+0xc0>
   1461c:	00c00793          	li	a5,12
   14620:	00f92023          	sw	a5,0(s2)
   14624:	00000513          	li	a0,0
   14628:	e05ff06f          	j	1442c <_malloc_r+0xc0>
   1462c:	00400713          	li	a4,4
   14630:	20f76863          	bltu	a4,a5,14840 <_malloc_r+0x4d4>
   14634:	0064d593          	srli	a1,s1,0x6
   14638:	0005859b          	sext.w	a1,a1
   1463c:	0395851b          	addiw	a0,a1,57
   14640:	0015169b          	slliw	a3,a0,0x1
   14644:	0385859b          	addiw	a1,a1,56
   14648:	ffe68693          	addi	a3,a3,-2
   1464c:	e39ff06f          	j	14484 <_malloc_r+0x118>
   14650:	00050693          	mv	a3,a0
   14654:	e7dff06f          	j	144d0 <_malloc_r+0x164>
   14658:	00f407b3          	add	a5,s0,a5
   1465c:	0087b703          	ld	a4,8(a5)
   14660:	01843683          	ld	a3,24(s0)
   14664:	01043603          	ld	a2,16(s0)
   14668:	00176713          	ori	a4,a4,1
   1466c:	00090513          	mv	a0,s2
   14670:	00d63c23          	sd	a3,24(a2)
   14674:	00c6b823          	sd	a2,16(a3)
   14678:	00e7b423          	sd	a4,8(a5)
   1467c:	7d0000ef          	jal	14e4c <__malloc_unlock>
   14680:	01040513          	addi	a0,s0,16
   14684:	da9ff06f          	j	1442c <_malloc_r+0xc0>
   14688:	00f407b3          	add	a5,s0,a5
   1468c:	0087b703          	ld	a4,8(a5)
   14690:	00090513          	mv	a0,s2
   14694:	00176713          	ori	a4,a4,1
   14698:	00e7b423          	sd	a4,8(a5)
   1469c:	7b0000ef          	jal	14e4c <__malloc_unlock>
   146a0:	01040513          	addi	a0,s0,16
   146a4:	d89ff06f          	j	1442c <_malloc_r+0xc0>
   146a8:	0109b403          	ld	s0,16(s3)
   146ac:	00843b03          	ld	s6,8(s0)
   146b0:	ffcb7b93          	andi	s7,s6,-4
   146b4:	009be863          	bltu	s7,s1,146c4 <_malloc_r+0x358>
   146b8:	409b87b3          	sub	a5,s7,s1
   146bc:	01f00713          	li	a4,31
   146c0:	14f74c63          	blt	a4,a5,14818 <_malloc_r+0x4ac>
   146c4:	8d01b783          	ld	a5,-1840(gp) # 1d130 <__malloc_top_pad>
   146c8:	8201b683          	ld	a3,-2016(gp) # 1d080 <__malloc_sbrk_base>
   146cc:	fff00713          	li	a4,-1
   146d0:	00f487b3          	add	a5,s1,a5
   146d4:	01740a33          	add	s4,s0,s7
   146d8:	02078b13          	addi	s6,a5,32
   146dc:	00e68c63          	beq	a3,a4,146f4 <_malloc_r+0x388>
   146e0:	000016b7          	lui	a3,0x1
   146e4:	01f68b13          	addi	s6,a3,31 # 101f <_ftext-0xefe1>
   146e8:	016786b3          	add	a3,a5,s6
   146ec:	fffff7b7          	lui	a5,0xfffff
   146f0:	00f6fb33          	and	s6,a3,a5
   146f4:	000b0513          	mv	a0,s6
   146f8:	338040ef          	jal	18a30 <sbrk>
   146fc:	fff00793          	li	a5,-1
   14700:	00050a93          	mv	s5,a0
   14704:	2af50263          	beq	a0,a5,149a8 <_malloc_r+0x63c>
   14708:	29456e63          	bltu	a0,s4,149a4 <_malloc_r+0x638>
   1470c:	91818c13          	addi	s8,gp,-1768 # 1d178 <__malloc_current_mallinfo>
   14710:	000c2783          	lw	a5,0(s8)
   14714:	00fb07bb          	addw	a5,s6,a5
   14718:	00fc2023          	sw	a5,0(s8)
   1471c:	395a0e63          	beq	s4,s5,14ab8 <_malloc_r+0x74c>
   14720:	8201b683          	ld	a3,-2016(gp) # 1d080 <__malloc_sbrk_base>
   14724:	fff00713          	li	a4,-1
   14728:	3ce68663          	beq	a3,a4,14af4 <_malloc_r+0x788>
   1472c:	414a8a33          	sub	s4,s5,s4
   14730:	00fa07bb          	addw	a5,s4,a5
   14734:	00fc2023          	sw	a5,0(s8)
   14738:	00faf713          	andi	a4,s5,15
   1473c:	000017b7          	lui	a5,0x1
   14740:	00070a63          	beqz	a4,14754 <_malloc_r+0x3e8>
   14744:	40ea8ab3          	sub	s5,s5,a4
   14748:	01078a13          	addi	s4,a5,16 # 1010 <_ftext-0xeff0>
   1474c:	010a8a93          	addi	s5,s5,16
   14750:	40ea07b3          	sub	a5,s4,a4
   14754:	00001a37          	lui	s4,0x1
   14758:	fffa0a13          	addi	s4,s4,-1 # fff <_ftext-0xf001>
   1475c:	016a8b33          	add	s6,s5,s6
   14760:	014b7b33          	and	s6,s6,s4
   14764:	41678a33          	sub	s4,a5,s6
   14768:	000a0513          	mv	a0,s4
   1476c:	2c4040ef          	jal	18a30 <sbrk>
   14770:	fff00793          	li	a5,-1
   14774:	36f50a63          	beq	a0,a5,14ae8 <_malloc_r+0x77c>
   14778:	41550733          	sub	a4,a0,s5
   1477c:	00ea0733          	add	a4,s4,a4
   14780:	00176713          	ori	a4,a4,1
   14784:	000a0a1b          	sext.w	s4,s4
   14788:	000c2783          	lw	a5,0(s8)
   1478c:	0159b823          	sd	s5,16(s3)
   14790:	00eab423          	sd	a4,8(s5)
   14794:	00fa07bb          	addw	a5,s4,a5
   14798:	00fc2023          	sw	a5,0(s8)
   1479c:	03340c63          	beq	s0,s3,147d4 <_malloc_r+0x468>
   147a0:	01f00613          	li	a2,31
   147a4:	29767663          	bleu	s7,a2,14a30 <_malloc_r+0x6c4>
   147a8:	fe8b8713          	addi	a4,s7,-24
   147ac:	ff077713          	andi	a4,a4,-16
   147b0:	00e406b3          	add	a3,s0,a4
   147b4:	00900593          	li	a1,9
   147b8:	00b6b423          	sd	a1,8(a3)
   147bc:	00b6b823          	sd	a1,16(a3)
   147c0:	00843683          	ld	a3,8(s0)
   147c4:	0016f693          	andi	a3,a3,1
   147c8:	00d766b3          	or	a3,a4,a3
   147cc:	00d43423          	sd	a3,8(s0)
   147d0:	30e66263          	bltu	a2,a4,14ad4 <_malloc_r+0x768>
   147d4:	8c81b683          	ld	a3,-1848(gp) # 1d128 <__malloc_max_sbrked_mem>
   147d8:	00f6f463          	bleu	a5,a3,147e0 <_malloc_r+0x474>
   147dc:	8cf1b423          	sd	a5,-1848(gp) # 1d128 <__malloc_max_sbrked_mem>
   147e0:	8c01b683          	ld	a3,-1856(gp) # 1d120 <__malloc_max_total_mem>
   147e4:	0109b403          	ld	s0,16(s3)
   147e8:	00f6f463          	bleu	a5,a3,147f0 <_malloc_r+0x484>
   147ec:	8cf1b023          	sd	a5,-1856(gp) # 1d120 <__malloc_max_total_mem>
   147f0:	00843703          	ld	a4,8(s0)
   147f4:	ffc77713          	andi	a4,a4,-4
   147f8:	409707b3          	sub	a5,a4,s1
   147fc:	00976663          	bltu	a4,s1,14808 <_malloc_r+0x49c>
   14800:	01f00713          	li	a4,31
   14804:	00f74a63          	blt	a4,a5,14818 <_malloc_r+0x4ac>
   14808:	00090513          	mv	a0,s2
   1480c:	640000ef          	jal	14e4c <__malloc_unlock>
   14810:	00000513          	li	a0,0
   14814:	c19ff06f          	j	1442c <_malloc_r+0xc0>
   14818:	00940733          	add	a4,s0,s1
   1481c:	0017e793          	ori	a5,a5,1
   14820:	0014e493          	ori	s1,s1,1
   14824:	00943423          	sd	s1,8(s0)
   14828:	00090513          	mv	a0,s2
   1482c:	00e9b823          	sd	a4,16(s3)
   14830:	00f73423          	sd	a5,8(a4)
   14834:	618000ef          	jal	14e4c <__malloc_unlock>
   14838:	01040513          	addi	a0,s0,16
   1483c:	bf1ff06f          	j	1442c <_malloc_r+0xc0>
   14840:	01400713          	li	a4,20
   14844:	12f77463          	bleu	a5,a4,1496c <_malloc_r+0x600>
   14848:	05400713          	li	a4,84
   1484c:	1cf76063          	bltu	a4,a5,14a0c <_malloc_r+0x6a0>
   14850:	00c4d593          	srli	a1,s1,0xc
   14854:	0005859b          	sext.w	a1,a1
   14858:	06f5851b          	addiw	a0,a1,111
   1485c:	0015169b          	slliw	a3,a0,0x1
   14860:	06e5859b          	addiw	a1,a1,110
   14864:	ffe68693          	addi	a3,a3,-2
   14868:	c1dff06f          	j	14484 <_malloc_r+0x118>
   1486c:	0097d713          	srli	a4,a5,0x9
   14870:	00400613          	li	a2,4
   14874:	10e66863          	bltu	a2,a4,14984 <_malloc_r+0x618>
   14878:	0067d713          	srli	a4,a5,0x6
   1487c:	0007071b          	sext.w	a4,a4
   14880:	0397059b          	addiw	a1,a4,57
   14884:	0015959b          	slliw	a1,a1,0x1
   14888:	0387051b          	addiw	a0,a4,56
   1488c:	ffe58593          	addi	a1,a1,-2
   14890:	00359593          	slli	a1,a1,0x3
   14894:	00b985b3          	add	a1,s3,a1
   14898:	0105b703          	ld	a4,16(a1)
   1489c:	1ab70463          	beq	a4,a1,14a44 <_malloc_r+0x6d8>
   148a0:	00873603          	ld	a2,8(a4)
   148a4:	ffc67613          	andi	a2,a2,-4
   148a8:	00c7f663          	bleu	a2,a5,148b4 <_malloc_r+0x548>
   148ac:	01073703          	ld	a4,16(a4)
   148b0:	fee598e3          	bne	a1,a4,148a0 <_malloc_r+0x534>
   148b4:	01873603          	ld	a2,24(a4)
   148b8:	0089b783          	ld	a5,8(s3)
   148bc:	00c43c23          	sd	a2,24(s0)
   148c0:	00e43823          	sd	a4,16(s0)
   148c4:	00863823          	sd	s0,16(a2)
   148c8:	00873c23          	sd	s0,24(a4)
   148cc:	c81ff06f          	j	1454c <_malloc_r+0x1e0>
   148d0:	009407b3          	add	a5,s0,s1
   148d4:	00176613          	ori	a2,a4,1
   148d8:	00e786b3          	add	a3,a5,a4
   148dc:	0014e493          	ori	s1,s1,1
   148e0:	00943423          	sd	s1,8(s0)
   148e4:	00090513          	mv	a0,s2
   148e8:	02f9b423          	sd	a5,40(s3)
   148ec:	02f9b023          	sd	a5,32(s3)
   148f0:	0107bc23          	sd	a6,24(a5)
   148f4:	0107b823          	sd	a6,16(a5)
   148f8:	00c7b423          	sd	a2,8(a5)
   148fc:	00e6b023          	sd	a4,0(a3)
   14900:	54c000ef          	jal	14e4c <__malloc_unlock>
   14904:	01040513          	addi	a0,s0,16
   14908:	b25ff06f          	j	1442c <_malloc_r+0xc0>
   1490c:	0089b783          	ld	a5,8(s3)
   14910:	c3dff06f          	j	1454c <_malloc_r+0x1e0>
   14914:	0012829b          	addiw	t0,t0,1
   14918:	03e29713          	slli	a4,t0,0x3e
   1491c:	01058593          	addi	a1,a1,16
   14920:	c80714e3          	bnez	a4,145a8 <_malloc_r+0x23c>
   14924:	0a00006f          	j	149c4 <_malloc_r+0x658>
   14928:	01040793          	addi	a5,s0,16
   1492c:	02843403          	ld	s0,40(s0)
   14930:	0026869b          	addiw	a3,a3,2
   14934:	b8878ee3          	beq	a5,s0,144d0 <_malloc_r+0x164>
   14938:	ac1ff06f          	j	143f8 <_malloc_r+0x8c>
   1493c:	00f407b3          	add	a5,s0,a5
   14940:	0087b703          	ld	a4,8(a5)
   14944:	01843683          	ld	a3,24(s0)
   14948:	01043603          	ld	a2,16(s0)
   1494c:	00176713          	ori	a4,a4,1
   14950:	00e7b423          	sd	a4,8(a5)
   14954:	00090513          	mv	a0,s2
   14958:	00d63c23          	sd	a3,24(a2)
   1495c:	00c6b823          	sd	a2,16(a3)
   14960:	4ec000ef          	jal	14e4c <__malloc_unlock>
   14964:	01040513          	addi	a0,s0,16
   14968:	ac5ff06f          	j	1442c <_malloc_r+0xc0>
   1496c:	0007859b          	sext.w	a1,a5
   14970:	05c5851b          	addiw	a0,a1,92
   14974:	0015169b          	slliw	a3,a0,0x1
   14978:	05b5859b          	addiw	a1,a1,91
   1497c:	ffe68693          	addi	a3,a3,-2
   14980:	b05ff06f          	j	14484 <_malloc_r+0x118>
   14984:	01400613          	li	a2,20
   14988:	10e66663          	bltu	a2,a4,14a94 <_malloc_r+0x728>
   1498c:	0007071b          	sext.w	a4,a4
   14990:	05c7059b          	addiw	a1,a4,92
   14994:	0015959b          	slliw	a1,a1,0x1
   14998:	05b7051b          	addiw	a0,a4,91
   1499c:	ffe58593          	addi	a1,a1,-2
   149a0:	ef1ff06f          	j	14890 <_malloc_r+0x524>
   149a4:	d73404e3          	beq	s0,s3,1470c <_malloc_r+0x3a0>
   149a8:	0109b403          	ld	s0,16(s3)
   149ac:	00843703          	ld	a4,8(s0)
   149b0:	ffc77713          	andi	a4,a4,-4
   149b4:	e45ff06f          	j	147f8 <_malloc_r+0x48c>
   149b8:	0008b883          	ld	a7,0(a7)
   149bc:	fff6869b          	addiw	a3,a3,-1
   149c0:	18f89663          	bne	a7,a5,14b4c <_malloc_r+0x7e0>
   149c4:	03e69713          	slli	a4,a3,0x3e
   149c8:	ff088793          	addi	a5,a7,-16
   149cc:	fe0716e3          	bnez	a4,149b8 <_malloc_r+0x64c>
   149d0:	0089b783          	ld	a5,8(s3)
   149d4:	fff64713          	not	a4,a2
   149d8:	00f777b3          	and	a5,a4,a5
   149dc:	00f9b423          	sd	a5,8(s3)
   149e0:	00161613          	slli	a2,a2,0x1
   149e4:	ccc7e2e3          	bltu	a5,a2,146a8 <_malloc_r+0x33c>
   149e8:	cc0600e3          	beqz	a2,146a8 <_malloc_r+0x33c>
   149ec:	00c7f733          	and	a4,a5,a2
   149f0:	00028693          	mv	a3,t0
   149f4:	b8071ce3          	bnez	a4,1458c <_malloc_r+0x220>
   149f8:	00161613          	slli	a2,a2,0x1
   149fc:	00c7f733          	and	a4,a5,a2
   14a00:	0046869b          	addiw	a3,a3,4
   14a04:	fe070ae3          	beqz	a4,149f8 <_malloc_r+0x68c>
   14a08:	b85ff06f          	j	1458c <_malloc_r+0x220>
   14a0c:	15400713          	li	a4,340
   14a10:	04f76a63          	bltu	a4,a5,14a64 <_malloc_r+0x6f8>
   14a14:	00f4d593          	srli	a1,s1,0xf
   14a18:	0005859b          	sext.w	a1,a1
   14a1c:	0785851b          	addiw	a0,a1,120
   14a20:	0015169b          	slliw	a3,a0,0x1
   14a24:	0775859b          	addiw	a1,a1,119
   14a28:	ffe68693          	addi	a3,a3,-2
   14a2c:	a59ff06f          	j	14484 <_malloc_r+0x118>
   14a30:	00100793          	li	a5,1
   14a34:	00fab423          	sd	a5,8(s5)
   14a38:	000a8413          	mv	s0,s5
   14a3c:	00000713          	li	a4,0
   14a40:	db9ff06f          	j	147f8 <_malloc_r+0x48c>
   14a44:	0089b603          	ld	a2,8(s3)
   14a48:	00100793          	li	a5,1
   14a4c:	4025551b          	sraiw	a0,a0,0x2
   14a50:	00a79533          	sll	a0,a5,a0
   14a54:	00c567b3          	or	a5,a0,a2
   14a58:	00f9b423          	sd	a5,8(s3)
   14a5c:	00070613          	mv	a2,a4
   14a60:	e5dff06f          	j	148bc <_malloc_r+0x550>
   14a64:	55400713          	li	a4,1364
   14a68:	0fc00693          	li	a3,252
   14a6c:	07f00513          	li	a0,127
   14a70:	07e00593          	li	a1,126
   14a74:	a0f768e3          	bltu	a4,a5,14484 <_malloc_r+0x118>
   14a78:	0124d593          	srli	a1,s1,0x12
   14a7c:	0005859b          	sext.w	a1,a1
   14a80:	07d5851b          	addiw	a0,a1,125
   14a84:	0015169b          	slliw	a3,a0,0x1
   14a88:	07c5859b          	addiw	a1,a1,124
   14a8c:	ffe68693          	addi	a3,a3,-2
   14a90:	9f5ff06f          	j	14484 <_malloc_r+0x118>
   14a94:	05400613          	li	a2,84
   14a98:	06e66263          	bltu	a2,a4,14afc <_malloc_r+0x790>
   14a9c:	00c7d713          	srli	a4,a5,0xc
   14aa0:	0007071b          	sext.w	a4,a4
   14aa4:	06f7059b          	addiw	a1,a4,111
   14aa8:	0015959b          	slliw	a1,a1,0x1
   14aac:	06e7051b          	addiw	a0,a4,110
   14ab0:	ffe58593          	addi	a1,a1,-2
   14ab4:	dddff06f          	j	14890 <_malloc_r+0x524>
   14ab8:	034a1713          	slli	a4,s4,0x34
   14abc:	c60712e3          	bnez	a4,14720 <_malloc_r+0x3b4>
   14ac0:	0109b703          	ld	a4,16(s3)
   14ac4:	017b0b33          	add	s6,s6,s7
   14ac8:	001b6b13          	ori	s6,s6,1
   14acc:	01673423          	sd	s6,8(a4)
   14ad0:	d05ff06f          	j	147d4 <_malloc_r+0x468>
   14ad4:	00090513          	mv	a0,s2
   14ad8:	01040593          	addi	a1,s0,16
   14adc:	9a4ff0ef          	jal	13c80 <_free_r>
   14ae0:	000c2783          	lw	a5,0(s8)
   14ae4:	cf1ff06f          	j	147d4 <_malloc_r+0x468>
   14ae8:	00100713          	li	a4,1
   14aec:	00000a13          	li	s4,0
   14af0:	c99ff06f          	j	14788 <_malloc_r+0x41c>
   14af4:	8351b023          	sd	s5,-2016(gp) # 1d080 <__malloc_sbrk_base>
   14af8:	c41ff06f          	j	14738 <_malloc_r+0x3cc>
   14afc:	15400613          	li	a2,340
   14b00:	02e66063          	bltu	a2,a4,14b20 <_malloc_r+0x7b4>
   14b04:	00f7d713          	srli	a4,a5,0xf
   14b08:	0007071b          	sext.w	a4,a4
   14b0c:	0787059b          	addiw	a1,a4,120
   14b10:	0015959b          	slliw	a1,a1,0x1
   14b14:	0777051b          	addiw	a0,a4,119
   14b18:	ffe58593          	addi	a1,a1,-2
   14b1c:	d75ff06f          	j	14890 <_malloc_r+0x524>
   14b20:	55400613          	li	a2,1364
   14b24:	0fc00593          	li	a1,252
   14b28:	07e00513          	li	a0,126
   14b2c:	d6e662e3          	bltu	a2,a4,14890 <_malloc_r+0x524>
   14b30:	0127d713          	srli	a4,a5,0x12
   14b34:	0007071b          	sext.w	a4,a4
   14b38:	07d7059b          	addiw	a1,a4,125
   14b3c:	0015959b          	slliw	a1,a1,0x1
   14b40:	07c7051b          	addiw	a0,a4,124
   14b44:	ffe58593          	addi	a1,a1,-2
   14b48:	d49ff06f          	j	14890 <_malloc_r+0x524>
   14b4c:	0089b783          	ld	a5,8(s3)
   14b50:	e91ff06f          	j	149e0 <_malloc_r+0x674>

0000000000014b54 <memchr>:
   14b54:	03d51713          	slli	a4,a0,0x3d
   14b58:	0ff5f813          	andi	a6,a1,255
   14b5c:	0c070863          	beqz	a4,14c2c <memchr+0xd8>
   14b60:	fff60793          	addi	a5,a2,-1
   14b64:	06060463          	beqz	a2,14bcc <memchr+0x78>
   14b68:	00054703          	lbu	a4,0(a0)
   14b6c:	07070263          	beq	a4,a6,14bd0 <memchr+0x7c>
   14b70:	00080693          	mv	a3,a6
   14b74:	0140006f          	j	14b88 <memchr+0x34>
   14b78:	04078a63          	beqz	a5,14bcc <memchr+0x78>
   14b7c:	00054703          	lbu	a4,0(a0)
   14b80:	fff78793          	addi	a5,a5,-1
   14b84:	04d70663          	beq	a4,a3,14bd0 <memchr+0x7c>
   14b88:	00150513          	addi	a0,a0,1
   14b8c:	03d51713          	slli	a4,a0,0x3d
   14b90:	fe0714e3          	bnez	a4,14b78 <memchr+0x24>
   14b94:	00700613          	li	a2,7
   14b98:	02f66e63          	bltu	a2,a5,14bd4 <memchr+0x80>
   14b9c:	02078863          	beqz	a5,14bcc <memchr+0x78>
   14ba0:	00054703          	lbu	a4,0(a0)
   14ba4:	09070863          	beq	a4,a6,14c34 <memchr+0xe0>
   14ba8:	00150713          	addi	a4,a0,1
   14bac:	00f507b3          	add	a5,a0,a5
   14bb0:	00080693          	mv	a3,a6
   14bb4:	0100006f          	j	14bc4 <memchr+0x70>
   14bb8:	00170713          	addi	a4,a4,1
   14bbc:	fff74603          	lbu	a2,-1(a4)
   14bc0:	06d60463          	beq	a2,a3,14c28 <memchr+0xd4>
   14bc4:	00070513          	mv	a0,a4
   14bc8:	fef718e3          	bne	a4,a5,14bb8 <memchr+0x64>
   14bcc:	00000513          	li	a0,0
   14bd0:	00008067          	ret
   14bd4:	0ff5f593          	andi	a1,a1,255
   14bd8:	0085971b          	slliw	a4,a1,0x8
   14bdc:	00b76733          	or	a4,a4,a1
   14be0:	01071693          	slli	a3,a4,0x10
   14be4:	00e6e733          	or	a4,a3,a4
   14be8:	8881b283          	ld	t0,-1912(gp) # 1d0e8 <__wctomb+0x58>
   14bec:	8901b883          	ld	a7,-1904(gp) # 1d0f0 <__wctomb+0x60>
   14bf0:	02071693          	slli	a3,a4,0x20
   14bf4:	00e6e6b3          	or	a3,a3,a4
   14bf8:	00060593          	mv	a1,a2
   14bfc:	00053703          	ld	a4,0(a0)
   14c00:	00e6c733          	xor	a4,a3,a4
   14c04:	00570633          	add	a2,a4,t0
   14c08:	fff74713          	not	a4,a4
   14c0c:	00e67733          	and	a4,a2,a4
   14c10:	01177733          	and	a4,a4,a7
   14c14:	f80714e3          	bnez	a4,14b9c <memchr+0x48>
   14c18:	ff878793          	addi	a5,a5,-8
   14c1c:	00850513          	addi	a0,a0,8
   14c20:	fcf5eee3          	bltu	a1,a5,14bfc <memchr+0xa8>
   14c24:	f79ff06f          	j	14b9c <memchr+0x48>
   14c28:	00008067          	ret
   14c2c:	00060793          	mv	a5,a2
   14c30:	f65ff06f          	j	14b94 <memchr+0x40>
   14c34:	00008067          	ret

0000000000014c38 <memcpy>:
   14c38:	00a5c7b3          	xor	a5,a1,a0
   14c3c:	03d79713          	slli	a4,a5,0x3d
   14c40:	00c508b3          	add	a7,a0,a2
   14c44:	0e071263          	bnez	a4,14d28 <memcpy+0xf0>
   14c48:	00700793          	li	a5,7
   14c4c:	0ec7fe63          	bleu	a2,a5,14d48 <memcpy+0x110>
   14c50:	03d51793          	slli	a5,a0,0x3d
   14c54:	04079a63          	bnez	a5,14ca8 <memcpy+0x70>
   14c58:	ff88f813          	andi	a6,a7,-8
   14c5c:	fc080793          	addi	a5,a6,-64
   14c60:	00050713          	mv	a4,a0
   14c64:	06f56663          	bltu	a0,a5,14cd0 <memcpy+0x98>
   14c68:	00058693          	mv	a3,a1
   14c6c:	00070793          	mv	a5,a4
   14c70:	03077863          	bleu	a6,a4,14ca0 <memcpy+0x68>
   14c74:	0006b603          	ld	a2,0(a3)
   14c78:	00878793          	addi	a5,a5,8
   14c7c:	00868693          	addi	a3,a3,8
   14c80:	fec7bc23          	sd	a2,-8(a5)
   14c84:	ff07e8e3          	bltu	a5,a6,14c74 <memcpy+0x3c>
   14c88:	fff74793          	not	a5,a4
   14c8c:	01078833          	add	a6,a5,a6
   14c90:	ff887813          	andi	a6,a6,-8
   14c94:	00880813          	addi	a6,a6,8
   14c98:	01070733          	add	a4,a4,a6
   14c9c:	010585b3          	add	a1,a1,a6
   14ca0:	09176863          	bltu	a4,a7,14d30 <memcpy+0xf8>
   14ca4:	00008067          	ret
   14ca8:	00050713          	mv	a4,a0
   14cac:	0005c783          	lbu	a5,0(a1)
   14cb0:	00170713          	addi	a4,a4,1
   14cb4:	00158593          	addi	a1,a1,1
   14cb8:	fef70fa3          	sb	a5,-1(a4)
   14cbc:	03d71793          	slli	a5,a4,0x3d
   14cc0:	fe0796e3          	bnez	a5,14cac <memcpy+0x74>
   14cc4:	ff88f813          	andi	a6,a7,-8
   14cc8:	fc080793          	addi	a5,a6,-64
   14ccc:	f8f77ee3          	bleu	a5,a4,14c68 <memcpy+0x30>
   14cd0:	0005bf83          	ld	t6,0(a1)
   14cd4:	0085bf03          	ld	t5,8(a1)
   14cd8:	0105be83          	ld	t4,16(a1)
   14cdc:	0185be03          	ld	t3,24(a1)
   14ce0:	0205b383          	ld	t2,32(a1)
   14ce4:	0285b303          	ld	t1,40(a1)
   14ce8:	0305b283          	ld	t0,48(a1)
   14cec:	0385b603          	ld	a2,56(a1)
   14cf0:	04858593          	addi	a1,a1,72
   14cf4:	04870713          	addi	a4,a4,72
   14cf8:	ff85b683          	ld	a3,-8(a1)
   14cfc:	fbf73c23          	sd	t6,-72(a4)
   14d00:	fde73023          	sd	t5,-64(a4)
   14d04:	fdd73423          	sd	t4,-56(a4)
   14d08:	fdc73823          	sd	t3,-48(a4)
   14d0c:	fc773c23          	sd	t2,-40(a4)
   14d10:	fe673023          	sd	t1,-32(a4)
   14d14:	fe573423          	sd	t0,-24(a4)
   14d18:	fec73823          	sd	a2,-16(a4)
   14d1c:	fed73c23          	sd	a3,-8(a4)
   14d20:	faf768e3          	bltu	a4,a5,14cd0 <memcpy+0x98>
   14d24:	f45ff06f          	j	14c68 <memcpy+0x30>
   14d28:	00050713          	mv	a4,a0
   14d2c:	03157e63          	bleu	a7,a0,14d68 <memcpy+0x130>
   14d30:	0005c783          	lbu	a5,0(a1)
   14d34:	00170713          	addi	a4,a4,1
   14d38:	00158593          	addi	a1,a1,1
   14d3c:	fef70fa3          	sb	a5,-1(a4)
   14d40:	ff1768e3          	bltu	a4,a7,14d30 <memcpy+0xf8>
   14d44:	00008067          	ret
   14d48:	00050713          	mv	a4,a0
   14d4c:	f5157ce3          	bleu	a7,a0,14ca4 <memcpy+0x6c>
   14d50:	0005c783          	lbu	a5,0(a1)
   14d54:	00170713          	addi	a4,a4,1
   14d58:	00158593          	addi	a1,a1,1
   14d5c:	fef70fa3          	sb	a5,-1(a4)
   14d60:	fd1768e3          	bltu	a4,a7,14d30 <memcpy+0xf8>
   14d64:	fe1ff06f          	j	14d44 <memcpy+0x10c>
   14d68:	00008067          	ret

0000000000014d6c <memset>:
   14d6c:	00f00813          	li	a6,15
   14d70:	00050713          	mv	a4,a0
   14d74:	02c87a63          	bleu	a2,a6,14da8 <memset+0x3c>
   14d78:	00f77793          	andi	a5,a4,15
   14d7c:	0a079063          	bnez	a5,14e1c <memset+0xb0>
   14d80:	06059e63          	bnez	a1,14dfc <memset+0x90>
   14d84:	ff067693          	andi	a3,a2,-16
   14d88:	00f67613          	andi	a2,a2,15
   14d8c:	00e686b3          	add	a3,a3,a4
   14d90:	00b73023          	sd	a1,0(a4)
   14d94:	00b73423          	sd	a1,8(a4)
   14d98:	01070713          	addi	a4,a4,16
   14d9c:	fed76ae3          	bltu	a4,a3,14d90 <memset+0x24>
   14da0:	00061463          	bnez	a2,14da8 <memset+0x3c>
   14da4:	00008067          	ret
   14da8:	40c806b3          	sub	a3,a6,a2
   14dac:	00269693          	slli	a3,a3,0x2
   14db0:	00000297          	auipc	t0,0x0
   14db4:	005686b3          	add	a3,a3,t0
   14db8:	00c68067          	jr	a3,12
   14dbc:	00b70723          	sb	a1,14(a4)
   14dc0:	00b706a3          	sb	a1,13(a4)
   14dc4:	00b70623          	sb	a1,12(a4)
   14dc8:	00b705a3          	sb	a1,11(a4)
   14dcc:	00b70523          	sb	a1,10(a4)
   14dd0:	00b704a3          	sb	a1,9(a4)
   14dd4:	00b70423          	sb	a1,8(a4)
   14dd8:	00b703a3          	sb	a1,7(a4)
   14ddc:	00b70323          	sb	a1,6(a4)
   14de0:	00b702a3          	sb	a1,5(a4)
   14de4:	00b70223          	sb	a1,4(a4)
   14de8:	00b701a3          	sb	a1,3(a4)
   14dec:	00b70123          	sb	a1,2(a4)
   14df0:	00b700a3          	sb	a1,1(a4)
   14df4:	00b70023          	sb	a1,0(a4)
   14df8:	00008067          	ret
   14dfc:	0ff5f593          	andi	a1,a1,255
   14e00:	00859693          	slli	a3,a1,0x8
   14e04:	00d5e5b3          	or	a1,a1,a3
   14e08:	01059693          	slli	a3,a1,0x10
   14e0c:	00d5e5b3          	or	a1,a1,a3
   14e10:	02059693          	slli	a3,a1,0x20
   14e14:	00d5e5b3          	or	a1,a1,a3
   14e18:	f6dff06f          	j	14d84 <memset+0x18>
   14e1c:	00279693          	slli	a3,a5,0x2
   14e20:	00000297          	auipc	t0,0x0
   14e24:	005686b3          	add	a3,a3,t0
   14e28:	00008293          	mv	t0,ra
   14e2c:	f98680e7          	jalr	a3,-104
   14e30:	00028093          	mv	ra,t0
   14e34:	ff078793          	addi	a5,a5,-16
   14e38:	40f70733          	sub	a4,a4,a5
   14e3c:	00f60633          	add	a2,a2,a5
   14e40:	f6c874e3          	bleu	a2,a6,14da8 <memset+0x3c>
   14e44:	f3dff06f          	j	14d80 <memset+0x14>

0000000000014e48 <__malloc_lock>:
   14e48:	00008067          	ret

0000000000014e4c <__malloc_unlock>:
   14e4c:	00008067          	ret

0000000000014e50 <_Balloc>:
   14e50:	07853783          	ld	a5,120(a0)
   14e54:	fe010113          	addi	sp,sp,-32
   14e58:	00813823          	sd	s0,16(sp)
   14e5c:	00913423          	sd	s1,8(sp)
   14e60:	00113c23          	sd	ra,24(sp)
   14e64:	01213023          	sd	s2,0(sp)
   14e68:	00050413          	mv	s0,a0
   14e6c:	00058493          	mv	s1,a1
   14e70:	02078e63          	beqz	a5,14eac <_Balloc+0x5c>
   14e74:	00349713          	slli	a4,s1,0x3
   14e78:	00e78733          	add	a4,a5,a4
   14e7c:	00073503          	ld	a0,0(a4)
   14e80:	04050663          	beqz	a0,14ecc <_Balloc+0x7c>
   14e84:	00053683          	ld	a3,0(a0)
   14e88:	00d73023          	sd	a3,0(a4)
   14e8c:	00052a23          	sw	zero,20(a0)
   14e90:	00052823          	sw	zero,16(a0)
   14e94:	01813083          	ld	ra,24(sp)
   14e98:	01013403          	ld	s0,16(sp)
   14e9c:	00813483          	ld	s1,8(sp)
   14ea0:	00013903          	ld	s2,0(sp)
   14ea4:	02010113          	addi	sp,sp,32
   14ea8:	00008067          	ret
   14eac:	00800593          	li	a1,8
   14eb0:	04100613          	li	a2,65
   14eb4:	51c020ef          	jal	173d0 <_calloc_r>
   14eb8:	00050793          	mv	a5,a0
   14ebc:	06a43c23          	sd	a0,120(s0)
   14ec0:	fa051ae3          	bnez	a0,14e74 <_Balloc+0x24>
   14ec4:	00000513          	li	a0,0
   14ec8:	fcdff06f          	j	14e94 <_Balloc+0x44>
   14ecc:	00100913          	li	s2,1
   14ed0:	0099193b          	sllw	s2,s2,s1
   14ed4:	fff9061b          	addiw	a2,s2,-1
   14ed8:	00860613          	addi	a2,a2,8
   14edc:	00040513          	mv	a0,s0
   14ee0:	00100593          	li	a1,1
   14ee4:	00261613          	slli	a2,a2,0x2
   14ee8:	4e8020ef          	jal	173d0 <_calloc_r>
   14eec:	fc050ce3          	beqz	a0,14ec4 <_Balloc+0x74>
   14ef0:	00952423          	sw	s1,8(a0)
   14ef4:	01252623          	sw	s2,12(a0)
   14ef8:	f95ff06f          	j	14e8c <_Balloc+0x3c>

0000000000014efc <_Bfree>:
   14efc:	02058063          	beqz	a1,14f1c <_Bfree+0x20>
   14f00:	0085a783          	lw	a5,8(a1)
   14f04:	07853703          	ld	a4,120(a0)
   14f08:	00379793          	slli	a5,a5,0x3
   14f0c:	00f707b3          	add	a5,a4,a5
   14f10:	0007b703          	ld	a4,0(a5)
   14f14:	00e5b023          	sd	a4,0(a1)
   14f18:	00b7b023          	sd	a1,0(a5)
   14f1c:	00008067          	ret

0000000000014f20 <__multadd>:
   14f20:	fc010113          	addi	sp,sp,-64
   14f24:	02813823          	sd	s0,48(sp)
   14f28:	0145a403          	lw	s0,20(a1)
   14f2c:	000102b7          	lui	t0,0x10
   14f30:	02913423          	sd	s1,40(sp)
   14f34:	03213023          	sd	s2,32(sp)
   14f38:	02113c23          	sd	ra,56(sp)
   14f3c:	01313c23          	sd	s3,24(sp)
   14f40:	00058493          	mv	s1,a1
   14f44:	00050913          	mv	s2,a0
   14f48:	01858813          	addi	a6,a1,24
   14f4c:	00000893          	li	a7,0
   14f50:	fff2829b          	addiw	t0,t0,-1
   14f54:	00082703          	lw	a4,0(a6)
   14f58:	0018889b          	addiw	a7,a7,1
   14f5c:	00480813          	addi	a6,a6,4
   14f60:	005777b3          	and	a5,a4,t0
   14f64:	02c787bb          	mulw	a5,a5,a2
   14f68:	0107571b          	srliw	a4,a4,0x10
   14f6c:	02c7073b          	mulw	a4,a4,a2
   14f70:	00d786bb          	addw	a3,a5,a3
   14f74:	0106d79b          	srliw	a5,a3,0x10
   14f78:	0056f6b3          	and	a3,a3,t0
   14f7c:	00e7873b          	addw	a4,a5,a4
   14f80:	0107179b          	slliw	a5,a4,0x10
   14f84:	00d787bb          	addw	a5,a5,a3
   14f88:	fef82e23          	sw	a5,-4(a6)
   14f8c:	0107569b          	srliw	a3,a4,0x10
   14f90:	fc88c2e3          	blt	a7,s0,14f54 <__multadd+0x34>
   14f94:	02068263          	beqz	a3,14fb8 <__multadd+0x98>
   14f98:	00c4a783          	lw	a5,12(s1)
   14f9c:	02f45e63          	ble	a5,s0,14fd8 <__multadd+0xb8>
   14fa0:	00440793          	addi	a5,s0,4
   14fa4:	00279793          	slli	a5,a5,0x2
   14fa8:	00f487b3          	add	a5,s1,a5
   14fac:	0014041b          	addiw	s0,s0,1
   14fb0:	00d7a423          	sw	a3,8(a5)
   14fb4:	0084aa23          	sw	s0,20(s1)
   14fb8:	03813083          	ld	ra,56(sp)
   14fbc:	00048513          	mv	a0,s1
   14fc0:	03013403          	ld	s0,48(sp)
   14fc4:	02813483          	ld	s1,40(sp)
   14fc8:	02013903          	ld	s2,32(sp)
   14fcc:	01813983          	ld	s3,24(sp)
   14fd0:	04010113          	addi	sp,sp,64
   14fd4:	00008067          	ret
   14fd8:	0084a583          	lw	a1,8(s1)
   14fdc:	00090513          	mv	a0,s2
   14fe0:	00d13423          	sd	a3,8(sp)
   14fe4:	0015859b          	addiw	a1,a1,1
   14fe8:	e69ff0ef          	jal	14e50 <_Balloc>
   14fec:	0144a603          	lw	a2,20(s1)
   14ff0:	00050993          	mv	s3,a0
   14ff4:	01048593          	addi	a1,s1,16
   14ff8:	00260613          	addi	a2,a2,2
   14ffc:	01050513          	addi	a0,a0,16
   15000:	00261613          	slli	a2,a2,0x2
   15004:	c35ff0ef          	jal	14c38 <memcpy>
   15008:	0084a783          	lw	a5,8(s1)
   1500c:	07893703          	ld	a4,120(s2)
   15010:	00813683          	ld	a3,8(sp)
   15014:	00379793          	slli	a5,a5,0x3
   15018:	00f707b3          	add	a5,a4,a5
   1501c:	0007b703          	ld	a4,0(a5)
   15020:	00e4b023          	sd	a4,0(s1)
   15024:	0097b023          	sd	s1,0(a5)
   15028:	00098493          	mv	s1,s3
   1502c:	f75ff06f          	j	14fa0 <__multadd+0x80>

0000000000015030 <__s2b>:
   15030:	fc010113          	addi	sp,sp,-64
   15034:	0086879b          	addiw	a5,a3,8
   15038:	03213023          	sd	s2,32(sp)
   1503c:	00068913          	mv	s2,a3
   15040:	00900693          	li	a3,9
   15044:	02d7c6bb          	divw	a3,a5,a3
   15048:	00100793          	li	a5,1
   1504c:	02813823          	sd	s0,48(sp)
   15050:	02913423          	sd	s1,40(sp)
   15054:	01313c23          	sd	s3,24(sp)
   15058:	01413823          	sd	s4,16(sp)
   1505c:	00058413          	mv	s0,a1
   15060:	02113c23          	sd	ra,56(sp)
   15064:	01513423          	sd	s5,8(sp)
   15068:	01613023          	sd	s6,0(sp)
   1506c:	00050993          	mv	s3,a0
   15070:	00060a13          	mv	s4,a2
   15074:	00070493          	mv	s1,a4
   15078:	00000593          	li	a1,0
   1507c:	00d7d863          	ble	a3,a5,1508c <__s2b+0x5c>
   15080:	0017979b          	slliw	a5,a5,0x1
   15084:	0015859b          	addiw	a1,a1,1
   15088:	fed7cce3          	blt	a5,a3,15080 <__s2b+0x50>
   1508c:	00098513          	mv	a0,s3
   15090:	dc1ff0ef          	jal	14e50 <_Balloc>
   15094:	00100713          	li	a4,1
   15098:	00900793          	li	a5,9
   1509c:	00050593          	mv	a1,a0
   150a0:	00952c23          	sw	s1,24(a0)
   150a4:	00e52a23          	sw	a4,20(a0)
   150a8:	0b47d863          	ble	s4,a5,15158 <__s2b+0x128>
   150ac:	ff6a0b1b          	addiw	s6,s4,-10
   150b0:	020b1b13          	slli	s6,s6,0x20
   150b4:	020b5b13          	srli	s6,s6,0x20
   150b8:	00940a93          	addi	s5,s0,9
   150bc:	00ab0793          	addi	a5,s6,10
   150c0:	00f40433          	add	s0,s0,a5
   150c4:	000a8493          	mv	s1,s5
   150c8:	00148493          	addi	s1,s1,1
   150cc:	fff4c683          	lbu	a3,-1(s1)
   150d0:	00098513          	mv	a0,s3
   150d4:	00a00613          	li	a2,10
   150d8:	fd06869b          	addiw	a3,a3,-48
   150dc:	e45ff0ef          	jal	14f20 <__multadd>
   150e0:	00050593          	mv	a1,a0
   150e4:	fe8492e3          	bne	s1,s0,150c8 <__s2b+0x98>
   150e8:	016a8433          	add	s0,s5,s6
   150ec:	00240413          	addi	s0,s0,2
   150f0:	032a5e63          	ble	s2,s4,1512c <__s2b+0xfc>
   150f4:	fff9091b          	addiw	s2,s2,-1
   150f8:	414904bb          	subw	s1,s2,s4
   150fc:	02049493          	slli	s1,s1,0x20
   15100:	0204d493          	srli	s1,s1,0x20
   15104:	00148493          	addi	s1,s1,1
   15108:	009404b3          	add	s1,s0,s1
   1510c:	00140413          	addi	s0,s0,1
   15110:	fff44683          	lbu	a3,-1(s0)
   15114:	00098513          	mv	a0,s3
   15118:	00a00613          	li	a2,10
   1511c:	fd06869b          	addiw	a3,a3,-48
   15120:	e01ff0ef          	jal	14f20 <__multadd>
   15124:	00050593          	mv	a1,a0
   15128:	fe9412e3          	bne	s0,s1,1510c <__s2b+0xdc>
   1512c:	03813083          	ld	ra,56(sp)
   15130:	00058513          	mv	a0,a1
   15134:	03013403          	ld	s0,48(sp)
   15138:	02813483          	ld	s1,40(sp)
   1513c:	02013903          	ld	s2,32(sp)
   15140:	01813983          	ld	s3,24(sp)
   15144:	01013a03          	ld	s4,16(sp)
   15148:	00813a83          	ld	s5,8(sp)
   1514c:	00013b03          	ld	s6,0(sp)
   15150:	04010113          	addi	sp,sp,64
   15154:	00008067          	ret
   15158:	00a40413          	addi	s0,s0,10
   1515c:	00078a13          	mv	s4,a5
   15160:	f91ff06f          	j	150f0 <__s2b+0xc0>

0000000000015164 <__hi0bits>:
   15164:	ffff06b7          	lui	a3,0xffff0
   15168:	00d576b3          	and	a3,a0,a3
   1516c:	00050793          	mv	a5,a0
   15170:	00000713          	li	a4,0
   15174:	00069663          	bnez	a3,15180 <__hi0bits+0x1c>
   15178:	0105179b          	slliw	a5,a0,0x10
   1517c:	01000713          	li	a4,16
   15180:	ff0006b7          	lui	a3,0xff000
   15184:	00d7f6b3          	and	a3,a5,a3
   15188:	00069663          	bnez	a3,15194 <__hi0bits+0x30>
   1518c:	0087071b          	addiw	a4,a4,8
   15190:	0087979b          	slliw	a5,a5,0x8
   15194:	f00006b7          	lui	a3,0xf0000
   15198:	00d7f6b3          	and	a3,a5,a3
   1519c:	00069663          	bnez	a3,151a8 <__hi0bits+0x44>
   151a0:	0047071b          	addiw	a4,a4,4
   151a4:	0047979b          	slliw	a5,a5,0x4
   151a8:	c00006b7          	lui	a3,0xc0000
   151ac:	00d7f6b3          	and	a3,a5,a3
   151b0:	00069663          	bnez	a3,151bc <__hi0bits+0x58>
   151b4:	0027071b          	addiw	a4,a4,2
   151b8:	0027979b          	slliw	a5,a5,0x2
   151bc:	00070513          	mv	a0,a4
   151c0:	0007c863          	bltz	a5,151d0 <__hi0bits+0x6c>
   151c4:	02179693          	slli	a3,a5,0x21
   151c8:	02000513          	li	a0,32
   151cc:	0006c463          	bltz	a3,151d4 <__hi0bits+0x70>
   151d0:	00008067          	ret
   151d4:	0017051b          	addiw	a0,a4,1
   151d8:	00008067          	ret

00000000000151dc <__lo0bits>:
   151dc:	00052783          	lw	a5,0(a0)
   151e0:	00050693          	mv	a3,a0
   151e4:	03d79613          	slli	a2,a5,0x3d
   151e8:	02060463          	beqz	a2,15210 <__lo0bits+0x34>
   151ec:	03f79713          	slli	a4,a5,0x3f
   151f0:	00000513          	li	a0,0
   151f4:	08074263          	bltz	a4,15278 <__lo0bits+0x9c>
   151f8:	03e79613          	slli	a2,a5,0x3e
   151fc:	08064063          	bltz	a2,1527c <__lo0bits+0xa0>
   15200:	0027d79b          	srliw	a5,a5,0x2
   15204:	00f6a023          	sw	a5,0(a3) # ffffffffc0000000 <_gp+0xffffffffbffe27a0>
   15208:	00200513          	li	a0,2
   1520c:	00008067          	ret
   15210:	0107961b          	slliw	a2,a5,0x10
   15214:	0106561b          	srliw	a2,a2,0x10
   15218:	00000713          	li	a4,0
   1521c:	00061663          	bnez	a2,15228 <__lo0bits+0x4c>
   15220:	0107d79b          	srliw	a5,a5,0x10
   15224:	01000713          	li	a4,16
   15228:	0ff7f613          	andi	a2,a5,255
   1522c:	00061663          	bnez	a2,15238 <__lo0bits+0x5c>
   15230:	0087071b          	addiw	a4,a4,8
   15234:	0087d79b          	srliw	a5,a5,0x8
   15238:	03c79613          	slli	a2,a5,0x3c
   1523c:	00061663          	bnez	a2,15248 <__lo0bits+0x6c>
   15240:	0047071b          	addiw	a4,a4,4
   15244:	0047d79b          	srliw	a5,a5,0x4
   15248:	03e79613          	slli	a2,a5,0x3e
   1524c:	00061663          	bnez	a2,15258 <__lo0bits+0x7c>
   15250:	0027071b          	addiw	a4,a4,2
   15254:	0027d79b          	srliw	a5,a5,0x2
   15258:	03f79613          	slli	a2,a5,0x3f
   1525c:	00064a63          	bltz	a2,15270 <__lo0bits+0x94>
   15260:	0017d79b          	srliw	a5,a5,0x1
   15264:	02000513          	li	a0,32
   15268:	00078863          	beqz	a5,15278 <__lo0bits+0x9c>
   1526c:	0017071b          	addiw	a4,a4,1
   15270:	00f6a023          	sw	a5,0(a3)
   15274:	00070513          	mv	a0,a4
   15278:	00008067          	ret
   1527c:	0017d79b          	srliw	a5,a5,0x1
   15280:	00f6a023          	sw	a5,0(a3)
   15284:	00100513          	li	a0,1
   15288:	00008067          	ret

000000000001528c <__i2b>:
   1528c:	ff010113          	addi	sp,sp,-16
   15290:	00813023          	sd	s0,0(sp)
   15294:	00058413          	mv	s0,a1
   15298:	00100593          	li	a1,1
   1529c:	00113423          	sd	ra,8(sp)
   152a0:	bb1ff0ef          	jal	14e50 <_Balloc>
   152a4:	00813083          	ld	ra,8(sp)
   152a8:	00100713          	li	a4,1
   152ac:	00852c23          	sw	s0,24(a0)
   152b0:	00e52a23          	sw	a4,20(a0)
   152b4:	00013403          	ld	s0,0(sp)
   152b8:	01010113          	addi	sp,sp,16
   152bc:	00008067          	ret

00000000000152c0 <__multiply>:
   152c0:	fd010113          	addi	sp,sp,-48
   152c4:	01313423          	sd	s3,8(sp)
   152c8:	01413023          	sd	s4,0(sp)
   152cc:	01462983          	lw	s3,20(a2)
   152d0:	0145aa03          	lw	s4,20(a1)
   152d4:	00913c23          	sd	s1,24(sp)
   152d8:	01213823          	sd	s2,16(sp)
   152dc:	02113423          	sd	ra,40(sp)
   152e0:	02813023          	sd	s0,32(sp)
   152e4:	00058913          	mv	s2,a1
   152e8:	00060493          	mv	s1,a2
   152ec:	1d3a4063          	blt	s4,s3,154ac <__multiply+0x1ec>
   152f0:	00098793          	mv	a5,s3
   152f4:	000a0993          	mv	s3,s4
   152f8:	00078a13          	mv	s4,a5
   152fc:	00c92783          	lw	a5,12(s2)
   15300:	00892583          	lw	a1,8(s2)
   15304:	0149843b          	addw	s0,s3,s4
   15308:	0087a7b3          	slt	a5,a5,s0
   1530c:	00f585bb          	addw	a1,a1,a5
   15310:	b41ff0ef          	jal	14e50 <_Balloc>
   15314:	00040893          	mv	a7,s0
   15318:	01850293          	addi	t0,a0,24
   1531c:	00289893          	slli	a7,a7,0x2
   15320:	011288b3          	add	a7,t0,a7
   15324:	00028793          	mv	a5,t0
   15328:	0112f863          	bleu	a7,t0,15338 <__multiply+0x78>
   1532c:	0007a023          	sw	zero,0(a5)
   15330:	00478793          	addi	a5,a5,4
   15334:	ff17ece3          	bltu	a5,a7,1532c <__multiply+0x6c>
   15338:	01848613          	addi	a2,s1,24
   1533c:	002a1313          	slli	t1,s4,0x2
   15340:	01890393          	addi	t2,s2,24
   15344:	00299813          	slli	a6,s3,0x2
   15348:	000105b7          	lui	a1,0x10
   1534c:	00660333          	add	t1,a2,t1
   15350:	01038833          	add	a6,t2,a6
   15354:	fff5859b          	addiw	a1,a1,-1
   15358:	10667463          	bleu	t1,a2,15460 <__multiply+0x1a0>
   1535c:	00062f83          	lw	t6,0(a2)
   15360:	00bff933          	and	s2,t6,a1
   15364:	06090a63          	beqz	s2,153d8 <__multiply+0x118>
   15368:	00028f93          	mv	t6,t0
   1536c:	00038f13          	mv	t5,t2
   15370:	00000693          	li	a3,0
   15374:	0080006f          	j	1537c <__multiply+0xbc>
   15378:	00048f93          	mv	t6,s1
   1537c:	000f2e03          	lw	t3,0(t5)
   15380:	000fae83          	lw	t4,0(t6)
   15384:	004f8493          	addi	s1,t6,4
   15388:	00be7733          	and	a4,t3,a1
   1538c:	0327073b          	mulw	a4,a4,s2
   15390:	010e5e1b          	srliw	t3,t3,0x10
   15394:	00bef7b3          	and	a5,t4,a1
   15398:	010ede9b          	srliw	t4,t4,0x10
   1539c:	004f0f13          	addi	t5,t5,4
   153a0:	032e0e3b          	mulw	t3,t3,s2
   153a4:	00f7073b          	addw	a4,a4,a5
   153a8:	00d707bb          	addw	a5,a4,a3
   153ac:	0107d69b          	srliw	a3,a5,0x10
   153b0:	00b7f7b3          	and	a5,a5,a1
   153b4:	01de0e3b          	addw	t3,t3,t4
   153b8:	00de06bb          	addw	a3,t3,a3
   153bc:	0106971b          	slliw	a4,a3,0x10
   153c0:	00f76733          	or	a4,a4,a5
   153c4:	0106d69b          	srliw	a3,a3,0x10
   153c8:	fee4ae23          	sw	a4,-4(s1)
   153cc:	fb0f66e3          	bltu	t5,a6,15378 <__multiply+0xb8>
   153d0:	00dfa223          	sw	a3,4(t6)
   153d4:	00062f83          	lw	t6,0(a2)
   153d8:	010fdf9b          	srliw	t6,t6,0x10
   153dc:	060f8c63          	beqz	t6,15454 <__multiply+0x194>
   153e0:	0002a783          	lw	a5,0(t0) # 10000 <_ftext>
   153e4:	00028f13          	mv	t5,t0
   153e8:	00038e93          	mv	t4,t2
   153ec:	00078e13          	mv	t3,a5
   153f0:	00000913          	li	s2,0
   153f4:	0080006f          	j	153fc <__multiply+0x13c>
   153f8:	00048f13          	mv	t5,s1
   153fc:	000ea703          	lw	a4,0(t4)
   15400:	010e569b          	srliw	a3,t3,0x10
   15404:	00b7f7b3          	and	a5,a5,a1
   15408:	00b77733          	and	a4,a4,a1
   1540c:	03f7073b          	mulw	a4,a4,t6
   15410:	004f0493          	addi	s1,t5,4
   15414:	004e8e93          	addi	t4,t4,4
   15418:	00d706bb          	addw	a3,a4,a3
   1541c:	012686bb          	addw	a3,a3,s2
   15420:	0106971b          	slliw	a4,a3,0x10
   15424:	00f767b3          	or	a5,a4,a5
   15428:	fef4ae23          	sw	a5,-4(s1)
   1542c:	ffeed703          	lhu	a4,-2(t4)
   15430:	004f2e03          	lw	t3,4(t5)
   15434:	0106d69b          	srliw	a3,a3,0x10
   15438:	03f7073b          	mulw	a4,a4,t6
   1543c:	00be77b3          	and	a5,t3,a1
   15440:	00f707bb          	addw	a5,a4,a5
   15444:	00d787bb          	addw	a5,a5,a3
   15448:	0107d91b          	srliw	s2,a5,0x10
   1544c:	fb0ee6e3          	bltu	t4,a6,153f8 <__multiply+0x138>
   15450:	00ff2223          	sw	a5,4(t5)
   15454:	00460613          	addi	a2,a2,4
   15458:	00428293          	addi	t0,t0,4
   1545c:	f06660e3          	bltu	a2,t1,1535c <__multiply+0x9c>
   15460:	02805463          	blez	s0,15488 <__multiply+0x1c8>
   15464:	ffc8a783          	lw	a5,-4(a7)
   15468:	ffc88893          	addi	a7,a7,-4
   1546c:	00078863          	beqz	a5,1547c <__multiply+0x1bc>
   15470:	0180006f          	j	15488 <__multiply+0x1c8>
   15474:	0008a783          	lw	a5,0(a7)
   15478:	00079863          	bnez	a5,15488 <__multiply+0x1c8>
   1547c:	fff4041b          	addiw	s0,s0,-1
   15480:	ffc88893          	addi	a7,a7,-4
   15484:	fe0418e3          	bnez	s0,15474 <__multiply+0x1b4>
   15488:	02813083          	ld	ra,40(sp)
   1548c:	00852a23          	sw	s0,20(a0)
   15490:	01813483          	ld	s1,24(sp)
   15494:	02013403          	ld	s0,32(sp)
   15498:	01013903          	ld	s2,16(sp)
   1549c:	00813983          	ld	s3,8(sp)
   154a0:	00013a03          	ld	s4,0(sp)
   154a4:	03010113          	addi	sp,sp,48
   154a8:	00008067          	ret
   154ac:	00060913          	mv	s2,a2
   154b0:	00058493          	mv	s1,a1
   154b4:	e49ff06f          	j	152fc <__multiply+0x3c>

00000000000154b8 <__pow5mult>:
   154b8:	fd010113          	addi	sp,sp,-48
   154bc:	00367793          	andi	a5,a2,3
   154c0:	02813023          	sd	s0,32(sp)
   154c4:	01213823          	sd	s2,16(sp)
   154c8:	01313423          	sd	s3,8(sp)
   154cc:	02113423          	sd	ra,40(sp)
   154d0:	00913c23          	sd	s1,24(sp)
   154d4:	00060413          	mv	s0,a2
   154d8:	00050993          	mv	s3,a0
   154dc:	00058913          	mv	s2,a1
   154e0:	0a079e63          	bnez	a5,1559c <__pow5mult+0xe4>
   154e4:	4024541b          	sraiw	s0,s0,0x2
   154e8:	06040663          	beqz	s0,15554 <__pow5mult+0x9c>
   154ec:	0709b483          	ld	s1,112(s3)
   154f0:	0c048a63          	beqz	s1,155c4 <__pow5mult+0x10c>
   154f4:	03f41793          	slli	a5,s0,0x3f
   154f8:	0207c063          	bltz	a5,15518 <__pow5mult+0x60>
   154fc:	4014541b          	sraiw	s0,s0,0x1
   15500:	04040a63          	beqz	s0,15554 <__pow5mult+0x9c>
   15504:	0004b503          	ld	a0,0(s1)
   15508:	06050663          	beqz	a0,15574 <__pow5mult+0xbc>
   1550c:	00050493          	mv	s1,a0
   15510:	03f41793          	slli	a5,s0,0x3f
   15514:	fe07d4e3          	bgez	a5,154fc <__pow5mult+0x44>
   15518:	00090593          	mv	a1,s2
   1551c:	00048613          	mv	a2,s1
   15520:	00098513          	mv	a0,s3
   15524:	d9dff0ef          	jal	152c0 <__multiply>
   15528:	06090663          	beqz	s2,15594 <__pow5mult+0xdc>
   1552c:	00892783          	lw	a5,8(s2)
   15530:	0789b703          	ld	a4,120(s3)
   15534:	4014541b          	sraiw	s0,s0,0x1
   15538:	00379793          	slli	a5,a5,0x3
   1553c:	00f707b3          	add	a5,a4,a5
   15540:	0007b703          	ld	a4,0(a5)
   15544:	00e93023          	sd	a4,0(s2)
   15548:	0127b023          	sd	s2,0(a5)
   1554c:	00050913          	mv	s2,a0
   15550:	fa041ae3          	bnez	s0,15504 <__pow5mult+0x4c>
   15554:	02813083          	ld	ra,40(sp)
   15558:	00090513          	mv	a0,s2
   1555c:	02013403          	ld	s0,32(sp)
   15560:	01813483          	ld	s1,24(sp)
   15564:	01013903          	ld	s2,16(sp)
   15568:	00813983          	ld	s3,8(sp)
   1556c:	03010113          	addi	sp,sp,48
   15570:	00008067          	ret
   15574:	00048593          	mv	a1,s1
   15578:	00048613          	mv	a2,s1
   1557c:	00098513          	mv	a0,s3
   15580:	d41ff0ef          	jal	152c0 <__multiply>
   15584:	00a4b023          	sd	a0,0(s1)
   15588:	00053023          	sd	zero,0(a0)
   1558c:	00050493          	mv	s1,a0
   15590:	f81ff06f          	j	15510 <__pow5mult+0x58>
   15594:	00050913          	mv	s2,a0
   15598:	f65ff06f          	j	154fc <__pow5mult+0x44>
   1559c:	fff7879b          	addiw	a5,a5,-1
   155a0:	0001b737          	lui	a4,0x1b
   155a4:	81070713          	addi	a4,a4,-2032 # 1a810 <p05.2453>
   155a8:	00279793          	slli	a5,a5,0x2
   155ac:	00f707b3          	add	a5,a4,a5
   155b0:	0007a603          	lw	a2,0(a5)
   155b4:	00000693          	li	a3,0
   155b8:	969ff0ef          	jal	14f20 <__multadd>
   155bc:	00050913          	mv	s2,a0
   155c0:	f25ff06f          	j	154e4 <__pow5mult+0x2c>
   155c4:	00098513          	mv	a0,s3
   155c8:	00100593          	li	a1,1
   155cc:	885ff0ef          	jal	14e50 <_Balloc>
   155d0:	27100793          	li	a5,625
   155d4:	00f52c23          	sw	a5,24(a0)
   155d8:	00100793          	li	a5,1
   155dc:	00f52a23          	sw	a5,20(a0)
   155e0:	00050493          	mv	s1,a0
   155e4:	06a9b823          	sd	a0,112(s3)
   155e8:	00053023          	sd	zero,0(a0)
   155ec:	f09ff06f          	j	154f4 <__pow5mult+0x3c>

00000000000155f0 <__lshift>:
   155f0:	fc010113          	addi	sp,sp,-64
   155f4:	01413823          	sd	s4,16(sp)
   155f8:	0145aa03          	lw	s4,20(a1) # 10014 <_ftext+0x14>
   155fc:	02913423          	sd	s1,40(sp)
   15600:	00c5a783          	lw	a5,12(a1)
   15604:	4056549b          	sraiw	s1,a2,0x5
   15608:	01448a3b          	addw	s4,s1,s4
   1560c:	02813823          	sd	s0,48(sp)
   15610:	001a041b          	addiw	s0,s4,1
   15614:	03213023          	sd	s2,32(sp)
   15618:	01313c23          	sd	s3,24(sp)
   1561c:	01513423          	sd	s5,8(sp)
   15620:	00058913          	mv	s2,a1
   15624:	02113c23          	sd	ra,56(sp)
   15628:	00060a93          	mv	s5,a2
   1562c:	00050993          	mv	s3,a0
   15630:	0085a583          	lw	a1,8(a1)
   15634:	0087d863          	ble	s0,a5,15644 <__lshift+0x54>
   15638:	0017979b          	slliw	a5,a5,0x1
   1563c:	0015859b          	addiw	a1,a1,1
   15640:	fe87cce3          	blt	a5,s0,15638 <__lshift+0x48>
   15644:	00098513          	mv	a0,s3
   15648:	809ff0ef          	jal	14e50 <_Balloc>
   1564c:	01850693          	addi	a3,a0,24
   15650:	02905a63          	blez	s1,15684 <__lshift+0x94>
   15654:	00068713          	mv	a4,a3
   15658:	00000793          	li	a5,0
   1565c:	00470713          	addi	a4,a4,4
   15660:	0017879b          	addiw	a5,a5,1
   15664:	fe072e23          	sw	zero,-4(a4)
   15668:	fe979ae3          	bne	a5,s1,1565c <__lshift+0x6c>
   1566c:	fff7879b          	addiw	a5,a5,-1
   15670:	02079793          	slli	a5,a5,0x20
   15674:	0207d793          	srli	a5,a5,0x20
   15678:	00178793          	addi	a5,a5,1
   1567c:	00279793          	slli	a5,a5,0x2
   15680:	00f686b3          	add	a3,a3,a5
   15684:	01492283          	lw	t0,20(s2)
   15688:	01890793          	addi	a5,s2,24
   1568c:	01faf613          	andi	a2,s5,31
   15690:	00229293          	slli	t0,t0,0x2
   15694:	005782b3          	add	t0,a5,t0
   15698:	08060863          	beqz	a2,15728 <__lshift+0x138>
   1569c:	02000593          	li	a1,32
   156a0:	40c585bb          	subw	a1,a1,a2
   156a4:	00000813          	li	a6,0
   156a8:	0080006f          	j	156b0 <__lshift+0xc0>
   156ac:	00088693          	mv	a3,a7
   156b0:	0007a703          	lw	a4,0(a5)
   156b4:	00468893          	addi	a7,a3,4
   156b8:	00478793          	addi	a5,a5,4
   156bc:	00c7173b          	sllw	a4,a4,a2
   156c0:	00e86733          	or	a4,a6,a4
   156c4:	fee8ae23          	sw	a4,-4(a7)
   156c8:	ffc7a703          	lw	a4,-4(a5)
   156cc:	00b7583b          	srlw	a6,a4,a1
   156d0:	fc57eee3          	bltu	a5,t0,156ac <__lshift+0xbc>
   156d4:	0106a223          	sw	a6,4(a3)
   156d8:	00080463          	beqz	a6,156e0 <__lshift+0xf0>
   156dc:	002a041b          	addiw	s0,s4,2
   156e0:	00892783          	lw	a5,8(s2)
   156e4:	0789b703          	ld	a4,120(s3)
   156e8:	03813083          	ld	ra,56(sp)
   156ec:	00379793          	slli	a5,a5,0x3
   156f0:	00f707b3          	add	a5,a4,a5
   156f4:	0007b703          	ld	a4,0(a5)
   156f8:	fff4041b          	addiw	s0,s0,-1
   156fc:	00852a23          	sw	s0,20(a0)
   15700:	02813483          	ld	s1,40(sp)
   15704:	00e93023          	sd	a4,0(s2)
   15708:	03013403          	ld	s0,48(sp)
   1570c:	0127b023          	sd	s2,0(a5)
   15710:	01813983          	ld	s3,24(sp)
   15714:	02013903          	ld	s2,32(sp)
   15718:	01013a03          	ld	s4,16(sp)
   1571c:	00813a83          	ld	s5,8(sp)
   15720:	04010113          	addi	sp,sp,64
   15724:	00008067          	ret
   15728:	00478793          	addi	a5,a5,4
   1572c:	ffc7a703          	lw	a4,-4(a5)
   15730:	00468693          	addi	a3,a3,4
   15734:	fee6ae23          	sw	a4,-4(a3)
   15738:	fa57f4e3          	bleu	t0,a5,156e0 <__lshift+0xf0>
   1573c:	00478793          	addi	a5,a5,4
   15740:	ffc7a703          	lw	a4,-4(a5)
   15744:	00468693          	addi	a3,a3,4
   15748:	fee6ae23          	sw	a4,-4(a3)
   1574c:	fc57eee3          	bltu	a5,t0,15728 <__lshift+0x138>
   15750:	f91ff06f          	j	156e0 <__lshift+0xf0>

0000000000015754 <__mcmp>:
   15754:	01452703          	lw	a4,20(a0)
   15758:	0145a783          	lw	a5,20(a1)
   1575c:	40f7073b          	subw	a4,a4,a5
   15760:	04071263          	bnez	a4,157a4 <__mcmp+0x50>
   15764:	00279713          	slli	a4,a5,0x2
   15768:	01850513          	addi	a0,a0,24
   1576c:	01858593          	addi	a1,a1,24
   15770:	00e507b3          	add	a5,a0,a4
   15774:	00e585b3          	add	a1,a1,a4
   15778:	0080006f          	j	15780 <__mcmp+0x2c>
   1577c:	02f57863          	bleu	a5,a0,157ac <__mcmp+0x58>
   15780:	ffc78793          	addi	a5,a5,-4
   15784:	ffc58593          	addi	a1,a1,-4
   15788:	0007a703          	lw	a4,0(a5)
   1578c:	0005a683          	lw	a3,0(a1)
   15790:	fed706e3          	beq	a4,a3,1577c <__mcmp+0x28>
   15794:	00d73733          	sltu	a4,a4,a3
   15798:	40e0073b          	negw	a4,a4
   1579c:	00176513          	ori	a0,a4,1
   157a0:	00008067          	ret
   157a4:	00070513          	mv	a0,a4
   157a8:	00008067          	ret
   157ac:	00000513          	li	a0,0
   157b0:	00008067          	ret

00000000000157b4 <__mdiff>:
   157b4:	fd010113          	addi	sp,sp,-48
   157b8:	02813023          	sd	s0,32(sp)
   157bc:	00058413          	mv	s0,a1
   157c0:	01213823          	sd	s2,16(sp)
   157c4:	00060593          	mv	a1,a2
   157c8:	00050913          	mv	s2,a0
   157cc:	00040513          	mv	a0,s0
   157d0:	00913c23          	sd	s1,24(sp)
   157d4:	02113423          	sd	ra,40(sp)
   157d8:	01313423          	sd	s3,8(sp)
   157dc:	00060493          	mv	s1,a2
   157e0:	f75ff0ef          	jal	15754 <__mcmp>
   157e4:	14050463          	beqz	a0,1592c <__mdiff+0x178>
   157e8:	00000993          	li	s3,0
   157ec:	12054663          	bltz	a0,15918 <__mdiff+0x164>
   157f0:	00842583          	lw	a1,8(s0)
   157f4:	00090513          	mv	a0,s2
   157f8:	e58ff0ef          	jal	14e50 <_Balloc>
   157fc:	01442e03          	lw	t3,20(s0)
   15800:	0144af03          	lw	t5,20(s1)
   15804:	01840313          	addi	t1,s0,24
   15808:	002e1e93          	slli	t4,t3,0x2
   1580c:	01848613          	addi	a2,s1,24
   15810:	002f1f13          	slli	t5,t5,0x2
   15814:	000105b7          	lui	a1,0x10
   15818:	01352823          	sw	s3,16(a0)
   1581c:	01d30eb3          	add	t4,t1,t4
   15820:	01e60f33          	add	t5,a2,t5
   15824:	01850293          	addi	t0,a0,24
   15828:	00000693          	li	a3,0
   1582c:	fff5859b          	addiw	a1,a1,-1
   15830:	00032883          	lw	a7,0(t1)
   15834:	00062383          	lw	t2,0(a2)
   15838:	00428293          	addi	t0,t0,4
   1583c:	00b8f833          	and	a6,a7,a1
   15840:	00d806bb          	addw	a3,a6,a3
   15844:	00b3f733          	and	a4,t2,a1
   15848:	40e6873b          	subw	a4,a3,a4
   1584c:	0108d89b          	srliw	a7,a7,0x10
   15850:	0103d69b          	srliw	a3,t2,0x10
   15854:	40d888bb          	subw	a7,a7,a3
   15858:	4107569b          	sraiw	a3,a4,0x10
   1585c:	00d886bb          	addw	a3,a7,a3
   15860:	0106979b          	slliw	a5,a3,0x10
   15864:	00b77733          	and	a4,a4,a1
   15868:	00e7e7b3          	or	a5,a5,a4
   1586c:	00460613          	addi	a2,a2,4
   15870:	00430313          	addi	t1,t1,4
   15874:	4106d69b          	sraiw	a3,a3,0x10
   15878:	fef2ae23          	sw	a5,-4(t0)
   1587c:	fbe66ae3          	bltu	a2,t5,15830 <__mdiff+0x7c>
   15880:	00028893          	mv	a7,t0
   15884:	00030813          	mv	a6,t1
   15888:	05d37c63          	bleu	t4,t1,158e0 <__mdiff+0x12c>
   1588c:	000105b7          	lui	a1,0x10
   15890:	fff5859b          	addiw	a1,a1,-1
   15894:	00032703          	lw	a4,0(t1)
   15898:	00428293          	addi	t0,t0,4
   1589c:	00430313          	addi	t1,t1,4
   158a0:	00b77633          	and	a2,a4,a1
   158a4:	00d606bb          	addw	a3,a2,a3
   158a8:	4106d79b          	sraiw	a5,a3,0x10
   158ac:	0107571b          	srliw	a4,a4,0x10
   158b0:	00e7873b          	addw	a4,a5,a4
   158b4:	00b6f6b3          	and	a3,a3,a1
   158b8:	0107179b          	slliw	a5,a4,0x10
   158bc:	00d7e7b3          	or	a5,a5,a3
   158c0:	fef2ae23          	sw	a5,-4(t0)
   158c4:	4107569b          	sraiw	a3,a4,0x10
   158c8:	fdd366e3          	bltu	t1,t4,15894 <__mdiff+0xe0>
   158cc:	fff84293          	not	t0,a6
   158d0:	01d282b3          	add	t0,t0,t4
   158d4:	ffc2f293          	andi	t0,t0,-4
   158d8:	00428293          	addi	t0,t0,4
   158dc:	005882b3          	add	t0,a7,t0
   158e0:	ffc28293          	addi	t0,t0,-4
   158e4:	00079a63          	bnez	a5,158f8 <__mdiff+0x144>
   158e8:	ffc28293          	addi	t0,t0,-4
   158ec:	0002a783          	lw	a5,0(t0)
   158f0:	fffe0e1b          	addiw	t3,t3,-1
   158f4:	fe078ae3          	beqz	a5,158e8 <__mdiff+0x134>
   158f8:	02813083          	ld	ra,40(sp)
   158fc:	02013403          	ld	s0,32(sp)
   15900:	01813483          	ld	s1,24(sp)
   15904:	01013903          	ld	s2,16(sp)
   15908:	00813983          	ld	s3,8(sp)
   1590c:	01c52a23          	sw	t3,20(a0)
   15910:	03010113          	addi	sp,sp,48
   15914:	00008067          	ret
   15918:	00040793          	mv	a5,s0
   1591c:	00100993          	li	s3,1
   15920:	00048413          	mv	s0,s1
   15924:	00078493          	mv	s1,a5
   15928:	ec9ff06f          	j	157f0 <__mdiff+0x3c>
   1592c:	00090513          	mv	a0,s2
   15930:	00000593          	li	a1,0
   15934:	d1cff0ef          	jal	14e50 <_Balloc>
   15938:	02813083          	ld	ra,40(sp)
   1593c:	00100793          	li	a5,1
   15940:	02013403          	ld	s0,32(sp)
   15944:	01813483          	ld	s1,24(sp)
   15948:	01013903          	ld	s2,16(sp)
   1594c:	00813983          	ld	s3,8(sp)
   15950:	00f52a23          	sw	a5,20(a0)
   15954:	00052c23          	sw	zero,24(a0)
   15958:	03010113          	addi	sp,sp,48
   1595c:	00008067          	ret

0000000000015960 <__ulp>:
   15960:	ff010113          	addi	sp,sp,-16
   15964:	00a13427          	fsd	fa0,8(sp)
   15968:	00813783          	ld	a5,8(sp)
   1596c:	7ff00737          	lui	a4,0x7ff00
   15970:	4207d793          	srai	a5,a5,0x20
   15974:	00e7f7b3          	and	a5,a5,a4
   15978:	fcc00737          	lui	a4,0xfcc00
   1597c:	00e787bb          	addw	a5,a5,a4
   15980:	00f05a63          	blez	a5,15994 <__ulp+0x34>
   15984:	02079793          	slli	a5,a5,0x20
   15988:	f2078553          	fmv.d.x	fa0,a5
   1598c:	01010113          	addi	sp,sp,16
   15990:	00008067          	ret
   15994:	40f007bb          	negw	a5,a5
   15998:	4147d69b          	sraiw	a3,a5,0x14
   1599c:	01300793          	li	a5,19
   159a0:	04d7d263          	ble	a3,a5,159e4 <__ulp+0x84>
   159a4:	03200613          	li	a2,50
   159a8:	00000793          	li	a5,0
   159ac:	00100713          	li	a4,1
   159b0:	00d64863          	blt	a2,a3,159c0 <__ulp+0x60>
   159b4:	03300613          	li	a2,51
   159b8:	40d606bb          	subw	a3,a2,a3
   159bc:	00d7173b          	sllw	a4,a4,a3
   159c0:	fff00693          	li	a3,-1
   159c4:	02071713          	slli	a4,a4,0x20
   159c8:	02069693          	slli	a3,a3,0x20
   159cc:	02075713          	srli	a4,a4,0x20
   159d0:	00d7f7b3          	and	a5,a5,a3
   159d4:	00e7e7b3          	or	a5,a5,a4
   159d8:	f2078553          	fmv.d.x	fa0,a5
   159dc:	01010113          	addi	sp,sp,16
   159e0:	00008067          	ret
   159e4:	00080737          	lui	a4,0x80
   159e8:	40d757bb          	sraw	a5,a4,a3
   159ec:	f99ff06f          	j	15984 <__ulp+0x24>

00000000000159f0 <__b2d>:
   159f0:	fd010113          	addi	sp,sp,-48
   159f4:	02813023          	sd	s0,32(sp)
   159f8:	01452403          	lw	s0,20(a0)
   159fc:	01213823          	sd	s2,16(sp)
   15a00:	01850913          	addi	s2,a0,24
   15a04:	00241413          	slli	s0,s0,0x2
   15a08:	00890433          	add	s0,s2,s0
   15a0c:	00913c23          	sd	s1,24(sp)
   15a10:	ffc42483          	lw	s1,-4(s0)
   15a14:	01313423          	sd	s3,8(sp)
   15a18:	01413023          	sd	s4,0(sp)
   15a1c:	00048513          	mv	a0,s1
   15a20:	00058a13          	mv	s4,a1
   15a24:	02113423          	sd	ra,40(sp)
   15a28:	f3cff0ef          	jal	15164 <__hi0bits>
   15a2c:	02000793          	li	a5,32
   15a30:	40a787bb          	subw	a5,a5,a0
   15a34:	00fa2023          	sw	a5,0(s4)
   15a38:	00a00793          	li	a5,10
   15a3c:	ffc40993          	addi	s3,s0,-4
   15a40:	06a7ca63          	blt	a5,a0,15ab4 <__b2d+0xc4>
   15a44:	00b00693          	li	a3,11
   15a48:	40a686bb          	subw	a3,a3,a0
   15a4c:	3ff00737          	lui	a4,0x3ff00
   15a50:	00d4d7bb          	srlw	a5,s1,a3
   15a54:	00e7e7b3          	or	a5,a5,a4
   15a58:	02079793          	slli	a5,a5,0x20
   15a5c:	00000713          	li	a4,0
   15a60:	01397663          	bleu	s3,s2,15a6c <__b2d+0x7c>
   15a64:	ff842703          	lw	a4,-8(s0)
   15a68:	00d7573b          	srlw	a4,a4,a3
   15a6c:	0155051b          	addiw	a0,a0,21
   15a70:	00a494bb          	sllw	s1,s1,a0
   15a74:	009764b3          	or	s1,a4,s1
   15a78:	fff00713          	li	a4,-1
   15a7c:	02049493          	slli	s1,s1,0x20
   15a80:	02071713          	slli	a4,a4,0x20
   15a84:	0204d493          	srli	s1,s1,0x20
   15a88:	00e7f7b3          	and	a5,a5,a4
   15a8c:	0097e7b3          	or	a5,a5,s1
   15a90:	02813083          	ld	ra,40(sp)
   15a94:	f2078553          	fmv.d.x	fa0,a5
   15a98:	02013403          	ld	s0,32(sp)
   15a9c:	01813483          	ld	s1,24(sp)
   15aa0:	01013903          	ld	s2,16(sp)
   15aa4:	00813983          	ld	s3,8(sp)
   15aa8:	00013a03          	ld	s4,0(sp)
   15aac:	03010113          	addi	sp,sp,48
   15ab0:	00008067          	ret
   15ab4:	ff55061b          	addiw	a2,a0,-11
   15ab8:	07397263          	bleu	s3,s2,15b1c <__b2d+0x12c>
   15abc:	ff840593          	addi	a1,s0,-8
   15ac0:	ff842683          	lw	a3,-8(s0)
   15ac4:	06060063          	beqz	a2,15b24 <__b2d+0x134>
   15ac8:	02b00793          	li	a5,43
   15acc:	40a7853b          	subw	a0,a5,a0
   15ad0:	00c497bb          	sllw	a5,s1,a2
   15ad4:	00a6d4bb          	srlw	s1,a3,a0
   15ad8:	3ff00737          	lui	a4,0x3ff00
   15adc:	0097e7b3          	or	a5,a5,s1
   15ae0:	00e7e7b3          	or	a5,a5,a4
   15ae4:	02079793          	slli	a5,a5,0x20
   15ae8:	00000713          	li	a4,0
   15aec:	00b97663          	bleu	a1,s2,15af8 <__b2d+0x108>
   15af0:	ff442703          	lw	a4,-12(s0)
   15af4:	00a7573b          	srlw	a4,a4,a0
   15af8:	00c696bb          	sllw	a3,a3,a2
   15afc:	00e6e6b3          	or	a3,a3,a4
   15b00:	fff00713          	li	a4,-1
   15b04:	02069693          	slli	a3,a3,0x20
   15b08:	02071713          	slli	a4,a4,0x20
   15b0c:	0206d693          	srli	a3,a3,0x20
   15b10:	00e7f7b3          	and	a5,a5,a4
   15b14:	00d7e7b3          	or	a5,a5,a3
   15b18:	f79ff06f          	j	15a90 <__b2d+0xa0>
   15b1c:	00000693          	li	a3,0
   15b20:	02061063          	bnez	a2,15b40 <__b2d+0x150>
   15b24:	3ff00737          	lui	a4,0x3ff00
   15b28:	00e4e7b3          	or	a5,s1,a4
   15b2c:	02069693          	slli	a3,a3,0x20
   15b30:	0206d693          	srli	a3,a3,0x20
   15b34:	02079793          	slli	a5,a5,0x20
   15b38:	00d7e7b3          	or	a5,a5,a3
   15b3c:	f55ff06f          	j	15a90 <__b2d+0xa0>
   15b40:	3ff00737          	lui	a4,0x3ff00
   15b44:	00c497bb          	sllw	a5,s1,a2
   15b48:	00e7e7b3          	or	a5,a5,a4
   15b4c:	02079793          	slli	a5,a5,0x20
   15b50:	00000713          	li	a4,0
   15b54:	00000693          	li	a3,0
   15b58:	fa1ff06f          	j	15af8 <__b2d+0x108>

0000000000015b5c <__d2b>:
   15b5c:	fb010113          	addi	sp,sp,-80
   15b60:	00b13427          	fsd	fa1,8(sp)
   15b64:	04813023          	sd	s0,64(sp)
   15b68:	00813403          	ld	s0,8(sp)
   15b6c:	00100593          	li	a1,1
   15b70:	02913c23          	sd	s1,56(sp)
   15b74:	03213823          	sd	s2,48(sp)
   15b78:	03313423          	sd	s3,40(sp)
   15b7c:	03413023          	sd	s4,32(sp)
   15b80:	00068993          	mv	s3,a3
   15b84:	04113423          	sd	ra,72(sp)
   15b88:	00060a13          	mv	s4,a2
   15b8c:	ac4ff0ef          	jal	14e50 <_Balloc>
   15b90:	42045793          	srai	a5,s0,0x20
   15b94:	02179493          	slli	s1,a5,0x21
   15b98:	001006b7          	lui	a3,0x100
   15b9c:	fff6871b          	addiw	a4,a3,-1
   15ba0:	0354d493          	srli	s1,s1,0x35
   15ba4:	00050913          	mv	s2,a0
   15ba8:	00e7f7b3          	and	a5,a5,a4
   15bac:	00048463          	beqz	s1,15bb4 <__d2b+0x58>
   15bb0:	00d7e7b3          	or	a5,a5,a3
   15bb4:	0004041b          	sext.w	s0,s0
   15bb8:	00f12e23          	sw	a5,28(sp)
   15bbc:	06040e63          	beqz	s0,15c38 <__d2b+0xdc>
   15bc0:	01810513          	addi	a0,sp,24
   15bc4:	00812c23          	sw	s0,24(sp)
   15bc8:	e14ff0ef          	jal	151dc <__lo0bits>
   15bcc:	01c12783          	lw	a5,28(sp)
   15bd0:	0a051263          	bnez	a0,15c74 <__d2b+0x118>
   15bd4:	01812703          	lw	a4,24(sp)
   15bd8:	00e92c23          	sw	a4,24(s2)
   15bdc:	00f03433          	snez	s0,a5
   15be0:	0014041b          	addiw	s0,s0,1
   15be4:	00f92e23          	sw	a5,28(s2)
   15be8:	00892a23          	sw	s0,20(s2)
   15bec:	06049663          	bnez	s1,15c58 <__d2b+0xfc>
   15bf0:	bce5051b          	addiw	a0,a0,-1074
   15bf4:	00241793          	slli	a5,s0,0x2
   15bf8:	00aa2023          	sw	a0,0(s4)
   15bfc:	00f907b3          	add	a5,s2,a5
   15c00:	0147a503          	lw	a0,20(a5)
   15c04:	0054141b          	slliw	s0,s0,0x5
   15c08:	d5cff0ef          	jal	15164 <__hi0bits>
   15c0c:	40a4053b          	subw	a0,s0,a0
   15c10:	00a9a023          	sw	a0,0(s3)
   15c14:	04813083          	ld	ra,72(sp)
   15c18:	00090513          	mv	a0,s2
   15c1c:	04013403          	ld	s0,64(sp)
   15c20:	03813483          	ld	s1,56(sp)
   15c24:	03013903          	ld	s2,48(sp)
   15c28:	02813983          	ld	s3,40(sp)
   15c2c:	02013a03          	ld	s4,32(sp)
   15c30:	05010113          	addi	sp,sp,80
   15c34:	00008067          	ret
   15c38:	01c10513          	addi	a0,sp,28
   15c3c:	da0ff0ef          	jal	151dc <__lo0bits>
   15c40:	01c12783          	lw	a5,28(sp)
   15c44:	00100413          	li	s0,1
   15c48:	00892a23          	sw	s0,20(s2)
   15c4c:	00f92c23          	sw	a5,24(s2)
   15c50:	0205051b          	addiw	a0,a0,32
   15c54:	f8048ee3          	beqz	s1,15bf0 <__d2b+0x94>
   15c58:	bcd4849b          	addiw	s1,s1,-1075
   15c5c:	03500793          	li	a5,53
   15c60:	00a484bb          	addw	s1,s1,a0
   15c64:	40a7853b          	subw	a0,a5,a0
   15c68:	009a2023          	sw	s1,0(s4)
   15c6c:	00a9a023          	sw	a0,0(s3)
   15c70:	fa5ff06f          	j	15c14 <__d2b+0xb8>
   15c74:	02000713          	li	a4,32
   15c78:	01812683          	lw	a3,24(sp)
   15c7c:	40a7073b          	subw	a4,a4,a0
   15c80:	00e7973b          	sllw	a4,a5,a4
   15c84:	00d76733          	or	a4,a4,a3
   15c88:	00a7d7bb          	srlw	a5,a5,a0
   15c8c:	00e92c23          	sw	a4,24(s2)
   15c90:	00f12e23          	sw	a5,28(sp)
   15c94:	f49ff06f          	j	15bdc <__d2b+0x80>

0000000000015c98 <__ratio>:
   15c98:	fc010113          	addi	sp,sp,-64
   15c9c:	02813823          	sd	s0,48(sp)
   15ca0:	00058413          	mv	s0,a1
   15ca4:	01810593          	addi	a1,sp,24
   15ca8:	02113c23          	sd	ra,56(sp)
   15cac:	02913423          	sd	s1,40(sp)
   15cb0:	00050493          	mv	s1,a0
   15cb4:	d3dff0ef          	jal	159f0 <__b2d>
   15cb8:	00040513          	mv	a0,s0
   15cbc:	01c10593          	addi	a1,sp,28
   15cc0:	00a13027          	fsd	fa0,0(sp)
   15cc4:	d2dff0ef          	jal	159f0 <__b2d>
   15cc8:	01442683          	lw	a3,20(s0)
   15ccc:	0144a783          	lw	a5,20(s1)
   15cd0:	01812703          	lw	a4,24(sp)
   15cd4:	00a13427          	fsd	fa0,8(sp)
   15cd8:	40d787bb          	subw	a5,a5,a3
   15cdc:	0057969b          	slliw	a3,a5,0x5
   15ce0:	01c12783          	lw	a5,28(sp)
   15ce4:	40f707bb          	subw	a5,a4,a5
   15ce8:	00d787bb          	addw	a5,a5,a3
   15cec:	00013703          	ld	a4,0(sp)
   15cf0:	00813683          	ld	a3,8(sp)
   15cf4:	04f05263          	blez	a5,15d38 <__ratio+0xa0>
   15cf8:	42075693          	srai	a3,a4,0x20
   15cfc:	0147979b          	slliw	a5,a5,0x14
   15d00:	00d787bb          	addw	a5,a5,a3
   15d04:	02071713          	slli	a4,a4,0x20
   15d08:	02079793          	slli	a5,a5,0x20
   15d0c:	02075713          	srli	a4,a4,0x20
   15d10:	00f76733          	or	a4,a4,a5
   15d14:	00e13023          	sd	a4,0(sp)
   15d18:	00013507          	fld	fa0,0(sp)
   15d1c:	00813587          	fld	fa1,8(sp)
   15d20:	420030ef          	jal	19140 <__divdf3>
   15d24:	03813083          	ld	ra,56(sp)
   15d28:	03013403          	ld	s0,48(sp)
   15d2c:	02813483          	ld	s1,40(sp)
   15d30:	04010113          	addi	sp,sp,64
   15d34:	00008067          	ret
   15d38:	4206d713          	srai	a4,a3,0x20
   15d3c:	0147979b          	slliw	a5,a5,0x14
   15d40:	40f707bb          	subw	a5,a4,a5
   15d44:	02069693          	slli	a3,a3,0x20
   15d48:	02079793          	slli	a5,a5,0x20
   15d4c:	0206d693          	srli	a3,a3,0x20
   15d50:	00f6e6b3          	or	a3,a3,a5
   15d54:	00d13423          	sd	a3,8(sp)
   15d58:	fc1ff06f          	j	15d18 <__ratio+0x80>

0000000000015d5c <_mprec_log10>:
   15d5c:	01700793          	li	a5,23
   15d60:	00a7de63          	ble	a0,a5,15d7c <_mprec_log10+0x20>
   15d64:	8601b507          	fld	fa0,-1952(gp) # 1d0c0 <__wctomb+0x30>
   15d68:	8681b007          	fld	ft0,-1944(gp) # 1d0c8 <__wctomb+0x38>
   15d6c:	fff5051b          	addiw	a0,a0,-1
   15d70:	12057553          	fmul.d	fa0,fa0,ft0
   15d74:	fe051ce3          	bnez	a0,15d6c <_mprec_log10+0x10>
   15d78:	00008067          	ret
   15d7c:	0001b7b7          	lui	a5,0x1b
   15d80:	81078793          	addi	a5,a5,-2032 # 1a810 <p05.2453>
   15d84:	00351513          	slli	a0,a0,0x3
   15d88:	00a78533          	add	a0,a5,a0
   15d8c:	01053507          	fld	fa0,16(a0)
   15d90:	00008067          	ret

0000000000015d94 <__copybits>:
   15d94:	01462683          	lw	a3,20(a2)
   15d98:	fff5859b          	addiw	a1,a1,-1
   15d9c:	4055d81b          	sraiw	a6,a1,0x5
   15da0:	00180813          	addi	a6,a6,1
   15da4:	01860793          	addi	a5,a2,24
   15da8:	00269693          	slli	a3,a3,0x2
   15dac:	00281813          	slli	a6,a6,0x2
   15db0:	00d786b3          	add	a3,a5,a3
   15db4:	01050833          	add	a6,a0,a6
   15db8:	02d7f863          	bleu	a3,a5,15de8 <__copybits+0x54>
   15dbc:	00050713          	mv	a4,a0
   15dc0:	00478793          	addi	a5,a5,4
   15dc4:	ffc7a583          	lw	a1,-4(a5)
   15dc8:	00470713          	addi	a4,a4,4 # 3ff00004 <_gp+0x3fee27a4>
   15dcc:	feb72e23          	sw	a1,-4(a4)
   15dd0:	fed7e8e3          	bltu	a5,a3,15dc0 <__copybits+0x2c>
   15dd4:	40c687b3          	sub	a5,a3,a2
   15dd8:	fe778793          	addi	a5,a5,-25
   15ddc:	ffc7f793          	andi	a5,a5,-4
   15de0:	00478793          	addi	a5,a5,4
   15de4:	00f50533          	add	a0,a0,a5
   15de8:	01057863          	bleu	a6,a0,15df8 <__copybits+0x64>
   15dec:	00450513          	addi	a0,a0,4
   15df0:	fe052e23          	sw	zero,-4(a0)
   15df4:	ff056ce3          	bltu	a0,a6,15dec <__copybits+0x58>
   15df8:	00008067          	ret

0000000000015dfc <__any_on>:
   15dfc:	01452783          	lw	a5,20(a0)
   15e00:	4055d71b          	sraiw	a4,a1,0x5
   15e04:	01850693          	addi	a3,a0,24
   15e08:	04e7c463          	blt	a5,a4,15e50 <__any_on+0x54>
   15e0c:	04f75063          	ble	a5,a4,15e4c <__any_on+0x50>
   15e10:	00070793          	mv	a5,a4
   15e14:	00279793          	slli	a5,a5,0x2
   15e18:	01f5f593          	andi	a1,a1,31
   15e1c:	00f687b3          	add	a5,a3,a5
   15e20:	04059063          	bnez	a1,15e60 <__any_on+0x64>
   15e24:	04f6fa63          	bleu	a5,a3,15e78 <__any_on+0x7c>
   15e28:	ffc7a503          	lw	a0,-4(a5)
   15e2c:	ffc78793          	addi	a5,a5,-4
   15e30:	00051a63          	bnez	a0,15e44 <__any_on+0x48>
   15e34:	02f6f463          	bleu	a5,a3,15e5c <__any_on+0x60>
   15e38:	ffc78793          	addi	a5,a5,-4
   15e3c:	0007a703          	lw	a4,0(a5)
   15e40:	fe070ae3          	beqz	a4,15e34 <__any_on+0x38>
   15e44:	00100513          	li	a0,1
   15e48:	00008067          	ret
   15e4c:	00070793          	mv	a5,a4
   15e50:	00279793          	slli	a5,a5,0x2
   15e54:	00f687b3          	add	a5,a3,a5
   15e58:	fcdff06f          	j	15e24 <__any_on+0x28>
   15e5c:	00008067          	ret
   15e60:	0007a603          	lw	a2,0(a5)
   15e64:	00100513          	li	a0,1
   15e68:	00b6573b          	srlw	a4,a2,a1
   15e6c:	00b715bb          	sllw	a1,a4,a1
   15e70:	fac58ae3          	beq	a1,a2,15e24 <__any_on+0x28>
   15e74:	00008067          	ret
   15e78:	00000513          	li	a0,0
   15e7c:	00008067          	ret

0000000000015e80 <__fpclassifyd>:
   15e80:	ff010113          	addi	sp,sp,-16
   15e84:	00a13427          	fsd	fa0,8(sp)
   15e88:	00813783          	ld	a5,8(sp)
   15e8c:	00200513          	li	a0,2
   15e90:	4207d713          	srai	a4,a5,0x20
   15e94:	0007879b          	sext.w	a5,a5
   15e98:	00e7e6b3          	or	a3,a5,a4
   15e9c:	00069663          	bnez	a3,15ea8 <__fpclassifyd+0x28>
   15ea0:	01010113          	addi	sp,sp,16
   15ea4:	00008067          	ret
   15ea8:	800006b7          	lui	a3,0x80000
   15eac:	04d70863          	beq	a4,a3,15efc <__fpclassifyd+0x7c>
   15eb0:	fff006b7          	lui	a3,0xfff00
   15eb4:	00d706bb          	addw	a3,a4,a3
   15eb8:	7fe00637          	lui	a2,0x7fe00
   15ebc:	00400513          	li	a0,4
   15ec0:	fec6e0e3          	bltu	a3,a2,15ea0 <__fpclassifyd+0x20>
   15ec4:	7ff006b7          	lui	a3,0x7ff00
   15ec8:	00d706bb          	addw	a3,a4,a3
   15ecc:	fcc6eae3          	bltu	a3,a2,15ea0 <__fpclassifyd+0x20>
   15ed0:	800006b7          	lui	a3,0x80000
   15ed4:	fff6c693          	not	a3,a3
   15ed8:	00d77733          	and	a4,a4,a3
   15edc:	001006b7          	lui	a3,0x100
   15ee0:	00300513          	li	a0,3
   15ee4:	fad76ee3          	bltu	a4,a3,15ea0 <__fpclassifyd+0x20>
   15ee8:	7ff006b7          	lui	a3,0x7ff00
   15eec:	00000513          	li	a0,0
   15ef0:	fad718e3          	bne	a4,a3,15ea0 <__fpclassifyd+0x20>
   15ef4:	0017b513          	seqz	a0,a5
   15ef8:	fa9ff06f          	j	15ea0 <__fpclassifyd+0x20>
   15efc:	fa0782e3          	beqz	a5,15ea0 <__fpclassifyd+0x20>
   15f00:	fd1ff06f          	j	15ed0 <__fpclassifyd+0x50>

0000000000015f04 <__sread>:
   15f04:	01259503          	lh	a0,18(a1) # 10012 <_ftext+0x12>
   15f08:	ff010113          	addi	sp,sp,-16
   15f0c:	00813023          	sd	s0,0(sp)
   15f10:	00058413          	mv	s0,a1
   15f14:	00060593          	mv	a1,a2
   15f18:	00068613          	mv	a2,a3
   15f1c:	00113423          	sd	ra,8(sp)
   15f20:	015020ef          	jal	18734 <read>
   15f24:	02054063          	bltz	a0,15f44 <__sread+0x40>
   15f28:	08c42783          	lw	a5,140(s0)
   15f2c:	00813083          	ld	ra,8(sp)
   15f30:	00a787bb          	addw	a5,a5,a0
   15f34:	08f42623          	sw	a5,140(s0)
   15f38:	00013403          	ld	s0,0(sp)
   15f3c:	01010113          	addi	sp,sp,16
   15f40:	00008067          	ret
   15f44:	01045703          	lhu	a4,16(s0)
   15f48:	fffff7b7          	lui	a5,0xfffff
   15f4c:	00813083          	ld	ra,8(sp)
   15f50:	fff7879b          	addiw	a5,a5,-1
   15f54:	00f777b3          	and	a5,a4,a5
   15f58:	00f41823          	sh	a5,16(s0)
   15f5c:	00013403          	ld	s0,0(sp)
   15f60:	01010113          	addi	sp,sp,16
   15f64:	00008067          	ret

0000000000015f68 <__seofread>:
   15f68:	00000513          	li	a0,0
   15f6c:	00008067          	ret

0000000000015f70 <__swrite>:
   15f70:	01059703          	lh	a4,16(a1)
   15f74:	fd010113          	addi	sp,sp,-48
   15f78:	02813023          	sd	s0,32(sp)
   15f7c:	10077793          	andi	a5,a4,256
   15f80:	00913c23          	sd	s1,24(sp)
   15f84:	02113423          	sd	ra,40(sp)
   15f88:	00058413          	mv	s0,a1
   15f8c:	00060493          	mv	s1,a2
   15f90:	02078063          	beqz	a5,15fb0 <__swrite+0x40>
   15f94:	01259503          	lh	a0,18(a1)
   15f98:	00200613          	li	a2,2
   15f9c:	00000593          	li	a1,0
   15fa0:	00d13423          	sd	a3,8(sp)
   15fa4:	77c020ef          	jal	18720 <lseek>
   15fa8:	01041703          	lh	a4,16(s0)
   15fac:	00813683          	ld	a3,8(sp)
   15fb0:	fffff7b7          	lui	a5,0xfffff
   15fb4:	fff7879b          	addiw	a5,a5,-1
   15fb8:	00f777b3          	and	a5,a4,a5
   15fbc:	01241503          	lh	a0,18(s0)
   15fc0:	00f41823          	sh	a5,16(s0)
   15fc4:	00048593          	mv	a1,s1
   15fc8:	02813083          	ld	ra,40(sp)
   15fcc:	02013403          	ld	s0,32(sp)
   15fd0:	01813483          	ld	s1,24(sp)
   15fd4:	00068613          	mv	a2,a3
   15fd8:	03010113          	addi	sp,sp,48
   15fdc:	7700206f          	j	1874c <write>

0000000000015fe0 <__sseek>:
   15fe0:	01259503          	lh	a0,18(a1)
   15fe4:	ff010113          	addi	sp,sp,-16
   15fe8:	00813023          	sd	s0,0(sp)
   15fec:	00058413          	mv	s0,a1
   15ff0:	00060593          	mv	a1,a2
   15ff4:	00068613          	mv	a2,a3
   15ff8:	00113423          	sd	ra,8(sp)
   15ffc:	724020ef          	jal	18720 <lseek>
   16000:	fff00793          	li	a5,-1
   16004:	01045703          	lhu	a4,16(s0)
   16008:	02f50263          	beq	a0,a5,1602c <__sseek+0x4c>
   1600c:	00813083          	ld	ra,8(sp)
   16010:	000017b7          	lui	a5,0x1
   16014:	00f767b3          	or	a5,a4,a5
   16018:	08a42623          	sw	a0,140(s0)
   1601c:	00f41823          	sh	a5,16(s0)
   16020:	00013403          	ld	s0,0(sp)
   16024:	01010113          	addi	sp,sp,16
   16028:	00008067          	ret
   1602c:	fffff7b7          	lui	a5,0xfffff
   16030:	00813083          	ld	ra,8(sp)
   16034:	fff7879b          	addiw	a5,a5,-1
   16038:	00f777b3          	and	a5,a4,a5
   1603c:	00f41823          	sh	a5,16(s0)
   16040:	00013403          	ld	s0,0(sp)
   16044:	01010113          	addi	sp,sp,16
   16048:	00008067          	ret

000000000001604c <__sclose>:
   1604c:	01259503          	lh	a0,18(a1)
   16050:	7ac0206f          	j	187fc <close>

0000000000016054 <strcmp>:
   16054:	00b56733          	or	a4,a0,a1
   16058:	fff00393          	li	t2,-1
   1605c:	00777713          	andi	a4,a4,7
   16060:	0c071c63          	bnez	a4,16138 <strcmp+0xe4>
   16064:	00007e17          	auipc	t3,0x7
   16068:	094e3e03          	ld	t3,148(t3) # 1d0f8 <mask>
   1606c:	00053603          	ld	a2,0(a0)
   16070:	0005b683          	ld	a3,0(a1)
   16074:	01c672b3          	and	t0,a2,t3
   16078:	01c66333          	or	t1,a2,t3
   1607c:	01c282b3          	add	t0,t0,t3
   16080:	0062e2b3          	or	t0,t0,t1
   16084:	0c729e63          	bne	t0,t2,16160 <strcmp+0x10c>
   16088:	04d61663          	bne	a2,a3,160d4 <strcmp+0x80>
   1608c:	00853603          	ld	a2,8(a0)
   16090:	0085b683          	ld	a3,8(a1)
   16094:	01c672b3          	and	t0,a2,t3
   16098:	01c66333          	or	t1,a2,t3
   1609c:	01c282b3          	add	t0,t0,t3
   160a0:	0062e2b3          	or	t0,t0,t1
   160a4:	0a729a63          	bne	t0,t2,16158 <strcmp+0x104>
   160a8:	02d61663          	bne	a2,a3,160d4 <strcmp+0x80>
   160ac:	01053603          	ld	a2,16(a0)
   160b0:	0105b683          	ld	a3,16(a1)
   160b4:	01c672b3          	and	t0,a2,t3
   160b8:	01c66333          	or	t1,a2,t3
   160bc:	01c282b3          	add	t0,t0,t3
   160c0:	0062e2b3          	or	t0,t0,t1
   160c4:	0a729463          	bne	t0,t2,1616c <strcmp+0x118>
   160c8:	01850513          	addi	a0,a0,24
   160cc:	01858593          	addi	a1,a1,24
   160d0:	f8d60ee3          	beq	a2,a3,1606c <strcmp+0x18>
   160d4:	03061713          	slli	a4,a2,0x30
   160d8:	03069793          	slli	a5,a3,0x30
   160dc:	02f71a63          	bne	a4,a5,16110 <strcmp+0xbc>
   160e0:	02061713          	slli	a4,a2,0x20
   160e4:	02069793          	slli	a5,a3,0x20
   160e8:	02f71463          	bne	a4,a5,16110 <strcmp+0xbc>
   160ec:	01061713          	slli	a4,a2,0x10
   160f0:	01069793          	slli	a5,a3,0x10
   160f4:	00f71e63          	bne	a4,a5,16110 <strcmp+0xbc>
   160f8:	03065713          	srli	a4,a2,0x30
   160fc:	0306d793          	srli	a5,a3,0x30
   16100:	40f70533          	sub	a0,a4,a5
   16104:	0ff57593          	andi	a1,a0,255
   16108:	02059063          	bnez	a1,16128 <strcmp+0xd4>
   1610c:	00008067          	ret
   16110:	03075713          	srli	a4,a4,0x30
   16114:	0307d793          	srli	a5,a5,0x30
   16118:	40f70533          	sub	a0,a4,a5
   1611c:	0ff57593          	andi	a1,a0,255
   16120:	00059463          	bnez	a1,16128 <strcmp+0xd4>
   16124:	00008067          	ret
   16128:	0ff77713          	andi	a4,a4,255
   1612c:	0ff7f793          	andi	a5,a5,255
   16130:	40f70533          	sub	a0,a4,a5
   16134:	00008067          	ret
   16138:	00054603          	lbu	a2,0(a0)
   1613c:	0005c683          	lbu	a3,0(a1)
   16140:	00150513          	addi	a0,a0,1
   16144:	00158593          	addi	a1,a1,1
   16148:	00d61463          	bne	a2,a3,16150 <strcmp+0xfc>
   1614c:	fe0616e3          	bnez	a2,16138 <strcmp+0xe4>
   16150:	40d60533          	sub	a0,a2,a3
   16154:	00008067          	ret
   16158:	00850513          	addi	a0,a0,8
   1615c:	00858593          	addi	a1,a1,8
   16160:	fcd61ce3          	bne	a2,a3,16138 <strcmp+0xe4>
   16164:	00000513          	li	a0,0
   16168:	00008067          	ret
   1616c:	01050513          	addi	a0,a0,16
   16170:	01058593          	addi	a1,a1,16
   16174:	fcd612e3          	bne	a2,a3,16138 <strcmp+0xe4>
   16178:	00000513          	li	a0,0
   1617c:	00008067          	ret

0000000000016180 <strlen>:
   16180:	03d51793          	slli	a5,a0,0x3d
   16184:	00050693          	mv	a3,a0
   16188:	06079a63          	bnez	a5,161fc <strlen+0x7c>
   1618c:	8981b603          	ld	a2,-1896(gp) # 1d0f8 <mask>
   16190:	fff00593          	li	a1,-1
   16194:	00868693          	addi	a3,a3,8 # 7ff00008 <_gp+0x7fee27a8>
   16198:	ff86b703          	ld	a4,-8(a3)
   1619c:	00c777b3          	and	a5,a4,a2
   161a0:	00c787b3          	add	a5,a5,a2
   161a4:	00c76733          	or	a4,a4,a2
   161a8:	00f767b3          	or	a5,a4,a5
   161ac:	feb784e3          	beq	a5,a1,16194 <strlen+0x14>
   161b0:	ff86c703          	lbu	a4,-8(a3)
   161b4:	40a687b3          	sub	a5,a3,a0
   161b8:	ff96c603          	lbu	a2,-7(a3)
   161bc:	ffa6c583          	lbu	a1,-6(a3)
   161c0:	ffb6c503          	lbu	a0,-5(a3)
   161c4:	04070c63          	beqz	a4,1621c <strlen+0x9c>
   161c8:	04060663          	beqz	a2,16214 <strlen+0x94>
   161cc:	06058063          	beqz	a1,1622c <strlen+0xac>
   161d0:	04050a63          	beqz	a0,16224 <strlen+0xa4>
   161d4:	ffc6c703          	lbu	a4,-4(a3)
   161d8:	ffd6c603          	lbu	a2,-3(a3)
   161dc:	ffe6c683          	lbu	a3,-2(a3)
   161e0:	04070a63          	beqz	a4,16234 <strlen+0xb4>
   161e4:	04060c63          	beqz	a2,1623c <strlen+0xbc>
   161e8:	fff78513          	addi	a0,a5,-1 # ffffffffffffefff <_gp+0xfffffffffffe179f>
   161ec:	04068c63          	beqz	a3,16244 <strlen+0xc4>
   161f0:	00008067          	ret
   161f4:	03d69793          	slli	a5,a3,0x3d
   161f8:	f8078ae3          	beqz	a5,1618c <strlen+0xc>
   161fc:	0006c783          	lbu	a5,0(a3)
   16200:	00168693          	addi	a3,a3,1
   16204:	fe0798e3          	bnez	a5,161f4 <strlen+0x74>
   16208:	40a68533          	sub	a0,a3,a0
   1620c:	fff50513          	addi	a0,a0,-1
   16210:	00008067          	ret
   16214:	ff978513          	addi	a0,a5,-7
   16218:	00008067          	ret
   1621c:	ff878513          	addi	a0,a5,-8
   16220:	00008067          	ret
   16224:	ffb78513          	addi	a0,a5,-5
   16228:	00008067          	ret
   1622c:	ffa78513          	addi	a0,a5,-6
   16230:	00008067          	ret
   16234:	ffc78513          	addi	a0,a5,-4
   16238:	00008067          	ret
   1623c:	ffd78513          	addi	a0,a5,-3
   16240:	00008067          	ret
   16244:	ffe78513          	addi	a0,a5,-2
   16248:	00008067          	ret

000000000001624c <__sprint_r.part.0>:
   1624c:	0a45a783          	lw	a5,164(a1)
   16250:	fb010113          	addi	sp,sp,-80
   16254:	03413023          	sd	s4,32(sp)
   16258:	03279713          	slli	a4,a5,0x32
   1625c:	01613823          	sd	s6,16(sp)
   16260:	04113423          	sd	ra,72(sp)
   16264:	04813023          	sd	s0,64(sp)
   16268:	02913c23          	sd	s1,56(sp)
   1626c:	03213823          	sd	s2,48(sp)
   16270:	03313423          	sd	s3,40(sp)
   16274:	01513c23          	sd	s5,24(sp)
   16278:	01713423          	sd	s7,8(sp)
   1627c:	00058a13          	mv	s4,a1
   16280:	00060b13          	mv	s6,a2
   16284:	0a075663          	bgez	a4,16330 <__sprint_r.part.0+0xe4>
   16288:	00c62783          	lw	a5,12(a2) # 7fe0000c <_gp+0x7fde27ac>
   1628c:	00050a93          	mv	s5,a0
   16290:	00063b83          	ld	s7,0(a2)
   16294:	fff00993          	li	s3,-1
   16298:	08078863          	beqz	a5,16328 <__sprint_r.part.0+0xdc>
   1629c:	008bb903          	ld	s2,8(s7)
   162a0:	000bb483          	ld	s1,0(s7)
   162a4:	00000413          	li	s0,0
   162a8:	00295913          	srli	s2,s2,0x2
   162ac:	0009091b          	sext.w	s2,s2
   162b0:	01204863          	bgtz	s2,162c0 <__sprint_r.part.0+0x74>
   162b4:	0600006f          	j	16314 <__sprint_r.part.0+0xc8>
   162b8:	00448493          	addi	s1,s1,4
   162bc:	05240a63          	beq	s0,s2,16310 <__sprint_r.part.0+0xc4>
   162c0:	0004a583          	lw	a1,0(s1)
   162c4:	000a8513          	mv	a0,s5
   162c8:	000a0613          	mv	a2,s4
   162cc:	2dc010ef          	jal	175a8 <_fputwc_r>
   162d0:	0014041b          	addiw	s0,s0,1
   162d4:	ff3512e3          	bne	a0,s3,162b8 <__sprint_r.part.0+0x6c>
   162d8:	00098513          	mv	a0,s3
   162dc:	04813083          	ld	ra,72(sp)
   162e0:	000b2623          	sw	zero,12(s6)
   162e4:	000b2423          	sw	zero,8(s6)
   162e8:	04013403          	ld	s0,64(sp)
   162ec:	03813483          	ld	s1,56(sp)
   162f0:	03013903          	ld	s2,48(sp)
   162f4:	02813983          	ld	s3,40(sp)
   162f8:	02013a03          	ld	s4,32(sp)
   162fc:	01813a83          	ld	s5,24(sp)
   16300:	01013b03          	ld	s6,16(sp)
   16304:	00813b83          	ld	s7,8(sp)
   16308:	05010113          	addi	sp,sp,80
   1630c:	00008067          	ret
   16310:	00cb2783          	lw	a5,12(s6)
   16314:	0029191b          	slliw	s2,s2,0x2
   16318:	412787bb          	subw	a5,a5,s2
   1631c:	00fb2623          	sw	a5,12(s6)
   16320:	010b8b93          	addi	s7,s7,16
   16324:	f6079ce3          	bnez	a5,1629c <__sprint_r.part.0+0x50>
   16328:	00000513          	li	a0,0
   1632c:	fb1ff06f          	j	162dc <__sprint_r.part.0+0x90>
   16330:	454010ef          	jal	17784 <__sfvwrite_r>
   16334:	fa9ff06f          	j	162dc <__sprint_r.part.0+0x90>

0000000000016338 <__sprint_r>:
   16338:	00c62703          	lw	a4,12(a2)
   1633c:	00070463          	beqz	a4,16344 <__sprint_r+0xc>
   16340:	f0dff06f          	j	1624c <__sprint_r.part.0>
   16344:	00062423          	sw	zero,8(a2)
   16348:	00000513          	li	a0,0
   1634c:	00008067          	ret

0000000000016350 <_vfiprintf_r>:
   16350:	a6010113          	addi	sp,sp,-1440
   16354:	57513423          	sd	s5,1384(sp)
   16358:	55713c23          	sd	s7,1368(sp)
   1635c:	55913423          	sd	s9,1352(sp)
   16360:	58113c23          	sd	ra,1432(sp)
   16364:	58813823          	sd	s0,1424(sp)
   16368:	58913423          	sd	s1,1416(sp)
   1636c:	59213023          	sd	s2,1408(sp)
   16370:	57313c23          	sd	s3,1400(sp)
   16374:	57413823          	sd	s4,1392(sp)
   16378:	57613023          	sd	s6,1376(sp)
   1637c:	55813823          	sd	s8,1360(sp)
   16380:	55a13023          	sd	s10,1344(sp)
   16384:	53b13c23          	sd	s11,1336(sp)
   16388:	00050a93          	mv	s5,a0
   1638c:	00058c93          	mv	s9,a1
   16390:	00060b93          	mv	s7,a2
   16394:	02d13823          	sd	a3,48(sp)
   16398:	00050663          	beqz	a0,163a4 <_vfiprintf_r+0x54>
   1639c:	05052783          	lw	a5,80(a0)
   163a0:	28078263          	beqz	a5,16624 <_vfiprintf_r+0x2d4>
   163a4:	010c9703          	lh	a4,16(s9)
   163a8:	03071793          	slli	a5,a4,0x30
   163ac:	0307d793          	srli	a5,a5,0x30
   163b0:	03279513          	slli	a0,a5,0x32
   163b4:	02054a63          	bltz	a0,163e8 <_vfiprintf_r+0x98>
   163b8:	0a4ca683          	lw	a3,164(s9)
   163bc:	000027b7          	lui	a5,0x2
   163c0:	00f76733          	or	a4,a4,a5
   163c4:	ffffe7b7          	lui	a5,0xffffe
   163c8:	0107171b          	slliw	a4,a4,0x10
   163cc:	fff7879b          	addiw	a5,a5,-1
   163d0:	4107571b          	sraiw	a4,a4,0x10
   163d4:	00f6f7b3          	and	a5,a3,a5
   163d8:	0afca223          	sw	a5,164(s9)
   163dc:	03071793          	slli	a5,a4,0x30
   163e0:	00ec9823          	sh	a4,16(s9)
   163e4:	0307d793          	srli	a5,a5,0x30
   163e8:	0087f693          	andi	a3,a5,8
   163ec:	12068e63          	beqz	a3,16528 <_vfiprintf_r+0x1d8>
   163f0:	018cb683          	ld	a3,24(s9)
   163f4:	12068a63          	beqz	a3,16528 <_vfiprintf_r+0x1d8>
   163f8:	01a7f793          	andi	a5,a5,26
   163fc:	00a00693          	li	a3,10
   16400:	14d78863          	beq	a5,a3,16550 <_vfiprintf_r+0x200>
   16404:	0af10893          	addi	a7,sp,175
   16408:	0b010793          	addi	a5,sp,176
   1640c:	13010b13          	addi	s6,sp,304
   16410:	02f13423          	sd	a5,40(sp)
   16414:	03113023          	sd	a7,32(sp)
   16418:	411787b3          	sub	a5,a5,a7
   1641c:	0001b8b7          	lui	a7,0x1b
   16420:	07613c23          	sd	s6,120(sp)
   16424:	08012223          	sw	zero,132(sp)
   16428:	08012023          	sw	zero,128(sp)
   1642c:	04013823          	sd	zero,80(sp)
   16430:	02012e23          	sw	zero,60(sp)
   16434:	000b0713          	mv	a4,s6
   16438:	aa088c13          	addi	s8,a7,-1376 # 1aaa0 <blanks.3893>
   1643c:	04f12e23          	sw	a5,92(sp)
   16440:	000b8913          	mv	s2,s7
   16444:	00094783          	lbu	a5,0(s2)
   16448:	540784e3          	beqz	a5,17190 <_vfiprintf_r+0xe40>
   1644c:	02500693          	li	a3,37
   16450:	00090413          	mv	s0,s2
   16454:	00d79663          	bne	a5,a3,16460 <_vfiprintf_r+0x110>
   16458:	0580006f          	j	164b0 <_vfiprintf_r+0x160>
   1645c:	00d78863          	beq	a5,a3,1646c <_vfiprintf_r+0x11c>
   16460:	00140413          	addi	s0,s0,1
   16464:	00044783          	lbu	a5,0(s0)
   16468:	fe079ae3          	bnez	a5,1645c <_vfiprintf_r+0x10c>
   1646c:	41240a3b          	subw	s4,s0,s2
   16470:	040a0063          	beqz	s4,164b0 <_vfiprintf_r+0x160>
   16474:	08412683          	lw	a3,132(sp)
   16478:	08012783          	lw	a5,128(sp)
   1647c:	000a0613          	mv	a2,s4
   16480:	00c73423          	sd	a2,8(a4)
   16484:	00da06bb          	addw	a3,s4,a3
   16488:	0017879b          	addiw	a5,a5,1
   1648c:	00700613          	li	a2,7
   16490:	01273023          	sd	s2,0(a4)
   16494:	08d12223          	sw	a3,132(sp)
   16498:	08f12023          	sw	a5,128(sp)
   1649c:	01070713          	addi	a4,a4,16
   164a0:	06f64663          	blt	a2,a5,1650c <_vfiprintf_r+0x1bc>
   164a4:	03c12683          	lw	a3,60(sp)
   164a8:	014686bb          	addw	a3,a3,s4
   164ac:	02d12e23          	sw	a3,60(sp)
   164b0:	00044783          	lbu	a5,0(s0)
   164b4:	08078ce3          	beqz	a5,16d4c <_vfiprintf_r+0x9fc>
   164b8:	00140413          	addi	s0,s0,1
   164bc:	060107a3          	sb	zero,111(sp)
   164c0:	00000513          	li	a0,0
   164c4:	fff00b93          	li	s7,-1
   164c8:	00000a13          	li	s4,0
   164cc:	00000813          	li	a6,0
   164d0:	05800693          	li	a3,88
   164d4:	00900593          	li	a1,9
   164d8:	02a00293          	li	t0,42
   164dc:	00044603          	lbu	a2,0(s0)
   164e0:	00140913          	addi	s2,s0,1
   164e4:	fe06079b          	addiw	a5,a2,-32
   164e8:	72f6e463          	bltu	a3,a5,16c10 <_vfiprintf_r+0x8c0>
   164ec:	02079793          	slli	a5,a5,0x20
   164f0:	0207d793          	srli	a5,a5,0x20
   164f4:	0001b8b7          	lui	a7,0x1b
   164f8:	00279793          	slli	a5,a5,0x2
   164fc:	93888893          	addi	a7,a7,-1736 # 1a938 <__mprec_bigtens+0x28>
   16500:	011787b3          	add	a5,a5,a7
   16504:	0007a783          	lw	a5,0(a5) # ffffffffffffe000 <_gp+0xfffffffffffe07a0>
   16508:	00078067          	jr	a5
   1650c:	38069ee3          	bnez	a3,170a8 <_vfiprintf_r+0xd58>
   16510:	08012023          	sw	zero,128(sp)
   16514:	000b0713          	mv	a4,s6
   16518:	f8dff06f          	j	164a4 <_vfiprintf_r+0x154>
   1651c:	01086813          	ori	a6,a6,16
   16520:	00090413          	mv	s0,s2
   16524:	fb9ff06f          	j	164dc <_vfiprintf_r+0x18c>
   16528:	000a8513          	mv	a0,s5
   1652c:	000c8593          	mv	a1,s9
   16530:	919fb0ef          	jal	11e48 <__swsetup_r>
   16534:	0a051863          	bnez	a0,165e4 <_vfiprintf_r+0x294>
   16538:	010c9703          	lh	a4,16(s9)
   1653c:	00a00693          	li	a3,10
   16540:	03071793          	slli	a5,a4,0x30
   16544:	0307d793          	srli	a5,a5,0x30
   16548:	01a7f793          	andi	a5,a5,26
   1654c:	ead79ce3          	bne	a5,a3,16404 <_vfiprintf_r+0xb4>
   16550:	012c9783          	lh	a5,18(s9)
   16554:	ea07c8e3          	bltz	a5,16404 <_vfiprintf_r+0xb4>
   16558:	0a4cae03          	lw	t3,164(s9)
   1655c:	030cb383          	ld	t2,48(s9)
   16560:	040cb303          	ld	t1,64(s9)
   16564:	03013683          	ld	a3,48(sp)
   16568:	ffd77713          	andi	a4,a4,-3
   1656c:	40000893          	li	a7,1024
   16570:	08e11c23          	sh	a4,152(sp)
   16574:	000a8513          	mv	a0,s5
   16578:	13010713          	addi	a4,sp,304
   1657c:	08810593          	addi	a1,sp,136
   16580:	000b8613          	mv	a2,s7
   16584:	13c12623          	sw	t3,300(sp)
   16588:	08f11d23          	sh	a5,154(sp)
   1658c:	0a713c23          	sd	t2,184(sp)
   16590:	0c613423          	sd	t1,200(sp)
   16594:	08e13423          	sd	a4,136(sp)
   16598:	0ae13023          	sd	a4,160(sp)
   1659c:	09112a23          	sw	a7,148(sp)
   165a0:	0b112423          	sw	a7,168(sp)
   165a4:	0a012823          	sw	zero,176(sp)
   165a8:	da9ff0ef          	jal	16350 <_vfiprintf_r>
   165ac:	00050b13          	mv	s6,a0
   165b0:	00054a63          	bltz	a0,165c4 <_vfiprintf_r+0x274>
   165b4:	000a8513          	mv	a0,s5
   165b8:	08810593          	addi	a1,sp,136
   165bc:	f7dfc0ef          	jal	13538 <_fflush_r>
   165c0:	5c0514e3          	bnez	a0,17388 <_vfiprintf_r+0x1038>
   165c4:	09815783          	lhu	a5,152(sp)
   165c8:	0407f793          	andi	a5,a5,64
   165cc:	00078863          	beqz	a5,165dc <_vfiprintf_r+0x28c>
   165d0:	010cd783          	lhu	a5,16(s9)
   165d4:	0407e793          	ori	a5,a5,64
   165d8:	00fc9823          	sh	a5,16(s9)
   165dc:	000b0513          	mv	a0,s6
   165e0:	0080006f          	j	165e8 <_vfiprintf_r+0x298>
   165e4:	fff00513          	li	a0,-1
   165e8:	59813083          	ld	ra,1432(sp)
   165ec:	59013403          	ld	s0,1424(sp)
   165f0:	58813483          	ld	s1,1416(sp)
   165f4:	58013903          	ld	s2,1408(sp)
   165f8:	57813983          	ld	s3,1400(sp)
   165fc:	57013a03          	ld	s4,1392(sp)
   16600:	56813a83          	ld	s5,1384(sp)
   16604:	56013b03          	ld	s6,1376(sp)
   16608:	55813b83          	ld	s7,1368(sp)
   1660c:	55013c03          	ld	s8,1360(sp)
   16610:	54813c83          	ld	s9,1352(sp)
   16614:	54013d03          	ld	s10,1344(sp)
   16618:	53813d83          	ld	s11,1336(sp)
   1661c:	5a010113          	addi	sp,sp,1440
   16620:	00008067          	ret
   16624:	d04fd0ef          	jal	13b28 <__sinit>
   16628:	d7dff06f          	j	163a4 <_vfiprintf_r+0x54>
   1662c:	03013783          	ld	a5,48(sp)
   16630:	00090413          	mv	s0,s2
   16634:	0007aa03          	lw	s4,0(a5)
   16638:	00878793          	addi	a5,a5,8
   1663c:	02f13823          	sd	a5,48(sp)
   16640:	e80a5ee3          	bgez	s4,164dc <_vfiprintf_r+0x18c>
   16644:	41400a3b          	negw	s4,s4
   16648:	00486813          	ori	a6,a6,4
   1664c:	00090413          	mv	s0,s2
   16650:	e8dff06f          	j	164dc <_vfiprintf_r+0x18c>
   16654:	00090413          	mv	s0,s2
   16658:	02b00513          	li	a0,43
   1665c:	e81ff06f          	j	164dc <_vfiprintf_r+0x18c>
   16660:	08086813          	ori	a6,a6,128
   16664:	00090413          	mv	s0,s2
   16668:	e75ff06f          	j	164dc <_vfiprintf_r+0x18c>
   1666c:	00000a13          	li	s4,0
   16670:	fd06079b          	addiw	a5,a2,-48
   16674:	00190913          	addi	s2,s2,1
   16678:	fff94603          	lbu	a2,-1(s2)
   1667c:	001a189b          	slliw	a7,s4,0x1
   16680:	003a1a1b          	slliw	s4,s4,0x3
   16684:	01488a3b          	addw	s4,a7,s4
   16688:	00fa0a3b          	addw	s4,s4,a5
   1668c:	fd06079b          	addiw	a5,a2,-48
   16690:	fef5f2e3          	bleu	a5,a1,16674 <_vfiprintf_r+0x324>
   16694:	e51ff06f          	j	164e4 <_vfiprintf_r+0x194>
   16698:	01086993          	ori	s3,a6,16
   1669c:	03b99893          	slli	a7,s3,0x3b
   166a0:	06a107a3          	sb	a0,111(sp)
   166a4:	03013783          	ld	a5,48(sp)
   166a8:	4a08de63          	bgez	a7,16b64 <_vfiprintf_r+0x814>
   166ac:	03013683          	ld	a3,48(sp)
   166b0:	00868693          	addi	a3,a3,8
   166b4:	02d13823          	sd	a3,48(sp)
   166b8:	0007b683          	ld	a3,0(a5)
   166bc:	2e06c2e3          	bltz	a3,171a0 <_vfiprintf_r+0xe50>
   166c0:	06f14583          	lbu	a1,111(sp)
   166c4:	000b8493          	mv	s1,s7
   166c8:	00100793          	li	a5,1
   166cc:	000bc463          	bltz	s7,166d4 <_vfiprintf_r+0x384>
   166d0:	f7f9f993          	andi	s3,s3,-129
   166d4:	62069463          	bnez	a3,16cfc <_vfiprintf_r+0x9ac>
   166d8:	100b82e3          	beqz	s7,16fdc <_vfiprintf_r+0xc8c>
   166dc:	00100613          	li	a2,1
   166e0:	2ac78ce3          	beq	a5,a2,17198 <_vfiprintf_r+0xe48>
   166e4:	00200613          	li	a2,2
   166e8:	12c790e3          	bne	a5,a2,17008 <_vfiprintf_r+0xcb8>
   166ec:	05013603          	ld	a2,80(sp)
   166f0:	0b010d13          	addi	s10,sp,176
   166f4:	00f6f793          	andi	a5,a3,15
   166f8:	00f607b3          	add	a5,a2,a5
   166fc:	0007c783          	lbu	a5,0(a5)
   16700:	fffd0d13          	addi	s10,s10,-1
   16704:	0046d693          	srli	a3,a3,0x4
   16708:	00fd0023          	sb	a5,0(s10)
   1670c:	fe0694e3          	bnez	a3,166f4 <_vfiprintf_r+0x3a4>
   16710:	02813683          	ld	a3,40(sp)
   16714:	05a13023          	sd	s10,64(sp)
   16718:	41a684bb          	subw	s1,a3,s10
   1671c:	00048413          	mv	s0,s1
   16720:	0174d463          	ble	s7,s1,16728 <_vfiprintf_r+0x3d8>
   16724:	000b8413          	mv	s0,s7
   16728:	00b035b3          	snez	a1,a1
   1672c:	00b4043b          	addw	s0,s0,a1
   16730:	0029fe13          	andi	t3,s3,2
   16734:	000e0463          	beqz	t3,1673c <_vfiprintf_r+0x3ec>
   16738:	0024041b          	addiw	s0,s0,2
   1673c:	0849fd93          	andi	s11,s3,132
   16740:	520d9e63          	bnez	s11,16c7c <_vfiprintf_r+0x92c>
   16744:	408a0d3b          	subw	s10,s4,s0
   16748:	53a05a63          	blez	s10,16c7c <_vfiprintf_r+0x92c>
   1674c:	01000793          	li	a5,16
   16750:	08412683          	lw	a3,132(sp)
   16754:	3ba7dae3          	ble	s10,a5,17308 <_vfiprintf_r+0xfb8>
   16758:	01000793          	li	a5,16
   1675c:	04812c23          	sw	s0,88(sp)
   16760:	08012503          	lw	a0,128(sp)
   16764:	000d0413          	mv	s0,s10
   16768:	05813423          	sd	s8,72(sp)
   1676c:	00090d13          	mv	s10,s2
   16770:	00700393          	li	t2,7
   16774:	00078f13          	mv	t5,a5
   16778:	000e0913          	mv	s2,t3
   1677c:	0180006f          	j	16794 <_vfiprintf_r+0x444>
   16780:	0025061b          	addiw	a2,a0,2
   16784:	01070713          	addi	a4,a4,16
   16788:	00058513          	mv	a0,a1
   1678c:	ff04041b          	addiw	s0,s0,-16
   16790:	028f5c63          	ble	s0,t5,167c8 <_vfiprintf_r+0x478>
   16794:	0106869b          	addiw	a3,a3,16
   16798:	0015059b          	addiw	a1,a0,1
   1679c:	01873023          	sd	s8,0(a4)
   167a0:	00f73423          	sd	a5,8(a4)
   167a4:	08d12223          	sw	a3,132(sp)
   167a8:	08b12023          	sw	a1,128(sp)
   167ac:	fcb3dae3          	ble	a1,t2,16780 <_vfiprintf_r+0x430>
   167b0:	48069663          	bnez	a3,16c3c <_vfiprintf_r+0x8ec>
   167b4:	ff04041b          	addiw	s0,s0,-16
   167b8:	00000513          	li	a0,0
   167bc:	00100613          	li	a2,1
   167c0:	000b0713          	mv	a4,s6
   167c4:	fc8f48e3          	blt	t5,s0,16794 <_vfiprintf_r+0x444>
   167c8:	00090e13          	mv	t3,s2
   167cc:	000d0913          	mv	s2,s10
   167d0:	00040d13          	mv	s10,s0
   167d4:	05812403          	lw	s0,88(sp)
   167d8:	04813883          	ld	a7,72(sp)
   167dc:	00dd07bb          	addw	a5,s10,a3
   167e0:	00700693          	li	a3,7
   167e4:	01173023          	sd	a7,0(a4)
   167e8:	01a73423          	sd	s10,8(a4)
   167ec:	08f12223          	sw	a5,132(sp)
   167f0:	08c12023          	sw	a2,128(sp)
   167f4:	04c6c4e3          	blt	a3,a2,1703c <_vfiprintf_r+0xcec>
   167f8:	06f14683          	lbu	a3,111(sp)
   167fc:	01070713          	addi	a4,a4,16
   16800:	0016059b          	addiw	a1,a2,1
   16804:	48069663          	bnez	a3,16c90 <_vfiprintf_r+0x940>
   16808:	020e0a63          	beqz	t3,1683c <_vfiprintf_r+0x4ec>
   1680c:	07010693          	addi	a3,sp,112
   16810:	00d73023          	sd	a3,0(a4)
   16814:	00200693          	li	a3,2
   16818:	0027879b          	addiw	a5,a5,2
   1681c:	00d73423          	sd	a3,8(a4)
   16820:	00700693          	li	a3,7
   16824:	08f12223          	sw	a5,132(sp)
   16828:	08b12023          	sw	a1,128(sp)
   1682c:	78b6ce63          	blt	a3,a1,16fc8 <_vfiprintf_r+0xc78>
   16830:	00058613          	mv	a2,a1
   16834:	01070713          	addi	a4,a4,16
   16838:	0015859b          	addiw	a1,a1,1
   1683c:	08000693          	li	a3,128
   16840:	68dd8463          	beq	s11,a3,16ec8 <_vfiprintf_r+0xb78>
   16844:	409b8dbb          	subw	s11,s7,s1
   16848:	09b05c63          	blez	s11,168e0 <_vfiprintf_r+0x590>
   1684c:	0001b837          	lui	a6,0x1b
   16850:	01000693          	li	a3,16
   16854:	ab080d13          	addi	s10,a6,-1360 # 1aab0 <zeroes.3894>
   16858:	07b6d263          	ble	s11,a3,168bc <_vfiprintf_r+0x56c>
   1685c:	01000b93          	li	s7,16
   16860:	0001b837          	lui	a6,0x1b
   16864:	ab080d13          	addi	s10,a6,-1360 # 1aab0 <zeroes.3894>
   16868:	00700393          	li	t2,7
   1686c:	000b8e13          	mv	t3,s7
   16870:	0180006f          	j	16888 <_vfiprintf_r+0x538>
   16874:	0026059b          	addiw	a1,a2,2
   16878:	01070713          	addi	a4,a4,16
   1687c:	00068613          	mv	a2,a3
   16880:	ff0d8d9b          	addiw	s11,s11,-16
   16884:	03be5c63          	ble	s11,t3,168bc <_vfiprintf_r+0x56c>
   16888:	0107879b          	addiw	a5,a5,16
   1688c:	0016069b          	addiw	a3,a2,1
   16890:	01a73023          	sd	s10,0(a4)
   16894:	01773423          	sd	s7,8(a4)
   16898:	08f12223          	sw	a5,132(sp)
   1689c:	08d12023          	sw	a3,128(sp)
   168a0:	fcd3dae3          	ble	a3,t2,16874 <_vfiprintf_r+0x524>
   168a4:	42079063          	bnez	a5,16cc4 <_vfiprintf_r+0x974>
   168a8:	ff0d8d9b          	addiw	s11,s11,-16
   168ac:	00000613          	li	a2,0
   168b0:	00100593          	li	a1,1
   168b4:	000b0713          	mv	a4,s6
   168b8:	fdbe48e3          	blt	t3,s11,16888 <_vfiprintf_r+0x538>
   168bc:	01b787bb          	addw	a5,a5,s11
   168c0:	00700693          	li	a3,7
   168c4:	01a73023          	sd	s10,0(a4)
   168c8:	01b73423          	sd	s11,8(a4)
   168cc:	08f12223          	sw	a5,132(sp)
   168d0:	08b12023          	sw	a1,128(sp)
   168d4:	4ab6c263          	blt	a3,a1,16d78 <_vfiprintf_r+0xa28>
   168d8:	01070713          	addi	a4,a4,16
   168dc:	0015859b          	addiw	a1,a1,1
   168e0:	00f482bb          	addw	t0,s1,a5
   168e4:	04013783          	ld	a5,64(sp)
   168e8:	00973423          	sd	s1,8(a4)
   168ec:	08512223          	sw	t0,132(sp)
   168f0:	00f73023          	sd	a5,0(a4)
   168f4:	00700793          	li	a5,7
   168f8:	08b12023          	sw	a1,128(sp)
   168fc:	4ab7d063          	ble	a1,a5,16d9c <_vfiprintf_r+0xa4c>
   16900:	78029463          	bnez	t0,17088 <_vfiprintf_r+0xd38>
   16904:	03d99893          	slli	a7,s3,0x3d
   16908:	08012023          	sw	zero,128(sp)
   1690c:	7408cc63          	bltz	a7,17064 <_vfiprintf_r+0xd14>
   16910:	29444ee3          	blt	s0,s4,173ac <_vfiprintf_r+0x105c>
   16914:	03c12883          	lw	a7,60(sp)
   16918:	008888bb          	addw	a7,a7,s0
   1691c:	03112e23          	sw	a7,60(sp)
   16920:	5740006f          	j	16e94 <_vfiprintf_r+0xb44>
   16924:	01086993          	ori	s3,a6,16
   16928:	03b99513          	slli	a0,s3,0x3b
   1692c:	03013783          	ld	a5,48(sp)
   16930:	14055a63          	bgez	a0,16a84 <_vfiprintf_r+0x734>
   16934:	03013683          	ld	a3,48(sp)
   16938:	00868693          	addi	a3,a3,8
   1693c:	02d13823          	sd	a3,48(sp)
   16940:	0007b683          	ld	a3,0(a5)
   16944:	00000793          	li	a5,0
   16948:	060107a3          	sb	zero,111(sp)
   1694c:	000b8493          	mv	s1,s7
   16950:	00000593          	li	a1,0
   16954:	d79ff06f          	j	166cc <_vfiprintf_r+0x37c>
   16958:	01086993          	ori	s3,a6,16
   1695c:	03b99513          	slli	a0,s3,0x3b
   16960:	03013783          	ld	a5,48(sp)
   16964:	18055c63          	bgez	a0,16afc <_vfiprintf_r+0x7ac>
   16968:	03013683          	ld	a3,48(sp)
   1696c:	00868693          	addi	a3,a3,8
   16970:	02d13823          	sd	a3,48(sp)
   16974:	0007b683          	ld	a3,0(a5)
   16978:	00100793          	li	a5,1
   1697c:	fcdff06f          	j	16948 <_vfiprintf_r+0x5f8>
   16980:	0001b6b7          	lui	a3,0x1b
   16984:	06a107a3          	sb	a0,111(sp)
   16988:	c1068693          	addi	a3,a3,-1008 # 1ac10 <__clz_tab+0x128>
   1698c:	03b81513          	slli	a0,a6,0x3b
   16990:	00080993          	mv	s3,a6
   16994:	03013783          	ld	a5,48(sp)
   16998:	04d13823          	sd	a3,80(sp)
   1699c:	12055a63          	bgez	a0,16ad0 <_vfiprintf_r+0x780>
   169a0:	03013683          	ld	a3,48(sp)
   169a4:	00868693          	addi	a3,a3,8
   169a8:	02d13823          	sd	a3,48(sp)
   169ac:	0007b683          	ld	a3,0(a5)
   169b0:	03f81893          	slli	a7,a6,0x3f
   169b4:	00200793          	li	a5,2
   169b8:	f808d8e3          	bgez	a7,16948 <_vfiprintf_r+0x5f8>
   169bc:	f80686e3          	beqz	a3,16948 <_vfiprintf_r+0x5f8>
   169c0:	03000593          	li	a1,48
   169c4:	06b10823          	sb	a1,112(sp)
   169c8:	06c108a3          	sb	a2,113(sp)
   169cc:	00286993          	ori	s3,a6,2
   169d0:	f79ff06f          	j	16948 <_vfiprintf_r+0x5f8>
   169d4:	03013683          	ld	a3,48(sp)
   169d8:	03013783          	ld	a5,48(sp)
   169dc:	060107a3          	sb	zero,111(sp)
   169e0:	0006b683          	ld	a3,0(a3)
   169e4:	00878d13          	addi	s10,a5,8
   169e8:	04d13023          	sd	a3,64(sp)
   169ec:	120686e3          	beqz	a3,17318 <_vfiprintf_r+0xfc8>
   169f0:	04013503          	ld	a0,64(sp)
   169f4:	0c0bc0e3          	bltz	s7,172b4 <_vfiprintf_r+0xf64>
   169f8:	00000593          	li	a1,0
   169fc:	000b8613          	mv	a2,s7
   16a00:	00e13823          	sd	a4,16(sp)
   16a04:	01013c23          	sd	a6,24(sp)
   16a08:	94cfe0ef          	jal	14b54 <memchr>
   16a0c:	01013703          	ld	a4,16(sp)
   16a10:	01813803          	ld	a6,24(sp)
   16a14:	140506e3          	beqz	a0,17360 <_vfiprintf_r+0x1010>
   16a18:	04013883          	ld	a7,64(sp)
   16a1c:	411504bb          	subw	s1,a0,a7
   16a20:	069bcae3          	blt	s7,s1,17294 <_vfiprintf_r+0xf44>
   16a24:	06f14583          	lbu	a1,111(sp)
   16a28:	00080993          	mv	s3,a6
   16a2c:	03a13823          	sd	s10,48(sp)
   16a30:	00000b93          	li	s7,0
   16a34:	ce9ff06f          	j	1671c <_vfiprintf_r+0x3cc>
   16a38:	00090413          	mv	s0,s2
   16a3c:	aa0510e3          	bnez	a0,164dc <_vfiprintf_r+0x18c>
   16a40:	02000513          	li	a0,32
   16a44:	a99ff06f          	j	164dc <_vfiprintf_r+0x18c>
   16a48:	03b81893          	slli	a7,a6,0x3b
   16a4c:	06a107a3          	sb	a0,111(sp)
   16a50:	7c08d063          	bgez	a7,17210 <_vfiprintf_r+0xec0>
   16a54:	03013683          	ld	a3,48(sp)
   16a58:	03013883          	ld	a7,48(sp)
   16a5c:	0006b783          	ld	a5,0(a3)
   16a60:	03c12683          	lw	a3,60(sp)
   16a64:	00888893          	addi	a7,a7,8
   16a68:	03113823          	sd	a7,48(sp)
   16a6c:	00d7b023          	sd	a3,0(a5)
   16a70:	9d5ff06f          	j	16444 <_vfiprintf_r+0xf4>
   16a74:	00080993          	mv	s3,a6
   16a78:	03b99513          	slli	a0,s3,0x3b
   16a7c:	03013783          	ld	a5,48(sp)
   16a80:	ea054ae3          	bltz	a0,16934 <_vfiprintf_r+0x5e4>
   16a84:	03999893          	slli	a7,s3,0x39
   16a88:	7408dc63          	bgez	a7,171e0 <_vfiprintf_r+0xe90>
   16a8c:	03013683          	ld	a3,48(sp)
   16a90:	00868693          	addi	a3,a3,8
   16a94:	02d13823          	sd	a3,48(sp)
   16a98:	0007d683          	lhu	a3,0(a5)
   16a9c:	00000793          	li	a5,0
   16aa0:	ea9ff06f          	j	16948 <_vfiprintf_r+0x5f8>
   16aa4:	04086813          	ori	a6,a6,64
   16aa8:	00090413          	mv	s0,s2
   16aac:	a31ff06f          	j	164dc <_vfiprintf_r+0x18c>
   16ab0:	0001b6b7          	lui	a3,0x1b
   16ab4:	06a107a3          	sb	a0,111(sp)
   16ab8:	c2868693          	addi	a3,a3,-984 # 1ac28 <__clz_tab+0x140>
   16abc:	03b81513          	slli	a0,a6,0x3b
   16ac0:	00080993          	mv	s3,a6
   16ac4:	03013783          	ld	a5,48(sp)
   16ac8:	04d13823          	sd	a3,80(sp)
   16acc:	ec054ae3          	bltz	a0,169a0 <_vfiprintf_r+0x650>
   16ad0:	03981893          	slli	a7,a6,0x39
   16ad4:	7608d063          	bgez	a7,17234 <_vfiprintf_r+0xee4>
   16ad8:	03013683          	ld	a3,48(sp)
   16adc:	00868693          	addi	a3,a3,8
   16ae0:	02d13823          	sd	a3,48(sp)
   16ae4:	0007d683          	lhu	a3,0(a5)
   16ae8:	ec9ff06f          	j	169b0 <_vfiprintf_r+0x660>
   16aec:	00080993          	mv	s3,a6
   16af0:	03b99513          	slli	a0,s3,0x3b
   16af4:	03013783          	ld	a5,48(sp)
   16af8:	e60548e3          	bltz	a0,16968 <_vfiprintf_r+0x618>
   16afc:	03999893          	slli	a7,s3,0x39
   16b00:	6e08dc63          	bgez	a7,171f8 <_vfiprintf_r+0xea8>
   16b04:	03013683          	ld	a3,48(sp)
   16b08:	00868693          	addi	a3,a3,8
   16b0c:	02d13823          	sd	a3,48(sp)
   16b10:	0007d683          	lhu	a3,0(a5)
   16b14:	00100793          	li	a5,1
   16b18:	e31ff06f          	j	16948 <_vfiprintf_r+0x5f8>
   16b1c:	03013683          	ld	a3,48(sp)
   16b20:	00100413          	li	s0,1
   16b24:	060107a3          	sb	zero,111(sp)
   16b28:	0006a783          	lw	a5,0(a3)
   16b2c:	00868693          	addi	a3,a3,8
   16b30:	00080993          	mv	s3,a6
   16b34:	08f10423          	sb	a5,136(sp)
   16b38:	08810793          	addi	a5,sp,136
   16b3c:	02d13823          	sd	a3,48(sp)
   16b40:	00040493          	mv	s1,s0
   16b44:	04f13023          	sd	a5,64(sp)
   16b48:	00000b93          	li	s7,0
   16b4c:	be5ff06f          	j	16730 <_vfiprintf_r+0x3e0>
   16b50:	00080993          	mv	s3,a6
   16b54:	03b99893          	slli	a7,s3,0x3b
   16b58:	06a107a3          	sb	a0,111(sp)
   16b5c:	03013783          	ld	a5,48(sp)
   16b60:	b408c6e3          	bltz	a7,166ac <_vfiprintf_r+0x35c>
   16b64:	03999893          	slli	a7,s3,0x39
   16b68:	6e08d063          	bgez	a7,17248 <_vfiprintf_r+0xef8>
   16b6c:	03013683          	ld	a3,48(sp)
   16b70:	00868693          	addi	a3,a3,8
   16b74:	02d13823          	sd	a3,48(sp)
   16b78:	00079683          	lh	a3,0(a5)
   16b7c:	b41ff06f          	j	166bc <_vfiprintf_r+0x36c>
   16b80:	00094603          	lbu	a2,0(s2)
   16b84:	00190413          	addi	s0,s2,1
   16b88:	005604e3          	beq	a2,t0,17390 <_vfiprintf_r+0x1040>
   16b8c:	fd06079b          	addiw	a5,a2,-48
   16b90:	00040913          	mv	s2,s0
   16b94:	00000b93          	li	s7,0
   16b98:	94f5e6e3          	bltu	a1,a5,164e4 <_vfiprintf_r+0x194>
   16b9c:	00190913          	addi	s2,s2,1
   16ba0:	fff94603          	lbu	a2,-1(s2)
   16ba4:	001b989b          	slliw	a7,s7,0x1
   16ba8:	003b9b9b          	slliw	s7,s7,0x3
   16bac:	01788bbb          	addw	s7,a7,s7
   16bb0:	01778bbb          	addw	s7,a5,s7
   16bb4:	fd06079b          	addiw	a5,a2,-48
   16bb8:	fef5f2e3          	bleu	a5,a1,16b9c <_vfiprintf_r+0x84c>
   16bbc:	920bd4e3          	bgez	s7,164e4 <_vfiprintf_r+0x194>
   16bc0:	fff00b93          	li	s7,-1
   16bc4:	921ff06f          	j	164e4 <_vfiprintf_r+0x194>
   16bc8:	03013783          	ld	a5,48(sp)
   16bcc:	03013883          	ld	a7,48(sp)
   16bd0:	00286993          	ori	s3,a6,2
   16bd4:	0007b683          	ld	a3,0(a5)
   16bd8:	03000793          	li	a5,48
   16bdc:	06f10823          	sb	a5,112(sp)
   16be0:	07800793          	li	a5,120
   16be4:	06f108a3          	sb	a5,113(sp)
   16be8:	0001b7b7          	lui	a5,0x1b
   16bec:	c2878793          	addi	a5,a5,-984 # 1ac28 <__clz_tab+0x140>
   16bf0:	00888893          	addi	a7,a7,8
   16bf4:	04f13823          	sd	a5,80(sp)
   16bf8:	03113823          	sd	a7,48(sp)
   16bfc:	00200793          	li	a5,2
   16c00:	d49ff06f          	j	16948 <_vfiprintf_r+0x5f8>
   16c04:	00186813          	ori	a6,a6,1
   16c08:	00090413          	mv	s0,s2
   16c0c:	8d1ff06f          	j	164dc <_vfiprintf_r+0x18c>
   16c10:	06a107a3          	sb	a0,111(sp)
   16c14:	12060c63          	beqz	a2,16d4c <_vfiprintf_r+0x9fc>
   16c18:	00100413          	li	s0,1
   16c1c:	08810693          	addi	a3,sp,136
   16c20:	08c10423          	sb	a2,136(sp)
   16c24:	060107a3          	sb	zero,111(sp)
   16c28:	00080993          	mv	s3,a6
   16c2c:	00040493          	mv	s1,s0
   16c30:	04d13023          	sd	a3,64(sp)
   16c34:	00000b93          	li	s7,0
   16c38:	af9ff06f          	j	16730 <_vfiprintf_r+0x3e0>
   16c3c:	000a8513          	mv	a0,s5
   16c40:	000c8593          	mv	a1,s9
   16c44:	07810613          	addi	a2,sp,120
   16c48:	00713423          	sd	t2,8(sp)
   16c4c:	00f13c23          	sd	a5,24(sp)
   16c50:	01e13823          	sd	t5,16(sp)
   16c54:	df8ff0ef          	jal	1624c <__sprint_r.part.0>
   16c58:	00813383          	ld	t2,8(sp)
   16c5c:	01813783          	ld	a5,24(sp)
   16c60:	01013f03          	ld	t5,16(sp)
   16c64:	10051063          	bnez	a0,16d64 <_vfiprintf_r+0xa14>
   16c68:	08012503          	lw	a0,128(sp)
   16c6c:	08412683          	lw	a3,132(sp)
   16c70:	000b0713          	mv	a4,s6
   16c74:	0015061b          	addiw	a2,a0,1
   16c78:	b15ff06f          	j	1678c <_vfiprintf_r+0x43c>
   16c7c:	08012603          	lw	a2,128(sp)
   16c80:	08412783          	lw	a5,132(sp)
   16c84:	0016059b          	addiw	a1,a2,1
   16c88:	06f14683          	lbu	a3,111(sp)
   16c8c:	b6068ee3          	beqz	a3,16808 <_vfiprintf_r+0x4b8>
   16c90:	06f10613          	addi	a2,sp,111
   16c94:	00100693          	li	a3,1
   16c98:	0017879b          	addiw	a5,a5,1
   16c9c:	00c73023          	sd	a2,0(a4)
   16ca0:	00700613          	li	a2,7
   16ca4:	00d73423          	sd	a3,8(a4)
   16ca8:	08f12223          	sw	a5,132(sp)
   16cac:	08b12023          	sw	a1,128(sp)
   16cb0:	2eb64a63          	blt	a2,a1,16fa4 <_vfiprintf_r+0xc54>
   16cb4:	00058613          	mv	a2,a1
   16cb8:	01070713          	addi	a4,a4,16
   16cbc:	0015859b          	addiw	a1,a1,1
   16cc0:	b49ff06f          	j	16808 <_vfiprintf_r+0x4b8>
   16cc4:	000a8513          	mv	a0,s5
   16cc8:	000c8593          	mv	a1,s9
   16ccc:	07810613          	addi	a2,sp,120
   16cd0:	00713423          	sd	t2,8(sp)
   16cd4:	01c13823          	sd	t3,16(sp)
   16cd8:	d74ff0ef          	jal	1624c <__sprint_r.part.0>
   16cdc:	00813383          	ld	t2,8(sp)
   16ce0:	01013e03          	ld	t3,16(sp)
   16ce4:	08051063          	bnez	a0,16d64 <_vfiprintf_r+0xa14>
   16ce8:	08012603          	lw	a2,128(sp)
   16cec:	08412783          	lw	a5,132(sp)
   16cf0:	000b0713          	mv	a4,s6
   16cf4:	0016059b          	addiw	a1,a2,1
   16cf8:	b89ff06f          	j	16880 <_vfiprintf_r+0x530>
   16cfc:	00100613          	li	a2,1
   16d00:	9ec792e3          	bne	a5,a2,166e4 <_vfiprintf_r+0x394>
   16d04:	00900813          	li	a6,9
   16d08:	0b010613          	addi	a2,sp,176
   16d0c:	00a00513          	li	a0,10
   16d10:	00d87e63          	bleu	a3,a6,16d2c <_vfiprintf_r+0x9dc>
   16d14:	02a6f7b3          	remu	a5,a3,a0
   16d18:	fff60613          	addi	a2,a2,-1
   16d1c:	02a6d6b3          	divu	a3,a3,a0
   16d20:	0307879b          	addiw	a5,a5,48
   16d24:	00f60023          	sb	a5,0(a2)
   16d28:	fed866e3          	bltu	a6,a3,16d14 <_vfiprintf_r+0x9c4>
   16d2c:	02813883          	ld	a7,40(sp)
   16d30:	fff60793          	addi	a5,a2,-1
   16d34:	0306869b          	addiw	a3,a3,48
   16d38:	40f882b3          	sub	t0,a7,a5
   16d3c:	04f13023          	sd	a5,64(sp)
   16d40:	0002849b          	sext.w	s1,t0
   16d44:	fed60fa3          	sb	a3,-1(a2)
   16d48:	9d5ff06f          	j	1671c <_vfiprintf_r+0x3cc>
   16d4c:	08412783          	lw	a5,132(sp)
   16d50:	00078a63          	beqz	a5,16d64 <_vfiprintf_r+0xa14>
   16d54:	000a8513          	mv	a0,s5
   16d58:	000c8593          	mv	a1,s9
   16d5c:	07810613          	addi	a2,sp,120
   16d60:	cecff0ef          	jal	1624c <__sprint_r.part.0>
   16d64:	010cd783          	lhu	a5,16(s9)
   16d68:	0407f793          	andi	a5,a5,64
   16d6c:	86079ce3          	bnez	a5,165e4 <_vfiprintf_r+0x294>
   16d70:	03c12503          	lw	a0,60(sp)
   16d74:	875ff06f          	j	165e8 <_vfiprintf_r+0x298>
   16d78:	3e079863          	bnez	a5,17168 <_vfiprintf_r+0xe18>
   16d7c:	04013683          	ld	a3,64(sp)
   16d80:	00100793          	li	a5,1
   16d84:	12913c23          	sd	s1,312(sp)
   16d88:	12d13823          	sd	a3,304(sp)
   16d8c:	08912223          	sw	s1,132(sp)
   16d90:	08f12023          	sw	a5,128(sp)
   16d94:	00048293          	mv	t0,s1
   16d98:	000b0713          	mv	a4,s6
   16d9c:	01070713          	addi	a4,a4,16
   16da0:	03d99513          	slli	a0,s3,0x3d
   16da4:	0c055263          	bgez	a0,16e68 <_vfiprintf_r+0xb18>
   16da8:	408a0bbb          	subw	s7,s4,s0
   16dac:	0b705e63          	blez	s7,16e68 <_vfiprintf_r+0xb18>
   16db0:	01000793          	li	a5,16
   16db4:	5977de63          	ble	s7,a5,17350 <_vfiprintf_r+0x1000>
   16db8:	01000d13          	li	s10,16
   16dbc:	08012683          	lw	a3,128(sp)
   16dc0:	05813423          	sd	s8,72(sp)
   16dc4:	00700993          	li	s3,7
   16dc8:	000d0493          	mv	s1,s10
   16dcc:	0180006f          	j	16de4 <_vfiprintf_r+0xa94>
   16dd0:	0026861b          	addiw	a2,a3,2
   16dd4:	01070713          	addi	a4,a4,16
   16dd8:	00078693          	mv	a3,a5
   16ddc:	ff0b8b9b          	addiw	s7,s7,-16
   16de0:	0374dc63          	ble	s7,s1,16e18 <_vfiprintf_r+0xac8>
   16de4:	0102829b          	addiw	t0,t0,16
   16de8:	0016879b          	addiw	a5,a3,1
   16dec:	01873023          	sd	s8,0(a4)
   16df0:	01a73423          	sd	s10,8(a4)
   16df4:	08512223          	sw	t0,132(sp)
   16df8:	08f12023          	sw	a5,128(sp)
   16dfc:	fcf9dae3          	ble	a5,s3,16dd0 <_vfiprintf_r+0xa80>
   16e00:	0a029063          	bnez	t0,16ea0 <_vfiprintf_r+0xb50>
   16e04:	ff0b8b9b          	addiw	s7,s7,-16
   16e08:	00000693          	li	a3,0
   16e0c:	00100613          	li	a2,1
   16e10:	000b0713          	mv	a4,s6
   16e14:	fd74c8e3          	blt	s1,s7,16de4 <_vfiprintf_r+0xa94>
   16e18:	04813683          	ld	a3,72(sp)
   16e1c:	017282bb          	addw	t0,t0,s7
   16e20:	00700793          	li	a5,7
   16e24:	00d73023          	sd	a3,0(a4)
   16e28:	01773423          	sd	s7,8(a4)
   16e2c:	08512223          	sw	t0,132(sp)
   16e30:	08c12023          	sw	a2,128(sp)
   16e34:	02c7da63          	ble	a2,a5,16e68 <_vfiprintf_r+0xb18>
   16e38:	00029c63          	bnez	t0,16e50 <_vfiprintf_r+0xb00>
   16e3c:	45444863          	blt	s0,s4,1728c <_vfiprintf_r+0xf3c>
   16e40:	03c12703          	lw	a4,60(sp)
   16e44:	0087073b          	addw	a4,a4,s0
   16e48:	02e12e23          	sw	a4,60(sp)
   16e4c:	0480006f          	j	16e94 <_vfiprintf_r+0xb44>
   16e50:	000a8513          	mv	a0,s5
   16e54:	000c8593          	mv	a1,s9
   16e58:	07810613          	addi	a2,sp,120
   16e5c:	bf0ff0ef          	jal	1624c <__sprint_r.part.0>
   16e60:	f00512e3          	bnez	a0,16d64 <_vfiprintf_r+0xa14>
   16e64:	08412283          	lw	t0,132(sp)
   16e68:	01445463          	ble	s4,s0,16e70 <_vfiprintf_r+0xb20>
   16e6c:	000a0413          	mv	s0,s4
   16e70:	03c12783          	lw	a5,60(sp)
   16e74:	008787bb          	addw	a5,a5,s0
   16e78:	02f12e23          	sw	a5,60(sp)
   16e7c:	00028c63          	beqz	t0,16e94 <_vfiprintf_r+0xb44>
   16e80:	000a8513          	mv	a0,s5
   16e84:	000c8593          	mv	a1,s9
   16e88:	07810613          	addi	a2,sp,120
   16e8c:	bc0ff0ef          	jal	1624c <__sprint_r.part.0>
   16e90:	ec051ae3          	bnez	a0,16d64 <_vfiprintf_r+0xa14>
   16e94:	08012023          	sw	zero,128(sp)
   16e98:	000b0713          	mv	a4,s6
   16e9c:	da8ff06f          	j	16444 <_vfiprintf_r+0xf4>
   16ea0:	000a8513          	mv	a0,s5
   16ea4:	000c8593          	mv	a1,s9
   16ea8:	07810613          	addi	a2,sp,120
   16eac:	ba0ff0ef          	jal	1624c <__sprint_r.part.0>
   16eb0:	ea051ae3          	bnez	a0,16d64 <_vfiprintf_r+0xa14>
   16eb4:	08012683          	lw	a3,128(sp)
   16eb8:	08412283          	lw	t0,132(sp)
   16ebc:	000b0713          	mv	a4,s6
   16ec0:	0016861b          	addiw	a2,a3,1
   16ec4:	f19ff06f          	j	16ddc <_vfiprintf_r+0xa8c>
   16ec8:	408a0dbb          	subw	s11,s4,s0
   16ecc:	97b05ce3          	blez	s11,16844 <_vfiprintf_r+0x4f4>
   16ed0:	01000693          	li	a3,16
   16ed4:	4bb6d263          	ble	s11,a3,17378 <_vfiprintf_r+0x1028>
   16ed8:	01000393          	li	t2,16
   16edc:	0001b837          	lui	a6,0x1b
   16ee0:	ab080d13          	addi	s10,a6,-1360 # 1aab0 <zeroes.3894>
   16ee4:	00700e13          	li	t3,7
   16ee8:	00038e93          	mv	t4,t2
   16eec:	0180006f          	j	16f04 <_vfiprintf_r+0xbb4>
   16ef0:	0026051b          	addiw	a0,a2,2
   16ef4:	01070713          	addi	a4,a4,16
   16ef8:	00068613          	mv	a2,a3
   16efc:	ff0d8d9b          	addiw	s11,s11,-16
   16f00:	03bedc63          	ble	s11,t4,16f38 <_vfiprintf_r+0xbe8>
   16f04:	0107879b          	addiw	a5,a5,16
   16f08:	0016069b          	addiw	a3,a2,1
   16f0c:	01a73023          	sd	s10,0(a4)
   16f10:	00773423          	sd	t2,8(a4)
   16f14:	08f12223          	sw	a5,132(sp)
   16f18:	08d12023          	sw	a3,128(sp)
   16f1c:	fcde5ae3          	ble	a3,t3,16ef0 <_vfiprintf_r+0xba0>
   16f20:	04079263          	bnez	a5,16f64 <_vfiprintf_r+0xc14>
   16f24:	ff0d8d9b          	addiw	s11,s11,-16
   16f28:	00000613          	li	a2,0
   16f2c:	00100513          	li	a0,1
   16f30:	000b0713          	mv	a4,s6
   16f34:	fdbec8e3          	blt	t4,s11,16f04 <_vfiprintf_r+0xbb4>
   16f38:	01b787bb          	addw	a5,a5,s11
   16f3c:	00700693          	li	a3,7
   16f40:	01a73023          	sd	s10,0(a4)
   16f44:	01b73423          	sd	s11,8(a4)
   16f48:	08f12223          	sw	a5,132(sp)
   16f4c:	08a12023          	sw	a0,128(sp)
   16f50:	20a6c263          	blt	a3,a0,17154 <_vfiprintf_r+0xe04>
   16f54:	01070713          	addi	a4,a4,16
   16f58:	0015059b          	addiw	a1,a0,1
   16f5c:	00050613          	mv	a2,a0
   16f60:	8e5ff06f          	j	16844 <_vfiprintf_r+0x4f4>
   16f64:	000a8513          	mv	a0,s5
   16f68:	000c8593          	mv	a1,s9
   16f6c:	07810613          	addi	a2,sp,120
   16f70:	00713423          	sd	t2,8(sp)
   16f74:	01c13823          	sd	t3,16(sp)
   16f78:	01d13c23          	sd	t4,24(sp)
   16f7c:	ad0ff0ef          	jal	1624c <__sprint_r.part.0>
   16f80:	00813383          	ld	t2,8(sp)
   16f84:	01013e03          	ld	t3,16(sp)
   16f88:	01813e83          	ld	t4,24(sp)
   16f8c:	dc051ce3          	bnez	a0,16d64 <_vfiprintf_r+0xa14>
   16f90:	08012603          	lw	a2,128(sp)
   16f94:	08412783          	lw	a5,132(sp)
   16f98:	000b0713          	mv	a4,s6
   16f9c:	0016051b          	addiw	a0,a2,1
   16fa0:	f5dff06f          	j	16efc <_vfiprintf_r+0xbac>
   16fa4:	14079c63          	bnez	a5,170fc <_vfiprintf_r+0xdac>
   16fa8:	100e0e63          	beqz	t3,170c4 <_vfiprintf_r+0xd74>
   16fac:	07010713          	addi	a4,sp,112
   16fb0:	00200793          	li	a5,2
   16fb4:	12e13823          	sd	a4,304(sp)
   16fb8:	12f13c23          	sd	a5,312(sp)
   16fbc:	00068593          	mv	a1,a3
   16fc0:	000b0713          	mv	a4,s6
   16fc4:	86dff06f          	j	16830 <_vfiprintf_r+0x4e0>
   16fc8:	16079263          	bnez	a5,1712c <_vfiprintf_r+0xddc>
   16fcc:	00000613          	li	a2,0
   16fd0:	00100593          	li	a1,1
   16fd4:	000b0713          	mv	a4,s6
   16fd8:	865ff06f          	j	1683c <_vfiprintf_r+0x4ec>
   16fdc:	0b010893          	addi	a7,sp,176
   16fe0:	05113023          	sd	a7,64(sp)
   16fe4:	f2079c63          	bnez	a5,1671c <_vfiprintf_r+0x3cc>
   16fe8:	03f99793          	slli	a5,s3,0x3f
   16fec:	f207d863          	bgez	a5,1671c <_vfiprintf_r+0x3cc>
   16ff0:	03000793          	li	a5,48
   16ff4:	0af10893          	addi	a7,sp,175
   16ff8:	0af107a3          	sb	a5,175(sp)
   16ffc:	05c12483          	lw	s1,92(sp)
   17000:	05113023          	sd	a7,64(sp)
   17004:	f18ff06f          	j	1671c <_vfiprintf_r+0x3cc>
   17008:	0b010613          	addi	a2,sp,176
   1700c:	0076f793          	andi	a5,a3,7
   17010:	fff60613          	addi	a2,a2,-1
   17014:	0307879b          	addiw	a5,a5,48
   17018:	0036d693          	srli	a3,a3,0x3
   1701c:	00f60023          	sb	a5,0(a2)
   17020:	fe0696e3          	bnez	a3,1700c <_vfiprintf_r+0xcbc>
   17024:	03f99513          	slli	a0,s3,0x3f
   17028:	04c13023          	sd	a2,64(sp)
   1702c:	0a054463          	bltz	a0,170d4 <_vfiprintf_r+0xd84>
   17030:	02813683          	ld	a3,40(sp)
   17034:	40c684bb          	subw	s1,a3,a2
   17038:	ee4ff06f          	j	1671c <_vfiprintf_r+0x3cc>
   1703c:	22079063          	bnez	a5,1725c <_vfiprintf_r+0xf0c>
   17040:	06f14703          	lbu	a4,111(sp)
   17044:	16070c63          	beqz	a4,171bc <_vfiprintf_r+0xe6c>
   17048:	00100793          	li	a5,1
   1704c:	06f10713          	addi	a4,sp,111
   17050:	12e13823          	sd	a4,304(sp)
   17054:	12f13c23          	sd	a5,312(sp)
   17058:	00078593          	mv	a1,a5
   1705c:	000b0713          	mv	a4,s6
   17060:	c55ff06f          	j	16cb4 <_vfiprintf_r+0x964>
   17064:	408a0bbb          	subw	s7,s4,s0
   17068:	000b0713          	mv	a4,s6
   1706c:	d57042e3          	bgtz	s7,16db0 <_vfiprintf_r+0xa60>
   17070:	01445463          	ble	s4,s0,17078 <_vfiprintf_r+0xd28>
   17074:	000a0413          	mv	s0,s4
   17078:	03c12683          	lw	a3,60(sp)
   1707c:	008686bb          	addw	a3,a3,s0
   17080:	02d12e23          	sw	a3,60(sp)
   17084:	e11ff06f          	j	16e94 <_vfiprintf_r+0xb44>
   17088:	000a8513          	mv	a0,s5
   1708c:	000c8593          	mv	a1,s9
   17090:	07810613          	addi	a2,sp,120
   17094:	9b8ff0ef          	jal	1624c <__sprint_r.part.0>
   17098:	cc0516e3          	bnez	a0,16d64 <_vfiprintf_r+0xa14>
   1709c:	08412283          	lw	t0,132(sp)
   170a0:	000b0713          	mv	a4,s6
   170a4:	cfdff06f          	j	16da0 <_vfiprintf_r+0xa50>
   170a8:	000a8513          	mv	a0,s5
   170ac:	000c8593          	mv	a1,s9
   170b0:	07810613          	addi	a2,sp,120
   170b4:	998ff0ef          	jal	1624c <__sprint_r.part.0>
   170b8:	ca0516e3          	bnez	a0,16d64 <_vfiprintf_r+0xa14>
   170bc:	000b0713          	mv	a4,s6
   170c0:	be4ff06f          	j	164a4 <_vfiprintf_r+0x154>
   170c4:	00000613          	li	a2,0
   170c8:	00068593          	mv	a1,a3
   170cc:	000b0713          	mv	a4,s6
   170d0:	f6cff06f          	j	1683c <_vfiprintf_r+0x4ec>
   170d4:	03000693          	li	a3,48
   170d8:	1cd78663          	beq	a5,a3,172a4 <_vfiprintf_r+0xf54>
   170dc:	04013783          	ld	a5,64(sp)
   170e0:	02813883          	ld	a7,40(sp)
   170e4:	fff78793          	addi	a5,a5,-1
   170e8:	40f882b3          	sub	t0,a7,a5
   170ec:	04f13023          	sd	a5,64(sp)
   170f0:	0002849b          	sext.w	s1,t0
   170f4:	fed60fa3          	sb	a3,-1(a2)
   170f8:	e24ff06f          	j	1671c <_vfiprintf_r+0x3cc>
   170fc:	000a8513          	mv	a0,s5
   17100:	000c8593          	mv	a1,s9
   17104:	07810613          	addi	a2,sp,120
   17108:	01c13823          	sd	t3,16(sp)
   1710c:	940ff0ef          	jal	1624c <__sprint_r.part.0>
   17110:	01013e03          	ld	t3,16(sp)
   17114:	c40518e3          	bnez	a0,16d64 <_vfiprintf_r+0xa14>
   17118:	08012603          	lw	a2,128(sp)
   1711c:	08412783          	lw	a5,132(sp)
   17120:	000b0713          	mv	a4,s6
   17124:	0016059b          	addiw	a1,a2,1
   17128:	ee0ff06f          	j	16808 <_vfiprintf_r+0x4b8>
   1712c:	000a8513          	mv	a0,s5
   17130:	000c8593          	mv	a1,s9
   17134:	07810613          	addi	a2,sp,120
   17138:	914ff0ef          	jal	1624c <__sprint_r.part.0>
   1713c:	c20514e3          	bnez	a0,16d64 <_vfiprintf_r+0xa14>
   17140:	08012603          	lw	a2,128(sp)
   17144:	08412783          	lw	a5,132(sp)
   17148:	000b0713          	mv	a4,s6
   1714c:	0016059b          	addiw	a1,a2,1
   17150:	eecff06f          	j	1683c <_vfiprintf_r+0x4ec>
   17154:	18079663          	bnez	a5,172e0 <_vfiprintf_r+0xf90>
   17158:	00000613          	li	a2,0
   1715c:	00100593          	li	a1,1
   17160:	000b0713          	mv	a4,s6
   17164:	ee0ff06f          	j	16844 <_vfiprintf_r+0x4f4>
   17168:	000a8513          	mv	a0,s5
   1716c:	000c8593          	mv	a1,s9
   17170:	07810613          	addi	a2,sp,120
   17174:	8d8ff0ef          	jal	1624c <__sprint_r.part.0>
   17178:	be0516e3          	bnez	a0,16d64 <_vfiprintf_r+0xa14>
   1717c:	08012583          	lw	a1,128(sp)
   17180:	08412783          	lw	a5,132(sp)
   17184:	000b0713          	mv	a4,s6
   17188:	0015859b          	addiw	a1,a1,1
   1718c:	f54ff06f          	j	168e0 <_vfiprintf_r+0x590>
   17190:	00090413          	mv	s0,s2
   17194:	b1cff06f          	j	164b0 <_vfiprintf_r+0x160>
   17198:	0b010613          	addi	a2,sp,176
   1719c:	b91ff06f          	j	16d2c <_vfiprintf_r+0x9dc>
   171a0:	02d00793          	li	a5,45
   171a4:	06f107a3          	sb	a5,111(sp)
   171a8:	40d006b3          	neg	a3,a3
   171ac:	000b8493          	mv	s1,s7
   171b0:	02d00593          	li	a1,45
   171b4:	00100793          	li	a5,1
   171b8:	d14ff06f          	j	166cc <_vfiprintf_r+0x37c>
   171bc:	00000613          	li	a2,0
   171c0:	00100593          	li	a1,1
   171c4:	000b0713          	mv	a4,s6
   171c8:	e60e0a63          	beqz	t3,1683c <_vfiprintf_r+0x4ec>
   171cc:	00200793          	li	a5,2
   171d0:	07010693          	addi	a3,sp,112
   171d4:	00db3023          	sd	a3,0(s6)
   171d8:	00fb3423          	sd	a5,8(s6)
   171dc:	e54ff06f          	j	16830 <_vfiprintf_r+0x4e0>
   171e0:	03013883          	ld	a7,48(sp)
   171e4:	0007e683          	lwu	a3,0(a5)
   171e8:	00000793          	li	a5,0
   171ec:	00888893          	addi	a7,a7,8
   171f0:	03113823          	sd	a7,48(sp)
   171f4:	f54ff06f          	j	16948 <_vfiprintf_r+0x5f8>
   171f8:	03013883          	ld	a7,48(sp)
   171fc:	0007e683          	lwu	a3,0(a5)
   17200:	00100793          	li	a5,1
   17204:	00888893          	addi	a7,a7,8
   17208:	03113823          	sd	a7,48(sp)
   1720c:	f3cff06f          	j	16948 <_vfiprintf_r+0x5f8>
   17210:	03013683          	ld	a3,48(sp)
   17214:	03981513          	slli	a0,a6,0x39
   17218:	03c12883          	lw	a7,60(sp)
   1721c:	0006b783          	ld	a5,0(a3)
   17220:	00868693          	addi	a3,a3,8
   17224:	02d13823          	sd	a3,48(sp)
   17228:	06055a63          	bgez	a0,1729c <_vfiprintf_r+0xf4c>
   1722c:	01179023          	sh	a7,0(a5)
   17230:	a14ff06f          	j	16444 <_vfiprintf_r+0xf4>
   17234:	0007e683          	lwu	a3,0(a5)
   17238:	03013783          	ld	a5,48(sp)
   1723c:	00878793          	addi	a5,a5,8
   17240:	02f13823          	sd	a5,48(sp)
   17244:	f6cff06f          	j	169b0 <_vfiprintf_r+0x660>
   17248:	0007a683          	lw	a3,0(a5)
   1724c:	03013783          	ld	a5,48(sp)
   17250:	00878793          	addi	a5,a5,8
   17254:	02f13823          	sd	a5,48(sp)
   17258:	c64ff06f          	j	166bc <_vfiprintf_r+0x36c>
   1725c:	000a8513          	mv	a0,s5
   17260:	000c8593          	mv	a1,s9
   17264:	07810613          	addi	a2,sp,120
   17268:	01c13823          	sd	t3,16(sp)
   1726c:	fe1fe0ef          	jal	1624c <__sprint_r.part.0>
   17270:	01013e03          	ld	t3,16(sp)
   17274:	ae0518e3          	bnez	a0,16d64 <_vfiprintf_r+0xa14>
   17278:	08012603          	lw	a2,128(sp)
   1727c:	08412783          	lw	a5,132(sp)
   17280:	000b0713          	mv	a4,s6
   17284:	0016059b          	addiw	a1,a2,1
   17288:	a01ff06f          	j	16c88 <_vfiprintf_r+0x938>
   1728c:	000a0413          	mv	s0,s4
   17290:	bb1ff06f          	j	16e40 <_vfiprintf_r+0xaf0>
   17294:	000b8493          	mv	s1,s7
   17298:	f8cff06f          	j	16a24 <_vfiprintf_r+0x6d4>
   1729c:	0117a023          	sw	a7,0(a5)
   172a0:	9a4ff06f          	j	16444 <_vfiprintf_r+0xf4>
   172a4:	02813783          	ld	a5,40(sp)
   172a8:	04013883          	ld	a7,64(sp)
   172ac:	411784bb          	subw	s1,a5,a7
   172b0:	c6cff06f          	j	1671c <_vfiprintf_r+0x3cc>
   172b4:	00e13823          	sd	a4,16(sp)
   172b8:	01013c23          	sd	a6,24(sp)
   172bc:	ec5fe0ef          	jal	16180 <strlen>
   172c0:	01813803          	ld	a6,24(sp)
   172c4:	0005049b          	sext.w	s1,a0
   172c8:	06f14583          	lbu	a1,111(sp)
   172cc:	00080993          	mv	s3,a6
   172d0:	03a13823          	sd	s10,48(sp)
   172d4:	00000b93          	li	s7,0
   172d8:	01013703          	ld	a4,16(sp)
   172dc:	c40ff06f          	j	1671c <_vfiprintf_r+0x3cc>
   172e0:	000a8513          	mv	a0,s5
   172e4:	000c8593          	mv	a1,s9
   172e8:	07810613          	addi	a2,sp,120
   172ec:	f61fe0ef          	jal	1624c <__sprint_r.part.0>
   172f0:	a6051ae3          	bnez	a0,16d64 <_vfiprintf_r+0xa14>
   172f4:	08012603          	lw	a2,128(sp)
   172f8:	08412783          	lw	a5,132(sp)
   172fc:	000b0713          	mv	a4,s6
   17300:	0016059b          	addiw	a1,a2,1
   17304:	d40ff06f          	j	16844 <_vfiprintf_r+0x4f4>
   17308:	08012603          	lw	a2,128(sp)
   1730c:	05813423          	sd	s8,72(sp)
   17310:	0016061b          	addiw	a2,a2,1
   17314:	cc4ff06f          	j	167d8 <_vfiprintf_r+0x488>
   17318:	00600793          	li	a5,6
   1731c:	0177f463          	bleu	s7,a5,17324 <_vfiprintf_r+0xfd4>
   17320:	00078b93          	mv	s7,a5
   17324:	fffbc413          	not	s0,s7
   17328:	03a13823          	sd	s10,48(sp)
   1732c:	0001bd37          	lui	s10,0x1b
   17330:	41f4541b          	sraiw	s0,s0,0x1f
   17334:	c40d0d13          	addi	s10,s10,-960 # 1ac40 <__clz_tab+0x158>
   17338:	000b8493          	mv	s1,s7
   1733c:	008bf433          	and	s0,s7,s0
   17340:	00080993          	mv	s3,a6
   17344:	05a13023          	sd	s10,64(sp)
   17348:	00000b93          	li	s7,0
   1734c:	be4ff06f          	j	16730 <_vfiprintf_r+0x3e0>
   17350:	08012603          	lw	a2,128(sp)
   17354:	05813423          	sd	s8,72(sp)
   17358:	0016061b          	addiw	a2,a2,1
   1735c:	abdff06f          	j	16e18 <_vfiprintf_r+0xac8>
   17360:	000b8493          	mv	s1,s7
   17364:	06f14583          	lbu	a1,111(sp)
   17368:	00080993          	mv	s3,a6
   1736c:	03a13823          	sd	s10,48(sp)
   17370:	00000b93          	li	s7,0
   17374:	ba8ff06f          	j	1671c <_vfiprintf_r+0x3cc>
   17378:	0001b837          	lui	a6,0x1b
   1737c:	00058513          	mv	a0,a1
   17380:	ab080d13          	addi	s10,a6,-1360 # 1aab0 <zeroes.3894>
   17384:	bb5ff06f          	j	16f38 <_vfiprintf_r+0xbe8>
   17388:	fff00b13          	li	s6,-1
   1738c:	a38ff06f          	j	165c4 <_vfiprintf_r+0x274>
   17390:	03013883          	ld	a7,48(sp)
   17394:	0008ab83          	lw	s7,0(a7)
   17398:	00888893          	addi	a7,a7,8
   1739c:	03113823          	sd	a7,48(sp)
   173a0:	920bde63          	bgez	s7,164dc <_vfiprintf_r+0x18c>
   173a4:	fff00b93          	li	s7,-1
   173a8:	934ff06f          	j	164dc <_vfiprintf_r+0x18c>
   173ac:	000a0413          	mv	s0,s4
   173b0:	d64ff06f          	j	16914 <_vfiprintf_r+0x5c4>

00000000000173b4 <vfiprintf>:
   173b4:	00050713          	mv	a4,a0
   173b8:	8101b503          	ld	a0,-2032(gp) # 1d070 <_impure_ptr>
   173bc:	00058793          	mv	a5,a1
   173c0:	00060693          	mv	a3,a2
   173c4:	00070593          	mv	a1,a4
   173c8:	00078613          	mv	a2,a5
   173cc:	f85fe06f          	j	16350 <_vfiprintf_r>

00000000000173d0 <_calloc_r>:
   173d0:	02c585b3          	mul	a1,a1,a2
   173d4:	ff010113          	addi	sp,sp,-16
   173d8:	00813023          	sd	s0,0(sp)
   173dc:	00113423          	sd	ra,8(sp)
   173e0:	f8dfc0ef          	jal	1436c <_malloc_r>
   173e4:	00050413          	mv	s0,a0
   173e8:	08050c63          	beqz	a0,17480 <_calloc_r+0xb0>
   173ec:	ff853603          	ld	a2,-8(a0)
   173f0:	04800713          	li	a4,72
   173f4:	ffc67613          	andi	a2,a2,-4
   173f8:	ff860613          	addi	a2,a2,-8
   173fc:	06c76063          	bltu	a4,a2,1745c <_calloc_r+0x8c>
   17400:	02700693          	li	a3,39
   17404:	00050793          	mv	a5,a0
   17408:	02c6e263          	bltu	a3,a2,1742c <_calloc_r+0x5c>
   1740c:	0007b023          	sd	zero,0(a5)
   17410:	0007b423          	sd	zero,8(a5)
   17414:	0007b823          	sd	zero,16(a5)
   17418:	00040513          	mv	a0,s0
   1741c:	00813083          	ld	ra,8(sp)
   17420:	00013403          	ld	s0,0(sp)
   17424:	01010113          	addi	sp,sp,16
   17428:	00008067          	ret
   1742c:	03700793          	li	a5,55
   17430:	00053023          	sd	zero,0(a0)
   17434:	00053423          	sd	zero,8(a0)
   17438:	04c7f063          	bleu	a2,a5,17478 <_calloc_r+0xa8>
   1743c:	00053823          	sd	zero,16(a0)
   17440:	00053c23          	sd	zero,24(a0)
   17444:	02050793          	addi	a5,a0,32
   17448:	fce612e3          	bne	a2,a4,1740c <_calloc_r+0x3c>
   1744c:	02053023          	sd	zero,32(a0)
   17450:	03050793          	addi	a5,a0,48
   17454:	02053423          	sd	zero,40(a0)
   17458:	fb5ff06f          	j	1740c <_calloc_r+0x3c>
   1745c:	00000593          	li	a1,0
   17460:	90dfd0ef          	jal	14d6c <memset>
   17464:	00813083          	ld	ra,8(sp)
   17468:	00040513          	mv	a0,s0
   1746c:	00013403          	ld	s0,0(sp)
   17470:	01010113          	addi	sp,sp,16
   17474:	00008067          	ret
   17478:	01050793          	addi	a5,a0,16
   1747c:	f91ff06f          	j	1740c <_calloc_r+0x3c>
   17480:	00000513          	li	a0,0
   17484:	f99ff06f          	j	1741c <_calloc_r+0x4c>

0000000000017488 <_fclose_r>:
   17488:	0e058063          	beqz	a1,17568 <_fclose_r+0xe0>
   1748c:	fe010113          	addi	sp,sp,-32
   17490:	00913423          	sd	s1,8(sp)
   17494:	00050493          	mv	s1,a0
   17498:	00813823          	sd	s0,16(sp)
   1749c:	00113c23          	sd	ra,24(sp)
   174a0:	01213023          	sd	s2,0(sp)
   174a4:	00058413          	mv	s0,a1
   174a8:	e90fc0ef          	jal	13b38 <__sfp_lock_acquire>
   174ac:	00048663          	beqz	s1,174b8 <_fclose_r+0x30>
   174b0:	0504a783          	lw	a5,80(s1)
   174b4:	0a078e63          	beqz	a5,17570 <_fclose_r+0xe8>
   174b8:	01041783          	lh	a5,16(s0)
   174bc:	08078663          	beqz	a5,17548 <_fclose_r+0xc0>
   174c0:	00048513          	mv	a0,s1
   174c4:	00040593          	mv	a1,s0
   174c8:	870fc0ef          	jal	13538 <_fflush_r>
   174cc:	05043783          	ld	a5,80(s0)
   174d0:	00050913          	mv	s2,a0
   174d4:	00078a63          	beqz	a5,174e8 <_fclose_r+0x60>
   174d8:	03043583          	ld	a1,48(s0)
   174dc:	00048513          	mv	a0,s1
   174e0:	000780e7          	jalr	a5
   174e4:	0a054863          	bltz	a0,17594 <_fclose_r+0x10c>
   174e8:	01045783          	lhu	a5,16(s0)
   174ec:	0807f793          	andi	a5,a5,128
   174f0:	08079a63          	bnez	a5,17584 <_fclose_r+0xfc>
   174f4:	05843583          	ld	a1,88(s0)
   174f8:	00058c63          	beqz	a1,17510 <_fclose_r+0x88>
   174fc:	07440793          	addi	a5,s0,116
   17500:	00f58663          	beq	a1,a5,1750c <_fclose_r+0x84>
   17504:	00048513          	mv	a0,s1
   17508:	f78fc0ef          	jal	13c80 <_free_r>
   1750c:	04043c23          	sd	zero,88(s0)
   17510:	07843583          	ld	a1,120(s0)
   17514:	00058863          	beqz	a1,17524 <_fclose_r+0x9c>
   17518:	00048513          	mv	a0,s1
   1751c:	f64fc0ef          	jal	13c80 <_free_r>
   17520:	06043c23          	sd	zero,120(s0)
   17524:	00041823          	sh	zero,16(s0)
   17528:	e14fc0ef          	jal	13b3c <__sfp_lock_release>
   1752c:	01813083          	ld	ra,24(sp)
   17530:	00090513          	mv	a0,s2
   17534:	01013403          	ld	s0,16(sp)
   17538:	00813483          	ld	s1,8(sp)
   1753c:	00013903          	ld	s2,0(sp)
   17540:	02010113          	addi	sp,sp,32
   17544:	00008067          	ret
   17548:	df4fc0ef          	jal	13b3c <__sfp_lock_release>
   1754c:	01813083          	ld	ra,24(sp)
   17550:	00000513          	li	a0,0
   17554:	01013403          	ld	s0,16(sp)
   17558:	00813483          	ld	s1,8(sp)
   1755c:	00013903          	ld	s2,0(sp)
   17560:	02010113          	addi	sp,sp,32
   17564:	00008067          	ret
   17568:	00000513          	li	a0,0
   1756c:	00008067          	ret
   17570:	00048513          	mv	a0,s1
   17574:	db4fc0ef          	jal	13b28 <__sinit>
   17578:	01041783          	lh	a5,16(s0)
   1757c:	f40792e3          	bnez	a5,174c0 <_fclose_r+0x38>
   17580:	fc9ff06f          	j	17548 <_fclose_r+0xc0>
   17584:	01843583          	ld	a1,24(s0)
   17588:	00048513          	mv	a0,s1
   1758c:	ef4fc0ef          	jal	13c80 <_free_r>
   17590:	f65ff06f          	j	174f4 <_fclose_r+0x6c>
   17594:	fff00913          	li	s2,-1
   17598:	f51ff06f          	j	174e8 <_fclose_r+0x60>

000000000001759c <fclose>:
   1759c:	00050593          	mv	a1,a0
   175a0:	8101b503          	ld	a0,-2032(gp) # 1d070 <_impure_ptr>
   175a4:	ee5ff06f          	j	17488 <_fclose_r>

00000000000175a8 <_fputwc_r>:
   175a8:	01061783          	lh	a5,16(a2)
   175ac:	fb010113          	addi	sp,sp,-80
   175b0:	04813023          	sd	s0,64(sp)
   175b4:	03279693          	slli	a3,a5,0x32
   175b8:	03313423          	sd	s3,40(sp)
   175bc:	03413023          	sd	s4,32(sp)
   175c0:	04113423          	sd	ra,72(sp)
   175c4:	02913c23          	sd	s1,56(sp)
   175c8:	03213823          	sd	s2,48(sp)
   175cc:	01513c23          	sd	s5,24(sp)
   175d0:	00060413          	mv	s0,a2
   175d4:	00050a13          	mv	s4,a0
   175d8:	00058993          	mv	s3,a1
   175dc:	00002737          	lui	a4,0x2
   175e0:	0006cc63          	bltz	a3,175f8 <_fputwc_r+0x50>
   175e4:	0a462683          	lw	a3,164(a2)
   175e8:	00e7e7b3          	or	a5,a5,a4
   175ec:	00f61823          	sh	a5,16(a2)
   175f0:	00e6e733          	or	a4,a3,a4
   175f4:	0ae62223          	sw	a4,164(a2)
   175f8:	8181a703          	lw	a4,-2024(gp) # 1d078 <__mb_cur_max>
   175fc:	00100793          	li	a5,1
   17600:	10f70463          	beq	a4,a5,17708 <_fputwc_r+0x160>
   17604:	000a0513          	mv	a0,s4
   17608:	00810593          	addi	a1,sp,8
   1760c:	00098613          	mv	a2,s3
   17610:	09c40693          	addi	a3,s0,156
   17614:	6b9000ef          	jal	184cc <_wcrtomb_r>
   17618:	fff00793          	li	a5,-1
   1761c:	00050913          	mv	s2,a0
   17620:	0af50063          	beq	a0,a5,176c0 <_fputwc_r+0x118>
   17624:	10050063          	beqz	a0,17724 <_fputwc_r+0x17c>
   17628:	00814583          	lbu	a1,8(sp)
   1762c:	00c42783          	lw	a5,12(s0)
   17630:	00000493          	li	s1,0
   17634:	00a00a93          	li	s5,10
   17638:	fff7879b          	addiw	a5,a5,-1
   1763c:	00f42623          	sw	a5,12(s0)
   17640:	0207ce63          	bltz	a5,1767c <_fputwc_r+0xd4>
   17644:	00043783          	ld	a5,0(s0)
   17648:	00b78023          	sb	a1,0(a5)
   1764c:	00043783          	ld	a5,0(s0)
   17650:	00178793          	addi	a5,a5,1
   17654:	00f43023          	sd	a5,0(s0)
   17658:	00148493          	addi	s1,s1,1
   1765c:	00810713          	addi	a4,sp,8
   17660:	009707b3          	add	a5,a4,s1
   17664:	0d24f063          	bleu	s2,s1,17724 <_fputwc_r+0x17c>
   17668:	0007c583          	lbu	a1,0(a5)
   1766c:	00c42783          	lw	a5,12(s0)
   17670:	fff7879b          	addiw	a5,a5,-1
   17674:	00f42623          	sw	a5,12(s0)
   17678:	fc07d6e3          	bgez	a5,17644 <_fputwc_r+0x9c>
   1767c:	02842683          	lw	a3,40(s0)
   17680:	06d7c863          	blt	a5,a3,176f0 <_fputwc_r+0x148>
   17684:	00043783          	ld	a5,0(s0)
   17688:	00b78023          	sb	a1,0(a5)
   1768c:	00043783          	ld	a5,0(s0)
   17690:	0007c703          	lbu	a4,0(a5)
   17694:	00178793          	addi	a5,a5,1
   17698:	fb571ee3          	bne	a4,s5,17654 <_fputwc_r+0xac>
   1769c:	000a0513          	mv	a0,s4
   176a0:	000a8593          	mv	a1,s5
   176a4:	00040613          	mv	a2,s0
   176a8:	489000ef          	jal	18330 <__swbuf_r>
   176ac:	0015051b          	addiw	a0,a0,1
   176b0:	00153513          	seqz	a0,a0
   176b4:	fa0502e3          	beqz	a0,17658 <_fputwc_r+0xb0>
   176b8:	fff00513          	li	a0,-1
   176bc:	0100006f          	j	176cc <_fputwc_r+0x124>
   176c0:	01045783          	lhu	a5,16(s0)
   176c4:	0407e793          	ori	a5,a5,64
   176c8:	00f41823          	sh	a5,16(s0)
   176cc:	04813083          	ld	ra,72(sp)
   176d0:	04013403          	ld	s0,64(sp)
   176d4:	03813483          	ld	s1,56(sp)
   176d8:	03013903          	ld	s2,48(sp)
   176dc:	02813983          	ld	s3,40(sp)
   176e0:	02013a03          	ld	s4,32(sp)
   176e4:	01813a83          	ld	s5,24(sp)
   176e8:	05010113          	addi	sp,sp,80
   176ec:	00008067          	ret
   176f0:	000a0513          	mv	a0,s4
   176f4:	00040613          	mv	a2,s0
   176f8:	439000ef          	jal	18330 <__swbuf_r>
   176fc:	0015051b          	addiw	a0,a0,1
   17700:	00153513          	seqz	a0,a0
   17704:	fb1ff06f          	j	176b4 <_fputwc_r+0x10c>
   17708:	fff9871b          	addiw	a4,s3,-1
   1770c:	0fe00793          	li	a5,254
   17710:	eee7eae3          	bltu	a5,a4,17604 <_fputwc_r+0x5c>
   17714:	0ff9f593          	andi	a1,s3,255
   17718:	00b10423          	sb	a1,8(sp)
   1771c:	00100913          	li	s2,1
   17720:	f0dff06f          	j	1762c <_fputwc_r+0x84>
   17724:	00098513          	mv	a0,s3
   17728:	fa5ff06f          	j	176cc <_fputwc_r+0x124>

000000000001772c <fputwc>:
   1772c:	fd010113          	addi	sp,sp,-48
   17730:	02813023          	sd	s0,32(sp)
   17734:	8101b783          	ld	a5,-2032(gp) # 1d070 <_impure_ptr>
   17738:	00913c23          	sd	s1,24(sp)
   1773c:	02113423          	sd	ra,40(sp)
   17740:	00050493          	mv	s1,a0
   17744:	00058613          	mv	a2,a1
   17748:	02078063          	beqz	a5,17768 <fputwc+0x3c>
   1774c:	0507a703          	lw	a4,80(a5)
   17750:	00071c63          	bnez	a4,17768 <fputwc+0x3c>
   17754:	00078513          	mv	a0,a5
   17758:	00b13423          	sd	a1,8(sp)
   1775c:	bccfc0ef          	jal	13b28 <__sinit>
   17760:	8101b783          	ld	a5,-2032(gp) # 1d070 <_impure_ptr>
   17764:	00813603          	ld	a2,8(sp)
   17768:	00048593          	mv	a1,s1
   1776c:	02813083          	ld	ra,40(sp)
   17770:	02013403          	ld	s0,32(sp)
   17774:	01813483          	ld	s1,24(sp)
   17778:	00078513          	mv	a0,a5
   1777c:	03010113          	addi	sp,sp,48
   17780:	e29ff06f          	j	175a8 <_fputwc_r>

0000000000017784 <__sfvwrite_r>:
   17784:	00c62783          	lw	a5,12(a2)
   17788:	1a078c63          	beqz	a5,17940 <__sfvwrite_r+0x1bc>
   1778c:	0105d703          	lhu	a4,16(a1)
   17790:	fa010113          	addi	sp,sp,-96
   17794:	04813823          	sd	s0,80(sp)
   17798:	00877793          	andi	a5,a4,8
   1779c:	03313c23          	sd	s3,56(sp)
   177a0:	03513423          	sd	s5,40(sp)
   177a4:	04113c23          	sd	ra,88(sp)
   177a8:	04913423          	sd	s1,72(sp)
   177ac:	05213023          	sd	s2,64(sp)
   177b0:	03413823          	sd	s4,48(sp)
   177b4:	03613023          	sd	s6,32(sp)
   177b8:	01713c23          	sd	s7,24(sp)
   177bc:	01813823          	sd	s8,16(sp)
   177c0:	01913423          	sd	s9,8(sp)
   177c4:	01a13023          	sd	s10,0(sp)
   177c8:	00058413          	mv	s0,a1
   177cc:	00050a93          	mv	s5,a0
   177d0:	00060993          	mv	s3,a2
   177d4:	0a078463          	beqz	a5,1787c <__sfvwrite_r+0xf8>
   177d8:	0185b783          	ld	a5,24(a1)
   177dc:	0a078063          	beqz	a5,1787c <__sfvwrite_r+0xf8>
   177e0:	00277793          	andi	a5,a4,2
   177e4:	0009b483          	ld	s1,0(s3)
   177e8:	0a078a63          	beqz	a5,1789c <__sfvwrite_r+0x118>
   177ec:	00000a13          	li	s4,0
   177f0:	00000913          	li	s2,0
   177f4:	40000b13          	li	s6,1024
   177f8:	000a0613          	mv	a2,s4
   177fc:	000a8513          	mv	a0,s5
   17800:	12090863          	beqz	s2,17930 <__sfvwrite_r+0x1ac>
   17804:	00090693          	mv	a3,s2
   17808:	03043583          	ld	a1,48(s0)
   1780c:	012b7463          	bleu	s2,s6,17814 <__sfvwrite_r+0x90>
   17810:	40000693          	li	a3,1024
   17814:	04043783          	ld	a5,64(s0)
   17818:	0006869b          	sext.w	a3,a3
   1781c:	000780e7          	jalr	a5
   17820:	00050713          	mv	a4,a0
   17824:	14a05263          	blez	a0,17968 <__sfvwrite_r+0x1e4>
   17828:	00c9a783          	lw	a5,12(s3)
   1782c:	00ea0a33          	add	s4,s4,a4
   17830:	40e90933          	sub	s2,s2,a4
   17834:	40a7853b          	subw	a0,a5,a0
   17838:	00a9a623          	sw	a0,12(s3)
   1783c:	fa051ee3          	bnez	a0,177f8 <__sfvwrite_r+0x74>
   17840:	00000513          	li	a0,0
   17844:	05813083          	ld	ra,88(sp)
   17848:	05013403          	ld	s0,80(sp)
   1784c:	04813483          	ld	s1,72(sp)
   17850:	04013903          	ld	s2,64(sp)
   17854:	03813983          	ld	s3,56(sp)
   17858:	03013a03          	ld	s4,48(sp)
   1785c:	02813a83          	ld	s5,40(sp)
   17860:	02013b03          	ld	s6,32(sp)
   17864:	01813b83          	ld	s7,24(sp)
   17868:	01013c03          	ld	s8,16(sp)
   1786c:	00813c83          	ld	s9,8(sp)
   17870:	00013d03          	ld	s10,0(sp)
   17874:	06010113          	addi	sp,sp,96
   17878:	00008067          	ret
   1787c:	000a8513          	mv	a0,s5
   17880:	00040593          	mv	a1,s0
   17884:	dc4fa0ef          	jal	11e48 <__swsetup_r>
   17888:	3a051463          	bnez	a0,17c30 <__sfvwrite_r+0x4ac>
   1788c:	01045703          	lhu	a4,16(s0)
   17890:	0009b483          	ld	s1,0(s3)
   17894:	00277793          	andi	a5,a4,2
   17898:	f4079ae3          	bnez	a5,177ec <__sfvwrite_r+0x68>
   1789c:	03f71793          	slli	a5,a4,0x3f
   178a0:	0c07ce63          	bltz	a5,1797c <__sfvwrite_r+0x1f8>
   178a4:	00000b93          	li	s7,0
   178a8:	00000913          	li	s2,0
   178ac:	06090a63          	beqz	s2,17920 <__sfvwrite_r+0x19c>
   178b0:	20077793          	andi	a5,a4,512
   178b4:	00c42a03          	lw	s4,12(s0)
   178b8:	1a078a63          	beqz	a5,17a6c <__sfvwrite_r+0x2e8>
   178bc:	000a0c13          	mv	s8,s4
   178c0:	21497863          	bleu	s4,s2,17ad0 <__sfvwrite_r+0x34c>
   178c4:	00043503          	ld	a0,0(s0)
   178c8:	00090c9b          	sext.w	s9,s2
   178cc:	000c8b13          	mv	s6,s9
   178d0:	000c8a13          	mv	s4,s9
   178d4:	000b0c13          	mv	s8,s6
   178d8:	000c0613          	mv	a2,s8
   178dc:	000b8593          	mv	a1,s7
   178e0:	36c000ef          	jal	17c4c <memmove>
   178e4:	00c42683          	lw	a3,12(s0)
   178e8:	00043783          	ld	a5,0(s0)
   178ec:	000b0713          	mv	a4,s6
   178f0:	41968cbb          	subw	s9,a3,s9
   178f4:	01878c33          	add	s8,a5,s8
   178f8:	01942623          	sw	s9,12(s0)
   178fc:	01843023          	sd	s8,0(s0)
   17900:	00c9a783          	lw	a5,12(s3)
   17904:	00eb8bb3          	add	s7,s7,a4
   17908:	40e90933          	sub	s2,s2,a4
   1790c:	41478a3b          	subw	s4,a5,s4
   17910:	0149a623          	sw	s4,12(s3)
   17914:	f20a06e3          	beqz	s4,17840 <__sfvwrite_r+0xbc>
   17918:	01045703          	lhu	a4,16(s0)
   1791c:	f8091ae3          	bnez	s2,178b0 <__sfvwrite_r+0x12c>
   17920:	0004bb83          	ld	s7,0(s1)
   17924:	0084b903          	ld	s2,8(s1)
   17928:	01048493          	addi	s1,s1,16
   1792c:	f81ff06f          	j	178ac <__sfvwrite_r+0x128>
   17930:	0004ba03          	ld	s4,0(s1)
   17934:	0084b903          	ld	s2,8(s1)
   17938:	01048493          	addi	s1,s1,16
   1793c:	ebdff06f          	j	177f8 <__sfvwrite_r+0x74>
   17940:	00000513          	li	a0,0
   17944:	00008067          	ret
   17948:	418000ef          	jal	17d60 <_realloc_r>
   1794c:	00050d13          	mv	s10,a0
   17950:	26051a63          	bnez	a0,17bc4 <__sfvwrite_r+0x440>
   17954:	01843583          	ld	a1,24(s0)
   17958:	000a8513          	mv	a0,s5
   1795c:	b24fc0ef          	jal	13c80 <_free_r>
   17960:	00c00793          	li	a5,12
   17964:	00faa023          	sw	a5,0(s5)
   17968:	01045783          	lhu	a5,16(s0)
   1796c:	fff00513          	li	a0,-1
   17970:	0407e793          	ori	a5,a5,64
   17974:	00f41823          	sh	a5,16(s0)
   17978:	ecdff06f          	j	17844 <__sfvwrite_r+0xc0>
   1797c:	00000b13          	li	s6,0
   17980:	00000c13          	li	s8,0
   17984:	00000c93          	li	s9,0
   17988:	00000a13          	li	s4,0
   1798c:	060a0e63          	beqz	s4,17a08 <__sfvwrite_r+0x284>
   17990:	180c0a63          	beqz	s8,17b24 <__sfvwrite_r+0x3a0>
   17994:	000b0913          	mv	s2,s6
   17998:	016a7463          	bleu	s6,s4,179a0 <__sfvwrite_r+0x21c>
   1799c:	000a0913          	mv	s2,s4
   179a0:	00043503          	ld	a0,0(s0)
   179a4:	01843703          	ld	a4,24(s0)
   179a8:	0009091b          	sext.w	s2,s2
   179ac:	00c42783          	lw	a5,12(s0)
   179b0:	02042683          	lw	a3,32(s0)
   179b4:	00a77663          	bleu	a0,a4,179c0 <__sfvwrite_r+0x23c>
   179b8:	00d78bbb          	addw	s7,a5,a3
   179bc:	072bc063          	blt	s7,s2,17a1c <__sfvwrite_r+0x298>
   179c0:	0ed94463          	blt	s2,a3,17aa8 <__sfvwrite_r+0x324>
   179c4:	04043783          	ld	a5,64(s0)
   179c8:	03043583          	ld	a1,48(s0)
   179cc:	000a8513          	mv	a0,s5
   179d0:	000c8613          	mv	a2,s9
   179d4:	000780e7          	jalr	a5
   179d8:	00050913          	mv	s2,a0
   179dc:	f8a056e3          	blez	a0,17968 <__sfvwrite_r+0x1e4>
   179e0:	412b0b3b          	subw	s6,s6,s2
   179e4:	060b0863          	beqz	s6,17a54 <__sfvwrite_r+0x2d0>
   179e8:	00c9a783          	lw	a5,12(s3)
   179ec:	00090713          	mv	a4,s2
   179f0:	012c8cb3          	add	s9,s9,s2
   179f4:	4127893b          	subw	s2,a5,s2
   179f8:	40ea0a33          	sub	s4,s4,a4
   179fc:	0129a623          	sw	s2,12(s3)
   17a00:	e40900e3          	beqz	s2,17840 <__sfvwrite_r+0xbc>
   17a04:	f80a16e3          	bnez	s4,17990 <__sfvwrite_r+0x20c>
   17a08:	0004bc83          	ld	s9,0(s1)
   17a0c:	0084ba03          	ld	s4,8(s1)
   17a10:	00000c13          	li	s8,0
   17a14:	01048493          	addi	s1,s1,16
   17a18:	f75ff06f          	j	1798c <__sfvwrite_r+0x208>
   17a1c:	000c8593          	mv	a1,s9
   17a20:	000b8613          	mv	a2,s7
   17a24:	228000ef          	jal	17c4c <memmove>
   17a28:	00043703          	ld	a4,0(s0)
   17a2c:	000b8793          	mv	a5,s7
   17a30:	000a8513          	mv	a0,s5
   17a34:	00f707b3          	add	a5,a4,a5
   17a38:	00f43023          	sd	a5,0(s0)
   17a3c:	00040593          	mv	a1,s0
   17a40:	af9fb0ef          	jal	13538 <_fflush_r>
   17a44:	f20512e3          	bnez	a0,17968 <__sfvwrite_r+0x1e4>
   17a48:	000b8913          	mv	s2,s7
   17a4c:	412b0b3b          	subw	s6,s6,s2
   17a50:	f80b1ce3          	bnez	s6,179e8 <__sfvwrite_r+0x264>
   17a54:	000a8513          	mv	a0,s5
   17a58:	00040593          	mv	a1,s0
   17a5c:	addfb0ef          	jal	13538 <_fflush_r>
   17a60:	f00514e3          	bnez	a0,17968 <__sfvwrite_r+0x1e4>
   17a64:	00000c13          	li	s8,0
   17a68:	f81ff06f          	j	179e8 <__sfvwrite_r+0x264>
   17a6c:	00043503          	ld	a0,0(s0)
   17a70:	01843783          	ld	a5,24(s0)
   17a74:	00a7f463          	bleu	a0,a5,17a7c <__sfvwrite_r+0x2f8>
   17a78:	172a6e63          	bltu	s4,s2,17bf4 <__sfvwrite_r+0x470>
   17a7c:	02042683          	lw	a3,32(s0)
   17a80:	06d96863          	bltu	s2,a3,17af0 <__sfvwrite_r+0x36c>
   17a84:	04043783          	ld	a5,64(s0)
   17a88:	03043583          	ld	a1,48(s0)
   17a8c:	000a8513          	mv	a0,s5
   17a90:	000b8613          	mv	a2,s7
   17a94:	000780e7          	jalr	a5
   17a98:	00050a13          	mv	s4,a0
   17a9c:	eca056e3          	blez	a0,17968 <__sfvwrite_r+0x1e4>
   17aa0:	000a0713          	mv	a4,s4
   17aa4:	e5dff06f          	j	17900 <__sfvwrite_r+0x17c>
   17aa8:	000c8593          	mv	a1,s9
   17aac:	00090613          	mv	a2,s2
   17ab0:	19c000ef          	jal	17c4c <memmove>
   17ab4:	00c42683          	lw	a3,12(s0)
   17ab8:	00043703          	ld	a4,0(s0)
   17abc:	412686bb          	subw	a3,a3,s2
   17ac0:	012707b3          	add	a5,a4,s2
   17ac4:	00d42623          	sw	a3,12(s0)
   17ac8:	00f43023          	sd	a5,0(s0)
   17acc:	f15ff06f          	j	179e0 <__sfvwrite_r+0x25c>
   17ad0:	48077793          	andi	a5,a4,1152
   17ad4:	06079a63          	bnez	a5,17b48 <__sfvwrite_r+0x3c4>
   17ad8:	0009079b          	sext.w	a5,s2
   17adc:	000a0c93          	mv	s9,s4
   17ae0:	00078a13          	mv	s4,a5
   17ae4:	00043503          	ld	a0,0(s0)
   17ae8:	000a0b13          	mv	s6,s4
   17aec:	dedff06f          	j	178d8 <__sfvwrite_r+0x154>
   17af0:	00090a1b          	sext.w	s4,s2
   17af4:	000b8593          	mv	a1,s7
   17af8:	000a0613          	mv	a2,s4
   17afc:	150000ef          	jal	17c4c <memmove>
   17b00:	00c42703          	lw	a4,12(s0)
   17b04:	00043783          	ld	a5,0(s0)
   17b08:	000a0693          	mv	a3,s4
   17b0c:	4147073b          	subw	a4,a4,s4
   17b10:	00d787b3          	add	a5,a5,a3
   17b14:	00e42623          	sw	a4,12(s0)
   17b18:	00f43023          	sd	a5,0(s0)
   17b1c:	000a0713          	mv	a4,s4
   17b20:	de1ff06f          	j	17900 <__sfvwrite_r+0x17c>
   17b24:	000c8513          	mv	a0,s9
   17b28:	00a00593          	li	a1,10
   17b2c:	000a0613          	mv	a2,s4
   17b30:	824fd0ef          	jal	14b54 <memchr>
   17b34:	0e050863          	beqz	a0,17c24 <__sfvwrite_r+0x4a0>
   17b38:	00150b13          	addi	s6,a0,1
   17b3c:	419b0b3b          	subw	s6,s6,s9
   17b40:	00100c13          	li	s8,1
   17b44:	e51ff06f          	j	17994 <__sfvwrite_r+0x210>
   17b48:	02042c03          	lw	s8,32(s0)
   17b4c:	01843583          	ld	a1,24(s0)
   17b50:	00043b03          	ld	s6,0(s0)
   17b54:	001c179b          	slliw	a5,s8,0x1
   17b58:	01878c3b          	addw	s8,a5,s8
   17b5c:	01fc579b          	srliw	a5,s8,0x1f
   17b60:	40bb0b3b          	subw	s6,s6,a1
   17b64:	01878c3b          	addw	s8,a5,s8
   17b68:	000b0a13          	mv	s4,s6
   17b6c:	401c5c1b          	sraiw	s8,s8,0x1
   17b70:	001a0793          	addi	a5,s4,1
   17b74:	000c0613          	mv	a2,s8
   17b78:	012787b3          	add	a5,a5,s2
   17b7c:	00f67863          	bleu	a5,a2,17b8c <__sfvwrite_r+0x408>
   17b80:	001b0c1b          	addiw	s8,s6,1
   17b84:	01890c3b          	addw	s8,s2,s8
   17b88:	000c0613          	mv	a2,s8
   17b8c:	40077713          	andi	a4,a4,1024
   17b90:	000a8513          	mv	a0,s5
   17b94:	da070ae3          	beqz	a4,17948 <__sfvwrite_r+0x1c4>
   17b98:	00060593          	mv	a1,a2
   17b9c:	fd0fc0ef          	jal	1436c <_malloc_r>
   17ba0:	00050d13          	mv	s10,a0
   17ba4:	da050ee3          	beqz	a0,17960 <__sfvwrite_r+0x1dc>
   17ba8:	01843583          	ld	a1,24(s0)
   17bac:	000a0613          	mv	a2,s4
   17bb0:	888fd0ef          	jal	14c38 <memcpy>
   17bb4:	01045783          	lhu	a5,16(s0)
   17bb8:	b7f7f793          	andi	a5,a5,-1153
   17bbc:	0807e793          	ori	a5,a5,128
   17bc0:	00f41823          	sh	a5,16(s0)
   17bc4:	00090c9b          	sext.w	s9,s2
   17bc8:	416c07bb          	subw	a5,s8,s6
   17bcc:	014d0533          	add	a0,s10,s4
   17bd0:	000c8b13          	mv	s6,s9
   17bd4:	03842023          	sw	s8,32(s0)
   17bd8:	01a43c23          	sd	s10,24(s0)
   17bdc:	00a43023          	sd	a0,0(s0)
   17be0:	00f42623          	sw	a5,12(s0)
   17be4:	000c8a13          	mv	s4,s9
   17be8:	000c8c13          	mv	s8,s9
   17bec:	cf6976e3          	bleu	s6,s2,178d8 <__sfvwrite_r+0x154>
   17bf0:	ce1ff06f          	j	178d0 <__sfvwrite_r+0x14c>
   17bf4:	000b8593          	mv	a1,s7
   17bf8:	000a0613          	mv	a2,s4
   17bfc:	050000ef          	jal	17c4c <memmove>
   17c00:	00043783          	ld	a5,0(s0)
   17c04:	000a8513          	mv	a0,s5
   17c08:	00040593          	mv	a1,s0
   17c0c:	01478b33          	add	s6,a5,s4
   17c10:	01643023          	sd	s6,0(s0)
   17c14:	925fb0ef          	jal	13538 <_fflush_r>
   17c18:	d40518e3          	bnez	a0,17968 <__sfvwrite_r+0x1e4>
   17c1c:	000a0713          	mv	a4,s4
   17c20:	ce1ff06f          	j	17900 <__sfvwrite_r+0x17c>
   17c24:	001a0b1b          	addiw	s6,s4,1
   17c28:	00100c13          	li	s8,1
   17c2c:	d69ff06f          	j	17994 <__sfvwrite_r+0x210>
   17c30:	01045783          	lhu	a5,16(s0)
   17c34:	fff00513          	li	a0,-1
   17c38:	0407e793          	ori	a5,a5,64
   17c3c:	00f41823          	sh	a5,16(s0)
   17c40:	00900793          	li	a5,9
   17c44:	00faa023          	sw	a5,0(s5)
   17c48:	bfdff06f          	j	17844 <__sfvwrite_r+0xc0>

0000000000017c4c <memmove>:
   17c4c:	0006061b          	sext.w	a2,a2
   17c50:	00060693          	mv	a3,a2
   17c54:	02a5fe63          	bleu	a0,a1,17c90 <memmove+0x44>
   17c58:	00060793          	mv	a5,a2
   17c5c:	00f58733          	add	a4,a1,a5
   17c60:	02e57863          	bleu	a4,a0,17c90 <memmove+0x44>
   17c64:	00f507b3          	add	a5,a0,a5
   17c68:	fff6069b          	addiw	a3,a2,-1
   17c6c:	fff00593          	li	a1,-1
   17c70:	04060863          	beqz	a2,17cc0 <memmove+0x74>
   17c74:	fff70713          	addi	a4,a4,-1 # 1fff <_ftext-0xe001>
   17c78:	00074603          	lbu	a2,0(a4)
   17c7c:	fff78793          	addi	a5,a5,-1
   17c80:	fff6869b          	addiw	a3,a3,-1
   17c84:	00c78023          	sb	a2,0(a5)
   17c88:	feb696e3          	bne	a3,a1,17c74 <memmove+0x28>
   17c8c:	00008067          	ret
   17c90:	01f00293          	li	t0,31
   17c94:	00050793          	mv	a5,a0
   17c98:	02c2e663          	bltu	t0,a2,17cc4 <memmove+0x78>
   17c9c:	fff6871b          	addiw	a4,a3,-1
   17ca0:	02068063          	beqz	a3,17cc0 <memmove+0x74>
   17ca4:	fff00613          	li	a2,-1
   17ca8:	00158593          	addi	a1,a1,1
   17cac:	fff5c683          	lbu	a3,-1(a1)
   17cb0:	00178793          	addi	a5,a5,1
   17cb4:	fff7071b          	addiw	a4,a4,-1
   17cb8:	fed78fa3          	sb	a3,-1(a5)
   17cbc:	fec716e3          	bne	a4,a2,17ca8 <memmove+0x5c>
   17cc0:	00008067          	ret
   17cc4:	00b56733          	or	a4,a0,a1
   17cc8:	03d71813          	slli	a6,a4,0x3d
   17ccc:	fc0818e3          	bnez	a6,17c9c <memmove+0x50>
   17cd0:	00060813          	mv	a6,a2
   17cd4:	00058713          	mv	a4,a1
   17cd8:	00073683          	ld	a3,0(a4)
   17cdc:	02078793          	addi	a5,a5,32
   17ce0:	02070713          	addi	a4,a4,32
   17ce4:	fed7b023          	sd	a3,-32(a5)
   17ce8:	fe873883          	ld	a7,-24(a4)
   17cec:	fe08069b          	addiw	a3,a6,-32
   17cf0:	00068813          	mv	a6,a3
   17cf4:	ff17b423          	sd	a7,-24(a5)
   17cf8:	ff073883          	ld	a7,-16(a4)
   17cfc:	ff17b823          	sd	a7,-16(a5)
   17d00:	ff873883          	ld	a7,-8(a4)
   17d04:	ff17bc23          	sd	a7,-8(a5)
   17d08:	fcd2e8e3          	bltu	t0,a3,17cd8 <memmove+0x8c>
   17d0c:	fe06061b          	addiw	a2,a2,-32
   17d10:	0056571b          	srliw	a4,a2,0x5
   17d14:	02071693          	slli	a3,a4,0x20
   17d18:	0206d693          	srli	a3,a3,0x20
   17d1c:	00168693          	addi	a3,a3,1
   17d20:	0057171b          	slliw	a4,a4,0x5
   17d24:	00569693          	slli	a3,a3,0x5
   17d28:	40e6073b          	subw	a4,a2,a4
   17d2c:	00700613          	li	a2,7
   17d30:	00d507b3          	add	a5,a0,a3
   17d34:	00d585b3          	add	a1,a1,a3
   17d38:	00070693          	mv	a3,a4
   17d3c:	f6e650e3          	ble	a4,a2,17c9c <memmove+0x50>
   17d40:	00858593          	addi	a1,a1,8
   17d44:	ff85b683          	ld	a3,-8(a1)
   17d48:	ff87071b          	addiw	a4,a4,-8
   17d4c:	00878793          	addi	a5,a5,8
   17d50:	fed7bc23          	sd	a3,-8(a5)
   17d54:	00070693          	mv	a3,a4
   17d58:	fee644e3          	blt	a2,a4,17d40 <memmove+0xf4>
   17d5c:	f41ff06f          	j	17c9c <memmove+0x50>

0000000000017d60 <_realloc_r>:
   17d60:	fb010113          	addi	sp,sp,-80
   17d64:	02913c23          	sd	s1,56(sp)
   17d68:	03313423          	sd	s3,40(sp)
   17d6c:	04113423          	sd	ra,72(sp)
   17d70:	04813023          	sd	s0,64(sp)
   17d74:	03213823          	sd	s2,48(sp)
   17d78:	03413023          	sd	s4,32(sp)
   17d7c:	01513c23          	sd	s5,24(sp)
   17d80:	01613823          	sd	s6,16(sp)
   17d84:	01713423          	sd	s7,8(sp)
   17d88:	01813023          	sd	s8,0(sp)
   17d8c:	00058993          	mv	s3,a1
   17d90:	00060493          	mv	s1,a2
   17d94:	2c058c63          	beqz	a1,1806c <_realloc_r+0x30c>
   17d98:	00050913          	mv	s2,a0
   17d9c:	8acfd0ef          	jal	14e48 <__malloc_lock>
   17da0:	ff89b783          	ld	a5,-8(s3)
   17da4:	01748413          	addi	s0,s1,23
   17da8:	02e00713          	li	a4,46
   17dac:	ff098a93          	addi	s5,s3,-16
   17db0:	ffc7fa13          	andi	s4,a5,-4
   17db4:	0e877c63          	bleu	s0,a4,17eac <_realloc_r+0x14c>
   17db8:	80000737          	lui	a4,0x80000
   17dbc:	ff047413          	andi	s0,s0,-16
   17dc0:	fff74713          	not	a4,a4
   17dc4:	1e876663          	bltu	a4,s0,17fb0 <_realloc_r+0x250>
   17dc8:	1e946463          	bltu	s0,s1,17fb0 <_realloc_r+0x250>
   17dcc:	0e8a5463          	ble	s0,s4,17eb4 <_realloc_r+0x154>
   17dd0:	0001db37          	lui	s6,0x1d
   17dd4:	850b0b13          	addi	s6,s6,-1968 # 1c850 <__malloc_av_>
   17dd8:	010b3683          	ld	a3,16(s6)
   17ddc:	014a8733          	add	a4,s5,s4
   17de0:	2ce68e63          	beq	a3,a4,180bc <_realloc_r+0x35c>
   17de4:	00873683          	ld	a3,8(a4) # ffffffff80000008 <_gp+0xffffffff7ffe27a8>
   17de8:	ffe6f613          	andi	a2,a3,-2
   17dec:	00c70633          	add	a2,a4,a2
   17df0:	00863603          	ld	a2,8(a2)
   17df4:	03f61593          	slli	a1,a2,0x3f
   17df8:	1205c263          	bltz	a1,17f1c <_realloc_r+0x1bc>
   17dfc:	ffc6f693          	andi	a3,a3,-4
   17e00:	014686b3          	add	a3,a3,s4
   17e04:	2886de63          	ble	s0,a3,180a0 <_realloc_r+0x340>
   17e08:	03f79593          	slli	a1,a5,0x3f
   17e0c:	1e05c463          	bltz	a1,17ff4 <_realloc_r+0x294>
   17e10:	ff09bb83          	ld	s7,-16(s3)
   17e14:	417a8bb3          	sub	s7,s5,s7
   17e18:	008bb783          	ld	a5,8(s7)
   17e1c:	ffc7f793          	andi	a5,a5,-4
   17e20:	00f68b33          	add	s6,a3,a5
   17e24:	108b4863          	blt	s6,s0,17f34 <_realloc_r+0x1d4>
   17e28:	01873783          	ld	a5,24(a4)
   17e2c:	01073703          	ld	a4,16(a4)
   17e30:	ff8a0613          	addi	a2,s4,-8
   17e34:	010b8493          	addi	s1,s7,16
   17e38:	00f73c23          	sd	a5,24(a4)
   17e3c:	00e7b823          	sd	a4,16(a5)
   17e40:	010bb703          	ld	a4,16(s7)
   17e44:	018bb783          	ld	a5,24(s7)
   17e48:	00f73c23          	sd	a5,24(a4)
   17e4c:	00e7b823          	sd	a4,16(a5)
   17e50:	04800793          	li	a5,72
   17e54:	34c7ec63          	bltu	a5,a2,181ac <_realloc_r+0x44c>
   17e58:	02700713          	li	a4,39
   17e5c:	00048793          	mv	a5,s1
   17e60:	02c77263          	bleu	a2,a4,17e84 <_realloc_r+0x124>
   17e64:	0009b783          	ld	a5,0(s3)
   17e68:	00fbb823          	sd	a5,16(s7)
   17e6c:	0089b783          	ld	a5,8(s3)
   17e70:	00fbbc23          	sd	a5,24(s7)
   17e74:	03700793          	li	a5,55
   17e78:	3cc7e263          	bltu	a5,a2,1823c <_realloc_r+0x4dc>
   17e7c:	020b8793          	addi	a5,s7,32
   17e80:	01098993          	addi	s3,s3,16
   17e84:	0009b703          	ld	a4,0(s3)
   17e88:	000b0a13          	mv	s4,s6
   17e8c:	000b8a93          	mv	s5,s7
   17e90:	00e7b023          	sd	a4,0(a5)
   17e94:	0089b703          	ld	a4,8(s3)
   17e98:	00e7b423          	sd	a4,8(a5)
   17e9c:	0109b703          	ld	a4,16(s3)
   17ea0:	00e7b823          	sd	a4,16(a5)
   17ea4:	008bb783          	ld	a5,8(s7)
   17ea8:	0100006f          	j	17eb8 <_realloc_r+0x158>
   17eac:	02000413          	li	s0,32
   17eb0:	f19ff06f          	j	17dc8 <_realloc_r+0x68>
   17eb4:	00098493          	mv	s1,s3
   17eb8:	408a0733          	sub	a4,s4,s0
   17ebc:	01f00693          	li	a3,31
   17ec0:	0017f793          	andi	a5,a5,1
   17ec4:	0ee6ee63          	bltu	a3,a4,17fc0 <_realloc_r+0x260>
   17ec8:	0147e7b3          	or	a5,a5,s4
   17ecc:	00fab423          	sd	a5,8(s5)
   17ed0:	014a8633          	add	a2,s5,s4
   17ed4:	00863783          	ld	a5,8(a2)
   17ed8:	0017e793          	ori	a5,a5,1
   17edc:	00f63423          	sd	a5,8(a2)
   17ee0:	00090513          	mv	a0,s2
   17ee4:	f69fc0ef          	jal	14e4c <__malloc_unlock>
   17ee8:	00048513          	mv	a0,s1
   17eec:	04813083          	ld	ra,72(sp)
   17ef0:	04013403          	ld	s0,64(sp)
   17ef4:	03813483          	ld	s1,56(sp)
   17ef8:	03013903          	ld	s2,48(sp)
   17efc:	02813983          	ld	s3,40(sp)
   17f00:	02013a03          	ld	s4,32(sp)
   17f04:	01813a83          	ld	s5,24(sp)
   17f08:	01013b03          	ld	s6,16(sp)
   17f0c:	00813b83          	ld	s7,8(sp)
   17f10:	00013c03          	ld	s8,0(sp)
   17f14:	05010113          	addi	sp,sp,80
   17f18:	00008067          	ret
   17f1c:	03f79613          	slli	a2,a5,0x3f
   17f20:	0c064a63          	bltz	a2,17ff4 <_realloc_r+0x294>
   17f24:	ff09bb83          	ld	s7,-16(s3)
   17f28:	417a8bb3          	sub	s7,s5,s7
   17f2c:	008bb783          	ld	a5,8(s7)
   17f30:	ffc7f793          	andi	a5,a5,-4
   17f34:	01478b33          	add	s6,a5,s4
   17f38:	0a8b4e63          	blt	s6,s0,17ff4 <_realloc_r+0x294>
   17f3c:	018bb703          	ld	a4,24(s7)
   17f40:	010bb683          	ld	a3,16(s7)
   17f44:	ff8a0613          	addi	a2,s4,-8
   17f48:	04800593          	li	a1,72
   17f4c:	00e6bc23          	sd	a4,24(a3)
   17f50:	010b8493          	addi	s1,s7,16
   17f54:	00d73823          	sd	a3,16(a4)
   17f58:	24c5ea63          	bltu	a1,a2,181ac <_realloc_r+0x44c>
   17f5c:	02700693          	li	a3,39
   17f60:	00048713          	mv	a4,s1
   17f64:	02c6f263          	bleu	a2,a3,17f88 <_realloc_r+0x228>
   17f68:	0009b783          	ld	a5,0(s3)
   17f6c:	00fbb823          	sd	a5,16(s7)
   17f70:	0089b783          	ld	a5,8(s3)
   17f74:	00fbbc23          	sd	a5,24(s7)
   17f78:	03700793          	li	a5,55
   17f7c:	30c7e063          	bltu	a5,a2,1827c <_realloc_r+0x51c>
   17f80:	020b8713          	addi	a4,s7,32
   17f84:	01098993          	addi	s3,s3,16
   17f88:	0009b683          	ld	a3,0(s3)
   17f8c:	000b0a13          	mv	s4,s6
   17f90:	000b8a93          	mv	s5,s7
   17f94:	00d73023          	sd	a3,0(a4)
   17f98:	0089b783          	ld	a5,8(s3)
   17f9c:	00f73423          	sd	a5,8(a4)
   17fa0:	0109b783          	ld	a5,16(s3)
   17fa4:	00f73823          	sd	a5,16(a4)
   17fa8:	008bb783          	ld	a5,8(s7)
   17fac:	f0dff06f          	j	17eb8 <_realloc_r+0x158>
   17fb0:	00c00793          	li	a5,12
   17fb4:	00f92023          	sw	a5,0(s2)
   17fb8:	00000513          	li	a0,0
   17fbc:	f31ff06f          	j	17eec <_realloc_r+0x18c>
   17fc0:	008a85b3          	add	a1,s5,s0
   17fc4:	0087e433          	or	s0,a5,s0
   17fc8:	00176793          	ori	a5,a4,1
   17fcc:	008ab423          	sd	s0,8(s5)
   17fd0:	00e58733          	add	a4,a1,a4
   17fd4:	00f5b423          	sd	a5,8(a1)
   17fd8:	00873783          	ld	a5,8(a4)
   17fdc:	00090513          	mv	a0,s2
   17fe0:	01058593          	addi	a1,a1,16
   17fe4:	0017e793          	ori	a5,a5,1
   17fe8:	00f73423          	sd	a5,8(a4)
   17fec:	c95fb0ef          	jal	13c80 <_free_r>
   17ff0:	ef1ff06f          	j	17ee0 <_realloc_r+0x180>
   17ff4:	00048593          	mv	a1,s1
   17ff8:	00090513          	mv	a0,s2
   17ffc:	b70fc0ef          	jal	1436c <_malloc_r>
   18000:	00050493          	mv	s1,a0
   18004:	30050063          	beqz	a0,18304 <_realloc_r+0x5a4>
   18008:	ff89b783          	ld	a5,-8(s3)
   1800c:	ff050693          	addi	a3,a0,-16
   18010:	ffe7f713          	andi	a4,a5,-2
   18014:	00ea8733          	add	a4,s5,a4
   18018:	20e68863          	beq	a3,a4,18228 <_realloc_r+0x4c8>
   1801c:	ff8a0613          	addi	a2,s4,-8
   18020:	04800793          	li	a5,72
   18024:	1cc7ec63          	bltu	a5,a2,181fc <_realloc_r+0x49c>
   18028:	02700713          	li	a4,39
   1802c:	14c76e63          	bltu	a4,a2,18188 <_realloc_r+0x428>
   18030:	00050793          	mv	a5,a0
   18034:	00098713          	mv	a4,s3
   18038:	00073683          	ld	a3,0(a4)
   1803c:	00d7b023          	sd	a3,0(a5)
   18040:	00873683          	ld	a3,8(a4)
   18044:	00d7b423          	sd	a3,8(a5)
   18048:	01073703          	ld	a4,16(a4)
   1804c:	00e7b823          	sd	a4,16(a5)
   18050:	00098593          	mv	a1,s3
   18054:	00090513          	mv	a0,s2
   18058:	c29fb0ef          	jal	13c80 <_free_r>
   1805c:	00090513          	mv	a0,s2
   18060:	dedfc0ef          	jal	14e4c <__malloc_unlock>
   18064:	00048513          	mv	a0,s1
   18068:	e85ff06f          	j	17eec <_realloc_r+0x18c>
   1806c:	04813083          	ld	ra,72(sp)
   18070:	04013403          	ld	s0,64(sp)
   18074:	03813483          	ld	s1,56(sp)
   18078:	03013903          	ld	s2,48(sp)
   1807c:	02813983          	ld	s3,40(sp)
   18080:	02013a03          	ld	s4,32(sp)
   18084:	01813a83          	ld	s5,24(sp)
   18088:	01013b03          	ld	s6,16(sp)
   1808c:	00813b83          	ld	s7,8(sp)
   18090:	00013c03          	ld	s8,0(sp)
   18094:	00060593          	mv	a1,a2
   18098:	05010113          	addi	sp,sp,80
   1809c:	ad0fc06f          	j	1436c <_malloc_r>
   180a0:	01873603          	ld	a2,24(a4)
   180a4:	01073703          	ld	a4,16(a4)
   180a8:	00098493          	mv	s1,s3
   180ac:	00068a13          	mv	s4,a3
   180b0:	00c73c23          	sd	a2,24(a4)
   180b4:	00e63823          	sd	a4,16(a2)
   180b8:	e01ff06f          	j	17eb8 <_realloc_r+0x158>
   180bc:	0086b703          	ld	a4,8(a3)
   180c0:	02040693          	addi	a3,s0,32
   180c4:	ffc77713          	andi	a4,a4,-4
   180c8:	01470733          	add	a4,a4,s4
   180cc:	0ed75e63          	ble	a3,a4,181c8 <_realloc_r+0x468>
   180d0:	03f79613          	slli	a2,a5,0x3f
   180d4:	f20640e3          	bltz	a2,17ff4 <_realloc_r+0x294>
   180d8:	ff09bb83          	ld	s7,-16(s3)
   180dc:	417a8bb3          	sub	s7,s5,s7
   180e0:	008bb783          	ld	a5,8(s7)
   180e4:	ffc7f793          	andi	a5,a5,-4
   180e8:	00f70c33          	add	s8,a4,a5
   180ec:	e4dc44e3          	blt	s8,a3,17f34 <_realloc_r+0x1d4>
   180f0:	018bb783          	ld	a5,24(s7)
   180f4:	010bb703          	ld	a4,16(s7)
   180f8:	ff8a0613          	addi	a2,s4,-8
   180fc:	04800693          	li	a3,72
   18100:	00f73c23          	sd	a5,24(a4)
   18104:	010b8493          	addi	s1,s7,16
   18108:	00e7b823          	sd	a4,16(a5)
   1810c:	1cc6e463          	bltu	a3,a2,182d4 <_realloc_r+0x574>
   18110:	02700713          	li	a4,39
   18114:	00048793          	mv	a5,s1
   18118:	02c77263          	bleu	a2,a4,1813c <_realloc_r+0x3dc>
   1811c:	0009b783          	ld	a5,0(s3)
   18120:	00fbb823          	sd	a5,16(s7)
   18124:	0089b783          	ld	a5,8(s3)
   18128:	00fbbc23          	sd	a5,24(s7)
   1812c:	03700793          	li	a5,55
   18130:	1ac7ea63          	bltu	a5,a2,182e4 <_realloc_r+0x584>
   18134:	020b8793          	addi	a5,s7,32
   18138:	01098993          	addi	s3,s3,16
   1813c:	0009b703          	ld	a4,0(s3)
   18140:	00e7b023          	sd	a4,0(a5)
   18144:	0089b703          	ld	a4,8(s3)
   18148:	00e7b423          	sd	a4,8(a5)
   1814c:	0109b703          	ld	a4,16(s3)
   18150:	00e7b823          	sd	a4,16(a5)
   18154:	408c07b3          	sub	a5,s8,s0
   18158:	008b8733          	add	a4,s7,s0
   1815c:	0017e793          	ori	a5,a5,1
   18160:	00eb3823          	sd	a4,16(s6)
   18164:	00f73423          	sd	a5,8(a4)
   18168:	008bb783          	ld	a5,8(s7)
   1816c:	00090513          	mv	a0,s2
   18170:	0017f793          	andi	a5,a5,1
   18174:	00f46433          	or	s0,s0,a5
   18178:	008bb423          	sd	s0,8(s7)
   1817c:	cd1fc0ef          	jal	14e4c <__malloc_unlock>
   18180:	00048513          	mv	a0,s1
   18184:	d69ff06f          	j	17eec <_realloc_r+0x18c>
   18188:	0009b703          	ld	a4,0(s3)
   1818c:	00e53023          	sd	a4,0(a0)
   18190:	0089b703          	ld	a4,8(s3)
   18194:	00e53423          	sd	a4,8(a0)
   18198:	03700713          	li	a4,55
   1819c:	06c76663          	bltu	a4,a2,18208 <_realloc_r+0x4a8>
   181a0:	01050793          	addi	a5,a0,16
   181a4:	01098713          	addi	a4,s3,16
   181a8:	e91ff06f          	j	18038 <_realloc_r+0x2d8>
   181ac:	00048513          	mv	a0,s1
   181b0:	00098593          	mv	a1,s3
   181b4:	a99ff0ef          	jal	17c4c <memmove>
   181b8:	000b0a13          	mv	s4,s6
   181bc:	008bb783          	ld	a5,8(s7)
   181c0:	000b8a93          	mv	s5,s7
   181c4:	cf5ff06f          	j	17eb8 <_realloc_r+0x158>
   181c8:	40870733          	sub	a4,a4,s0
   181cc:	008a8ab3          	add	s5,s5,s0
   181d0:	00176713          	ori	a4,a4,1
   181d4:	015b3823          	sd	s5,16(s6)
   181d8:	00eab423          	sd	a4,8(s5)
   181dc:	ff89b783          	ld	a5,-8(s3)
   181e0:	00090513          	mv	a0,s2
   181e4:	0017f793          	andi	a5,a5,1
   181e8:	00f46433          	or	s0,s0,a5
   181ec:	fe89bc23          	sd	s0,-8(s3)
   181f0:	c5dfc0ef          	jal	14e4c <__malloc_unlock>
   181f4:	00098513          	mv	a0,s3
   181f8:	cf5ff06f          	j	17eec <_realloc_r+0x18c>
   181fc:	00098593          	mv	a1,s3
   18200:	a4dff0ef          	jal	17c4c <memmove>
   18204:	e4dff06f          	j	18050 <_realloc_r+0x2f0>
   18208:	0109b703          	ld	a4,16(s3)
   1820c:	00e53823          	sd	a4,16(a0)
   18210:	0189b703          	ld	a4,24(s3)
   18214:	00e53c23          	sd	a4,24(a0)
   18218:	04f60463          	beq	a2,a5,18260 <_realloc_r+0x500>
   1821c:	02050793          	addi	a5,a0,32
   18220:	02098713          	addi	a4,s3,32
   18224:	e15ff06f          	j	18038 <_realloc_r+0x2d8>
   18228:	ff853703          	ld	a4,-8(a0)
   1822c:	00098493          	mv	s1,s3
   18230:	ffc77713          	andi	a4,a4,-4
   18234:	00ea0a33          	add	s4,s4,a4
   18238:	c81ff06f          	j	17eb8 <_realloc_r+0x158>
   1823c:	0109b783          	ld	a5,16(s3)
   18240:	02fbb023          	sd	a5,32(s7)
   18244:	0189b783          	ld	a5,24(s3)
   18248:	02fbb423          	sd	a5,40(s7)
   1824c:	04800793          	li	a5,72
   18250:	04f60663          	beq	a2,a5,1829c <_realloc_r+0x53c>
   18254:	030b8793          	addi	a5,s7,48
   18258:	02098993          	addi	s3,s3,32
   1825c:	c29ff06f          	j	17e84 <_realloc_r+0x124>
   18260:	0209b683          	ld	a3,32(s3)
   18264:	03050793          	addi	a5,a0,48
   18268:	03098713          	addi	a4,s3,48
   1826c:	02d53023          	sd	a3,32(a0)
   18270:	0289b683          	ld	a3,40(s3)
   18274:	02d53423          	sd	a3,40(a0)
   18278:	dc1ff06f          	j	18038 <_realloc_r+0x2d8>
   1827c:	0109b783          	ld	a5,16(s3)
   18280:	02fbb023          	sd	a5,32(s7)
   18284:	0189b783          	ld	a5,24(s3)
   18288:	02fbb423          	sd	a5,40(s7)
   1828c:	02b60663          	beq	a2,a1,182b8 <_realloc_r+0x558>
   18290:	030b8713          	addi	a4,s7,48
   18294:	02098993          	addi	s3,s3,32
   18298:	cf1ff06f          	j	17f88 <_realloc_r+0x228>
   1829c:	0209b703          	ld	a4,32(s3)
   182a0:	040b8793          	addi	a5,s7,64
   182a4:	03098993          	addi	s3,s3,48
   182a8:	02ebb823          	sd	a4,48(s7)
   182ac:	ff89b703          	ld	a4,-8(s3)
   182b0:	02ebbc23          	sd	a4,56(s7)
   182b4:	bd1ff06f          	j	17e84 <_realloc_r+0x124>
   182b8:	0209b783          	ld	a5,32(s3)
   182bc:	040b8713          	addi	a4,s7,64
   182c0:	03098993          	addi	s3,s3,48
   182c4:	02fbb823          	sd	a5,48(s7)
   182c8:	ff89b783          	ld	a5,-8(s3)
   182cc:	02fbbc23          	sd	a5,56(s7)
   182d0:	cb9ff06f          	j	17f88 <_realloc_r+0x228>
   182d4:	00048513          	mv	a0,s1
   182d8:	00098593          	mv	a1,s3
   182dc:	971ff0ef          	jal	17c4c <memmove>
   182e0:	e75ff06f          	j	18154 <_realloc_r+0x3f4>
   182e4:	0109b783          	ld	a5,16(s3)
   182e8:	02fbb023          	sd	a5,32(s7)
   182ec:	0189b783          	ld	a5,24(s3)
   182f0:	02fbb423          	sd	a5,40(s7)
   182f4:	02d60063          	beq	a2,a3,18314 <_realloc_r+0x5b4>
   182f8:	030b8793          	addi	a5,s7,48
   182fc:	02098993          	addi	s3,s3,32
   18300:	e3dff06f          	j	1813c <_realloc_r+0x3dc>
   18304:	00090513          	mv	a0,s2
   18308:	b45fc0ef          	jal	14e4c <__malloc_unlock>
   1830c:	00000513          	li	a0,0
   18310:	bddff06f          	j	17eec <_realloc_r+0x18c>
   18314:	0209b703          	ld	a4,32(s3)
   18318:	040b8793          	addi	a5,s7,64
   1831c:	03098993          	addi	s3,s3,48
   18320:	02ebb823          	sd	a4,48(s7)
   18324:	ff89b703          	ld	a4,-8(s3)
   18328:	02ebbc23          	sd	a4,56(s7)
   1832c:	e11ff06f          	j	1813c <_realloc_r+0x3dc>

0000000000018330 <__swbuf_r>:
   18330:	fe010113          	addi	sp,sp,-32
   18334:	00813823          	sd	s0,16(sp)
   18338:	00913423          	sd	s1,8(sp)
   1833c:	01213023          	sd	s2,0(sp)
   18340:	00113c23          	sd	ra,24(sp)
   18344:	00050913          	mv	s2,a0
   18348:	00058493          	mv	s1,a1
   1834c:	00060413          	mv	s0,a2
   18350:	00050663          	beqz	a0,1835c <__swbuf_r+0x2c>
   18354:	05052783          	lw	a5,80(a0)
   18358:	12078a63          	beqz	a5,1848c <__swbuf_r+0x15c>
   1835c:	01041683          	lh	a3,16(s0)
   18360:	02842603          	lw	a2,40(s0)
   18364:	03069713          	slli	a4,a3,0x30
   18368:	03075713          	srli	a4,a4,0x30
   1836c:	00877793          	andi	a5,a4,8
   18370:	00c42623          	sw	a2,12(s0)
   18374:	0e078a63          	beqz	a5,18468 <__swbuf_r+0x138>
   18378:	01843783          	ld	a5,24(s0)
   1837c:	0e078663          	beqz	a5,18468 <__swbuf_r+0x138>
   18380:	03271613          	slli	a2,a4,0x32
   18384:	0ff4f493          	andi	s1,s1,255
   18388:	06065463          	bgez	a2,183f0 <__swbuf_r+0xc0>
   1838c:	00043703          	ld	a4,0(s0)
   18390:	02042683          	lw	a3,32(s0)
   18394:	40f707bb          	subw	a5,a4,a5
   18398:	08d7d463          	ble	a3,a5,18420 <__swbuf_r+0xf0>
   1839c:	0017879b          	addiw	a5,a5,1
   183a0:	00c42683          	lw	a3,12(s0)
   183a4:	00170613          	addi	a2,a4,1
   183a8:	00c43023          	sd	a2,0(s0)
   183ac:	fff6869b          	addiw	a3,a3,-1
   183b0:	00d42623          	sw	a3,12(s0)
   183b4:	00970023          	sb	s1,0(a4)
   183b8:	02042703          	lw	a4,32(s0)
   183bc:	08f70063          	beq	a4,a5,1843c <__swbuf_r+0x10c>
   183c0:	01045783          	lhu	a5,16(s0)
   183c4:	00048513          	mv	a0,s1
   183c8:	03f79713          	slli	a4,a5,0x3f
   183cc:	00075663          	bgez	a4,183d8 <__swbuf_r+0xa8>
   183d0:	00a00793          	li	a5,10
   183d4:	06f48463          	beq	s1,a5,1843c <__swbuf_r+0x10c>
   183d8:	01813083          	ld	ra,24(sp)
   183dc:	01013403          	ld	s0,16(sp)
   183e0:	00813483          	ld	s1,8(sp)
   183e4:	00013903          	ld	s2,0(sp)
   183e8:	02010113          	addi	sp,sp,32
   183ec:	00008067          	ret
   183f0:	0a442583          	lw	a1,164(s0)
   183f4:	ffffe737          	lui	a4,0xffffe
   183f8:	fff7071b          	addiw	a4,a4,-1
   183fc:	00e5f733          	and	a4,a1,a4
   18400:	00002637          	lui	a2,0x2
   18404:	00c6e6b3          	or	a3,a3,a2
   18408:	0ae42223          	sw	a4,164(s0)
   1840c:	00043703          	ld	a4,0(s0)
   18410:	00d41823          	sh	a3,16(s0)
   18414:	02042683          	lw	a3,32(s0)
   18418:	40f707bb          	subw	a5,a4,a5
   1841c:	f8d7c0e3          	blt	a5,a3,1839c <__swbuf_r+0x6c>
   18420:	00090513          	mv	a0,s2
   18424:	00040593          	mv	a1,s0
   18428:	910fb0ef          	jal	13538 <_fflush_r>
   1842c:	06051463          	bnez	a0,18494 <__swbuf_r+0x164>
   18430:	00043703          	ld	a4,0(s0)
   18434:	00100793          	li	a5,1
   18438:	f69ff06f          	j	183a0 <__swbuf_r+0x70>
   1843c:	00090513          	mv	a0,s2
   18440:	00040593          	mv	a1,s0
   18444:	8f4fb0ef          	jal	13538 <_fflush_r>
   18448:	04051663          	bnez	a0,18494 <__swbuf_r+0x164>
   1844c:	01813083          	ld	ra,24(sp)
   18450:	00048513          	mv	a0,s1
   18454:	01013403          	ld	s0,16(sp)
   18458:	00813483          	ld	s1,8(sp)
   1845c:	00013903          	ld	s2,0(sp)
   18460:	02010113          	addi	sp,sp,32
   18464:	00008067          	ret
   18468:	00090513          	mv	a0,s2
   1846c:	00040593          	mv	a1,s0
   18470:	9d9f90ef          	jal	11e48 <__swsetup_r>
   18474:	02051463          	bnez	a0,1849c <__swbuf_r+0x16c>
   18478:	01041683          	lh	a3,16(s0)
   1847c:	01843783          	ld	a5,24(s0)
   18480:	03069713          	slli	a4,a3,0x30
   18484:	03075713          	srli	a4,a4,0x30
   18488:	ef9ff06f          	j	18380 <__swbuf_r+0x50>
   1848c:	e9cfb0ef          	jal	13b28 <__sinit>
   18490:	ecdff06f          	j	1835c <__swbuf_r+0x2c>
   18494:	fff00513          	li	a0,-1
   18498:	f41ff06f          	j	183d8 <__swbuf_r+0xa8>
   1849c:	01045783          	lhu	a5,16(s0)
   184a0:	fff00513          	li	a0,-1
   184a4:	0407e793          	ori	a5,a5,64
   184a8:	00f41823          	sh	a5,16(s0)
   184ac:	00900793          	li	a5,9
   184b0:	00f92023          	sw	a5,0(s2)
   184b4:	f25ff06f          	j	183d8 <__swbuf_r+0xa8>

00000000000184b8 <__swbuf>:
   184b8:	00050793          	mv	a5,a0
   184bc:	8101b503          	ld	a0,-2032(gp) # 1d070 <_impure_ptr>
   184c0:	00058613          	mv	a2,a1
   184c4:	00078593          	mv	a1,a5
   184c8:	e69ff06f          	j	18330 <__swbuf_r>

00000000000184cc <_wcrtomb_r>:
   184cc:	fc010113          	addi	sp,sp,-64
   184d0:	02813823          	sd	s0,48(sp)
   184d4:	02913423          	sd	s1,40(sp)
   184d8:	03213023          	sd	s2,32(sp)
   184dc:	02113c23          	sd	ra,56(sp)
   184e0:	00050413          	mv	s0,a0
   184e4:	00068493          	mv	s1,a3
   184e8:	8301b903          	ld	s2,-2000(gp) # 1d090 <__wctomb>
   184ec:	06058063          	beqz	a1,1854c <_wcrtomb_r+0x80>
   184f0:	00b13423          	sd	a1,8(sp)
   184f4:	00c13023          	sd	a2,0(sp)
   184f8:	c79fb0ef          	jal	14170 <__locale_charset>
   184fc:	00813583          	ld	a1,8(sp)
   18500:	00013603          	ld	a2,0(sp)
   18504:	00050693          	mv	a3,a0
   18508:	00048713          	mv	a4,s1
   1850c:	00040513          	mv	a0,s0
   18510:	000900e7          	jalr	s2
   18514:	00050793          	mv	a5,a0
   18518:	fff00713          	li	a4,-1
   1851c:	00078513          	mv	a0,a5
   18520:	00e79a63          	bne	a5,a4,18534 <_wcrtomb_r+0x68>
   18524:	08a00793          	li	a5,138
   18528:	0004a023          	sw	zero,0(s1)
   1852c:	fff00513          	li	a0,-1
   18530:	00f42023          	sw	a5,0(s0)
   18534:	03813083          	ld	ra,56(sp)
   18538:	03013403          	ld	s0,48(sp)
   1853c:	02813483          	ld	s1,40(sp)
   18540:	02013903          	ld	s2,32(sp)
   18544:	04010113          	addi	sp,sp,64
   18548:	00008067          	ret
   1854c:	c25fb0ef          	jal	14170 <__locale_charset>
   18550:	00050693          	mv	a3,a0
   18554:	01010593          	addi	a1,sp,16
   18558:	00040513          	mv	a0,s0
   1855c:	00000613          	li	a2,0
   18560:	00048713          	mv	a4,s1
   18564:	000900e7          	jalr	s2
   18568:	00050793          	mv	a5,a0
   1856c:	fadff06f          	j	18518 <_wcrtomb_r+0x4c>

0000000000018570 <wcrtomb>:
   18570:	fb010113          	addi	sp,sp,-80
   18574:	04813023          	sd	s0,64(sp)
   18578:	02913c23          	sd	s1,56(sp)
   1857c:	04113423          	sd	ra,72(sp)
   18580:	03213823          	sd	s2,48(sp)
   18584:	03313423          	sd	s3,40(sp)
   18588:	03413023          	sd	s4,32(sp)
   1858c:	01513c23          	sd	s5,24(sp)
   18590:	00050413          	mv	s0,a0
   18594:	00060493          	mv	s1,a2
   18598:	06050a63          	beqz	a0,1860c <wcrtomb+0x9c>
   1859c:	8101ba83          	ld	s5,-2032(gp) # 1d070 <_impure_ptr>
   185a0:	8301ba03          	ld	s4,-2000(gp) # 1d090 <__wctomb>
   185a4:	00058993          	mv	s3,a1
   185a8:	bc9fb0ef          	jal	14170 <__locale_charset>
   185ac:	00050693          	mv	a3,a0
   185b0:	00040593          	mv	a1,s0
   185b4:	000a8513          	mv	a0,s5
   185b8:	00098613          	mv	a2,s3
   185bc:	00048713          	mv	a4,s1
   185c0:	000a00e7          	jalr	s4
   185c4:	00050793          	mv	a5,a0
   185c8:	fff00713          	li	a4,-1
   185cc:	00078513          	mv	a0,a5
   185d0:	00e79c63          	bne	a5,a4,185e8 <wcrtomb+0x78>
   185d4:	8101b783          	ld	a5,-2032(gp) # 1d070 <_impure_ptr>
   185d8:	08a00713          	li	a4,138
   185dc:	0004a023          	sw	zero,0(s1)
   185e0:	fff00513          	li	a0,-1
   185e4:	00e7a023          	sw	a4,0(a5)
   185e8:	04813083          	ld	ra,72(sp)
   185ec:	04013403          	ld	s0,64(sp)
   185f0:	03813483          	ld	s1,56(sp)
   185f4:	03013903          	ld	s2,48(sp)
   185f8:	02813983          	ld	s3,40(sp)
   185fc:	02013a03          	ld	s4,32(sp)
   18600:	01813a83          	ld	s5,24(sp)
   18604:	05010113          	addi	sp,sp,80
   18608:	00008067          	ret
   1860c:	8101b983          	ld	s3,-2032(gp) # 1d070 <_impure_ptr>
   18610:	8301b403          	ld	s0,-2000(gp) # 1d090 <__wctomb>
   18614:	b5dfb0ef          	jal	14170 <__locale_charset>
   18618:	00050693          	mv	a3,a0
   1861c:	00010593          	mv	a1,sp
   18620:	00098513          	mv	a0,s3
   18624:	00000613          	li	a2,0
   18628:	00048713          	mv	a4,s1
   1862c:	000400e7          	jalr	s0
   18630:	00050793          	mv	a5,a0
   18634:	f95ff06f          	j	185c8 <wcrtomb+0x58>

0000000000018638 <__ascii_wctomb>:
   18638:	00058c63          	beqz	a1,18650 <__ascii_wctomb+0x18>
   1863c:	0ff00793          	li	a5,255
   18640:	00c7ec63          	bltu	a5,a2,18658 <__ascii_wctomb+0x20>
   18644:	00c58023          	sb	a2,0(a1)
   18648:	00100513          	li	a0,1
   1864c:	00008067          	ret
   18650:	00000513          	li	a0,0
   18654:	00008067          	ret
   18658:	08a00793          	li	a5,138
   1865c:	00f52023          	sw	a5,0(a0)
   18660:	fff00513          	li	a0,-1
   18664:	00008067          	ret

0000000000018668 <_wctomb_r>:
   18668:	fd010113          	addi	sp,sp,-48
   1866c:	02813023          	sd	s0,32(sp)
   18670:	8301b403          	ld	s0,-2000(gp) # 1d090 <__wctomb>
   18674:	02113423          	sd	ra,40(sp)
   18678:	00913c23          	sd	s1,24(sp)
   1867c:	01213823          	sd	s2,16(sp)
   18680:	00068493          	mv	s1,a3
   18684:	00050913          	mv	s2,a0
   18688:	00b13423          	sd	a1,8(sp)
   1868c:	00c13023          	sd	a2,0(sp)
   18690:	ae1fb0ef          	jal	14170 <__locale_charset>
   18694:	00050693          	mv	a3,a0
   18698:	00813583          	ld	a1,8(sp)
   1869c:	00090513          	mv	a0,s2
   186a0:	00013603          	ld	a2,0(sp)
   186a4:	00048713          	mv	a4,s1
   186a8:	00040293          	mv	t0,s0
   186ac:	02813083          	ld	ra,40(sp)
   186b0:	02013403          	ld	s0,32(sp)
   186b4:	01813483          	ld	s1,24(sp)
   186b8:	01013903          	ld	s2,16(sp)
   186bc:	03010113          	addi	sp,sp,48
   186c0:	00028067          	jr	t0

00000000000186c4 <__syscall_error>:
   186c4:	ff010113          	addi	sp,sp,-16
   186c8:	00113423          	sd	ra,8(sp)
   186cc:	00813023          	sd	s0,0(sp)
   186d0:	00050413          	mv	s0,a0
   186d4:	735010ef          	jal	1a608 <__errno>
   186d8:	00813083          	ld	ra,8(sp)
   186dc:	408007bb          	negw	a5,s0
   186e0:	00f52023          	sw	a5,0(a0)
   186e4:	00013403          	ld	s0,0(sp)
   186e8:	fff00513          	li	a0,-1
   186ec:	01010113          	addi	sp,sp,16
   186f0:	00008067          	ret

00000000000186f4 <open>:
   186f4:	00000693          	li	a3,0
   186f8:	40000893          	li	a7,1024
   186fc:	00000073          	scall
   18700:	fc0542e3          	bltz	a0,186c4 <__syscall_error>
   18704:	0005051b          	sext.w	a0,a0
   18708:	00008067          	ret

000000000001870c <openat>:
   1870c:	03800893          	li	a7,56
   18710:	00000073          	scall
   18714:	fa0548e3          	bltz	a0,186c4 <__syscall_error>
   18718:	0005051b          	sext.w	a0,a0
   1871c:	00008067          	ret

0000000000018720 <lseek>:
   18720:	00000693          	li	a3,0
   18724:	03e00893          	li	a7,62
   18728:	00000073          	scall
   1872c:	f8054ce3          	bltz	a0,186c4 <__syscall_error>
   18730:	00008067          	ret

0000000000018734 <read>:
   18734:	00000693          	li	a3,0
   18738:	03f00893          	li	a7,63
   1873c:	00000073          	scall
   18740:	f80542e3          	bltz	a0,186c4 <__syscall_error>
   18744:	0005051b          	sext.w	a0,a0
   18748:	00008067          	ret

000000000001874c <write>:
   1874c:	00000693          	li	a3,0
   18750:	04000893          	li	a7,64
   18754:	00000073          	scall
   18758:	f60546e3          	bltz	a0,186c4 <__syscall_error>
   1875c:	0005051b          	sext.w	a0,a0
   18760:	00008067          	ret

0000000000018764 <fstat>:
   18764:	00000613          	li	a2,0
   18768:	00000693          	li	a3,0
   1876c:	05000893          	li	a7,80
   18770:	00000073          	scall
   18774:	f40548e3          	bltz	a0,186c4 <__syscall_error>
   18778:	0005051b          	sext.w	a0,a0
   1877c:	00008067          	ret

0000000000018780 <stat>:
   18780:	00000613          	li	a2,0
   18784:	00000693          	li	a3,0
   18788:	40e00893          	li	a7,1038
   1878c:	00000073          	scall
   18790:	f2054ae3          	bltz	a0,186c4 <__syscall_error>
   18794:	0005051b          	sext.w	a0,a0
   18798:	00008067          	ret

000000000001879c <lstat>:
   1879c:	00000613          	li	a2,0
   187a0:	00000693          	li	a3,0
   187a4:	40f00893          	li	a7,1039
   187a8:	00000073          	scall
   187ac:	f0054ce3          	bltz	a0,186c4 <__syscall_error>
   187b0:	0005051b          	sext.w	a0,a0
   187b4:	00008067          	ret

00000000000187b8 <fstatat>:
   187b8:	04f00893          	li	a7,79
   187bc:	00000073          	scall
   187c0:	f00542e3          	bltz	a0,186c4 <__syscall_error>
   187c4:	0005051b          	sext.w	a0,a0
   187c8:	00008067          	ret

00000000000187cc <access>:
   187cc:	00000613          	li	a2,0
   187d0:	00000693          	li	a3,0
   187d4:	40900893          	li	a7,1033
   187d8:	00000073          	scall
   187dc:	ee0544e3          	bltz	a0,186c4 <__syscall_error>
   187e0:	0005051b          	sext.w	a0,a0
   187e4:	00008067          	ret

00000000000187e8 <faccessat>:
   187e8:	03000893          	li	a7,48
   187ec:	00000073          	scall
   187f0:	ec054ae3          	bltz	a0,186c4 <__syscall_error>
   187f4:	0005051b          	sext.w	a0,a0
   187f8:	00008067          	ret

00000000000187fc <close>:
   187fc:	00000593          	li	a1,0
   18800:	00000613          	li	a2,0
   18804:	00000693          	li	a3,0
   18808:	03900893          	li	a7,57
   1880c:	00000073          	scall
   18810:	ea054ae3          	bltz	a0,186c4 <__syscall_error>
   18814:	0005051b          	sext.w	a0,a0
   18818:	00008067          	ret

000000000001881c <link>:
   1881c:	00000613          	li	a2,0
   18820:	00000693          	li	a3,0
   18824:	40100893          	li	a7,1025
   18828:	00000073          	scall
   1882c:	e8054ce3          	bltz	a0,186c4 <__syscall_error>
   18830:	0005051b          	sext.w	a0,a0
   18834:	00008067          	ret

0000000000018838 <unlink>:
   18838:	00000593          	li	a1,0
   1883c:	00000613          	li	a2,0
   18840:	00000693          	li	a3,0
   18844:	40200893          	li	a7,1026
   18848:	00000073          	scall
   1884c:	e6054ce3          	bltz	a0,186c4 <__syscall_error>
   18850:	0005051b          	sext.w	a0,a0
   18854:	00008067          	ret

0000000000018858 <execve>:
   18858:	ff010113          	addi	sp,sp,-16
   1885c:	00113423          	sd	ra,8(sp)
   18860:	5a9010ef          	jal	1a608 <__errno>
   18864:	00813083          	ld	ra,8(sp)
   18868:	00c00793          	li	a5,12
   1886c:	00f52023          	sw	a5,0(a0)
   18870:	01010113          	addi	sp,sp,16
   18874:	fff00513          	li	a0,-1
   18878:	00008067          	ret

000000000001887c <fork>:
   1887c:	ff010113          	addi	sp,sp,-16
   18880:	00113423          	sd	ra,8(sp)
   18884:	585010ef          	jal	1a608 <__errno>
   18888:	00813083          	ld	ra,8(sp)
   1888c:	00b00793          	li	a5,11
   18890:	00f52023          	sw	a5,0(a0)
   18894:	01010113          	addi	sp,sp,16
   18898:	fff00513          	li	a0,-1
   1889c:	00008067          	ret

00000000000188a0 <getpid>:
   188a0:	00100513          	li	a0,1
   188a4:	00008067          	ret

00000000000188a8 <kill>:
   188a8:	ff010113          	addi	sp,sp,-16
   188ac:	00113423          	sd	ra,8(sp)
   188b0:	559010ef          	jal	1a608 <__errno>
   188b4:	00813083          	ld	ra,8(sp)
   188b8:	01600793          	li	a5,22
   188bc:	00f52023          	sw	a5,0(a0)
   188c0:	01010113          	addi	sp,sp,16
   188c4:	fff00513          	li	a0,-1
   188c8:	00008067          	ret

00000000000188cc <wait>:
   188cc:	ff010113          	addi	sp,sp,-16
   188d0:	00113423          	sd	ra,8(sp)
   188d4:	535010ef          	jal	1a608 <__errno>
   188d8:	00813083          	ld	ra,8(sp)
   188dc:	00a00793          	li	a5,10
   188e0:	00f52023          	sw	a5,0(a0)
   188e4:	01010113          	addi	sp,sp,16
   188e8:	fff00513          	li	a0,-1
   188ec:	00008067          	ret

00000000000188f0 <isatty>:
   188f0:	f8010113          	addi	sp,sp,-128
   188f4:	00010593          	mv	a1,sp
   188f8:	00000613          	li	a2,0
   188fc:	00000693          	li	a3,0
   18900:	05000893          	li	a7,80
   18904:	00000073          	scall
   18908:	da054ee3          	bltz	a0,186c4 <__syscall_error>
   1890c:	fff00793          	li	a5,-1
   18910:	0005051b          	sext.w	a0,a0
   18914:	00f50863          	beq	a0,a5,18924 <isatty+0x34>
   18918:	01012503          	lw	a0,16(sp)
   1891c:	40d5551b          	sraiw	a0,a0,0xd
   18920:	00157513          	andi	a0,a0,1
   18924:	08010113          	addi	sp,sp,128
   18928:	00008067          	ret

000000000001892c <times>:
   1892c:	94018293          	addi	t0,gp,-1728 # 1d1a0 <t0.2183>
   18930:	0002b703          	ld	a4,0(t0)
   18934:	ff010113          	addi	sp,sp,-16
   18938:	00050813          	mv	a6,a0
   1893c:	02071063          	bnez	a4,1895c <times+0x30>
   18940:	94018513          	addi	a0,gp,-1728 # 1d1a0 <t0.2183>
   18944:	00000593          	li	a1,0
   18948:	00000613          	li	a2,0
   1894c:	00000693          	li	a3,0
   18950:	0a900893          	li	a7,169
   18954:	00000073          	scall
   18958:	d60546e3          	bltz	a0,186c4 <__syscall_error>
   1895c:	00010513          	mv	a0,sp
   18960:	00000593          	li	a1,0
   18964:	00000613          	li	a2,0
   18968:	00000693          	li	a3,0
   1896c:	0a900893          	li	a7,169
   18970:	00000073          	scall
   18974:	d40548e3          	bltz	a0,186c4 <__syscall_error>
   18978:	0002b703          	ld	a4,0(t0)
   1897c:	00013783          	ld	a5,0(sp)
   18980:	fff00513          	li	a0,-1
   18984:	00083823          	sd	zero,16(a6)
   18988:	40e786b3          	sub	a3,a5,a4
   1898c:	000f47b7          	lui	a5,0xf4
   18990:	24078793          	addi	a5,a5,576 # f4240 <_gp+0xd69e0>
   18994:	02f68733          	mul	a4,a3,a5
   18998:	0082b683          	ld	a3,8(t0)
   1899c:	00813783          	ld	a5,8(sp)
   189a0:	00083c23          	sd	zero,24(a6)
   189a4:	00083423          	sd	zero,8(a6)
   189a8:	40d787b3          	sub	a5,a5,a3
   189ac:	01010113          	addi	sp,sp,16
   189b0:	00f707b3          	add	a5,a4,a5
   189b4:	00f83023          	sd	a5,0(a6)
   189b8:	00008067          	ret

00000000000189bc <gettimeofday>:
   189bc:	00000593          	li	a1,0
   189c0:	00000613          	li	a2,0
   189c4:	00000693          	li	a3,0
   189c8:	0a900893          	li	a7,169
   189cc:	00000073          	scall
   189d0:	ce054ae3          	bltz	a0,186c4 <__syscall_error>
   189d4:	0005051b          	sext.w	a0,a0
   189d8:	00008067          	ret

00000000000189dc <ftime>:
   189dc:	00051423          	sh	zero,8(a0)
   189e0:	00053023          	sd	zero,0(a0)
   189e4:	00000513          	li	a0,0
   189e8:	00008067          	ret

00000000000189ec <utime>:
   189ec:	fff00513          	li	a0,-1
   189f0:	00008067          	ret

00000000000189f4 <chown>:
   189f4:	fff00513          	li	a0,-1
   189f8:	00008067          	ret

00000000000189fc <chmod>:
   189fc:	fff00513          	li	a0,-1
   18a00:	00008067          	ret

0000000000018a04 <chdir>:
   18a04:	fff00513          	li	a0,-1
   18a08:	00008067          	ret

0000000000018a0c <getcwd>:
   18a0c:	00000513          	li	a0,0
   18a10:	00008067          	ret

0000000000018a14 <sysconf>:
   18a14:	00200793          	li	a5,2
   18a18:	00f51863          	bne	a0,a5,18a28 <sysconf+0x14>
   18a1c:	000f4537          	lui	a0,0xf4
   18a20:	24050513          	addi	a0,a0,576 # f4240 <_gp+0xd69e0>
   18a24:	00008067          	ret
   18a28:	fff00513          	li	a0,-1
   18a2c:	00008067          	ret

0000000000018a30 <sbrk>:
   18a30:	8d81b703          	ld	a4,-1832(gp) # 1d138 <heap_end.2221>
   18a34:	00050793          	mv	a5,a0
   18a38:	00071663          	bnez	a4,18a44 <sbrk+0x14>
   18a3c:	95018713          	addi	a4,gp,-1712 # 1d1b0 <_end>
   18a40:	8ce1bc23          	sd	a4,-1832(gp) # 1d138 <heap_end.2221>
   18a44:	00f70533          	add	a0,a4,a5
   18a48:	00000593          	li	a1,0
   18a4c:	00000613          	li	a2,0
   18a50:	00000693          	li	a3,0
   18a54:	0d600893          	li	a7,214
   18a58:	00000073          	scall
   18a5c:	c60544e3          	bltz	a0,186c4 <__syscall_error>
   18a60:	8d81b683          	ld	a3,-1832(gp) # 1d138 <heap_end.2221>
   18a64:	fff00713          	li	a4,-1
   18a68:	00d787b3          	add	a5,a5,a3
   18a6c:	00f51663          	bne	a0,a5,18a78 <sbrk+0x48>
   18a70:	8ca1bc23          	sd	a0,-1832(gp) # 1d138 <heap_end.2221>
   18a74:	00068713          	mv	a4,a3
   18a78:	00070513          	mv	a0,a4
   18a7c:	00008067          	ret

0000000000018a80 <_exit>:
   18a80:	00000593          	li	a1,0
   18a84:	00000613          	li	a2,0
   18a88:	00000693          	li	a3,0
   18a8c:	05d00893          	li	a7,93
   18a90:	00000073          	scall
   18a94:	c20548e3          	bltz	a0,186c4 <__syscall_error>
   18a98:	0000006f          	j	18a98 <_exit+0x18>

0000000000018a9c <_fpadd_parts>:
   18a9c:	00052783          	lw	a5,0(a0)
   18aa0:	00100693          	li	a3,1
   18aa4:	0cf6f463          	bleu	a5,a3,18b6c <_fpadd_parts+0xd0>
   18aa8:	0005a703          	lw	a4,0(a1)
   18aac:	0ae6fe63          	bleu	a4,a3,18b68 <_fpadd_parts+0xcc>
   18ab0:	00400693          	li	a3,4
   18ab4:	16d78a63          	beq	a5,a3,18c28 <_fpadd_parts+0x18c>
   18ab8:	0ad70863          	beq	a4,a3,18b68 <_fpadd_parts+0xcc>
   18abc:	00200693          	li	a3,2
   18ac0:	12d70663          	beq	a4,a3,18bec <_fpadd_parts+0x150>
   18ac4:	0ad78263          	beq	a5,a3,18b68 <_fpadd_parts+0xcc>
   18ac8:	00852803          	lw	a6,8(a0)
   18acc:	0085a783          	lw	a5,8(a1)
   18ad0:	03f00313          	li	t1,63
   18ad4:	01053283          	ld	t0,16(a0)
   18ad8:	40f808bb          	subw	a7,a6,a5
   18adc:	41f8d69b          	sraiw	a3,a7,0x1f
   18ae0:	0116c733          	xor	a4,a3,a7
   18ae4:	40d7073b          	subw	a4,a4,a3
   18ae8:	0105b683          	ld	a3,16(a1)
   18aec:	08e35263          	ble	a4,t1,18b70 <_fpadd_parts+0xd4>
   18af0:	1307c863          	blt	a5,a6,18c20 <_fpadd_parts+0x184>
   18af4:	00078813          	mv	a6,a5
   18af8:	00000293          	li	t0,0
   18afc:	00452703          	lw	a4,4(a0)
   18b00:	0045a783          	lw	a5,4(a1)
   18b04:	0af70063          	beq	a4,a5,18ba4 <_fpadd_parts+0x108>
   18b08:	40d287b3          	sub	a5,t0,a3
   18b0c:	00070463          	beqz	a4,18b14 <_fpadd_parts+0x78>
   18b10:	405687b3          	sub	a5,a3,t0
   18b14:	1207c863          	bltz	a5,18c44 <_fpadd_parts+0x1a8>
   18b18:	00062223          	sw	zero,4(a2) # 2004 <_ftext-0xdffc>
   18b1c:	01062423          	sw	a6,8(a2)
   18b20:	00f63823          	sd	a5,16(a2)
   18b24:	fef00593          	li	a1,-17
   18b28:	fff78713          	addi	a4,a5,-1
   18b2c:	0045d593          	srli	a1,a1,0x4
   18b30:	08e5e263          	bltu	a1,a4,18bb4 <_fpadd_parts+0x118>
   18b34:	00862703          	lw	a4,8(a2)
   18b38:	fff7071b          	addiw	a4,a4,-1
   18b3c:	00179793          	slli	a5,a5,0x1
   18b40:	fff78693          	addi	a3,a5,-1
   18b44:	00070513          	mv	a0,a4
   18b48:	fff7071b          	addiw	a4,a4,-1
   18b4c:	fed5f8e3          	bleu	a3,a1,18b3c <_fpadd_parts+0xa0>
   18b50:	00f63823          	sd	a5,16(a2)
   18b54:	00300793          	li	a5,3
   18b58:	00a62423          	sw	a0,8(a2)
   18b5c:	00f62023          	sw	a5,0(a2)
   18b60:	00060513          	mv	a0,a2
   18b64:	00008067          	ret
   18b68:	00058513          	mv	a0,a1
   18b6c:	00008067          	ret
   18b70:	0f105663          	blez	a7,18c5c <_fpadd_parts+0x1c0>
   18b74:	02071713          	slli	a4,a4,0x20
   18b78:	02075713          	srli	a4,a4,0x20
   18b7c:	00100893          	li	a7,1
   18b80:	00e898b3          	sll	a7,a7,a4
   18b84:	fff88893          	addi	a7,a7,-1
   18b88:	00d8f8b3          	and	a7,a7,a3
   18b8c:	00e6d733          	srl	a4,a3,a4
   18b90:	011036b3          	snez	a3,a7
   18b94:	00e6e6b3          	or	a3,a3,a4
   18b98:	0045a783          	lw	a5,4(a1)
   18b9c:	00452703          	lw	a4,4(a0)
   18ba0:	f6f714e3          	bne	a4,a5,18b08 <_fpadd_parts+0x6c>
   18ba4:	005687b3          	add	a5,a3,t0
   18ba8:	00e62223          	sw	a4,4(a2)
   18bac:	01062423          	sw	a6,8(a2)
   18bb0:	00f63823          	sd	a5,16(a2)
   18bb4:	00300713          	li	a4,3
   18bb8:	00e62023          	sw	a4,0(a2)
   18bbc:	fff00713          	li	a4,-1
   18bc0:	00375713          	srli	a4,a4,0x3
   18bc4:	00060513          	mv	a0,a2
   18bc8:	faf772e3          	bleu	a5,a4,18b6c <_fpadd_parts+0xd0>
   18bcc:	00862703          	lw	a4,8(a2)
   18bd0:	0017f693          	andi	a3,a5,1
   18bd4:	0017d793          	srli	a5,a5,0x1
   18bd8:	00f6e7b3          	or	a5,a3,a5
   18bdc:	0017071b          	addiw	a4,a4,1
   18be0:	00f63823          	sd	a5,16(a2)
   18be4:	00e62423          	sw	a4,8(a2)
   18be8:	00008067          	ret
   18bec:	f8e790e3          	bne	a5,a4,18b6c <_fpadd_parts+0xd0>
   18bf0:	00053783          	ld	a5,0(a0)
   18bf4:	00853803          	ld	a6,8(a0)
   18bf8:	01053683          	ld	a3,16(a0)
   18bfc:	00f63023          	sd	a5,0(a2)
   18c00:	00452783          	lw	a5,4(a0)
   18c04:	0045a703          	lw	a4,4(a1)
   18c08:	00060513          	mv	a0,a2
   18c0c:	01063423          	sd	a6,8(a2)
   18c10:	00f777b3          	and	a5,a4,a5
   18c14:	00d63823          	sd	a3,16(a2)
   18c18:	00f62223          	sw	a5,4(a2)
   18c1c:	00008067          	ret
   18c20:	00000693          	li	a3,0
   18c24:	ed9ff06f          	j	18afc <_fpadd_parts+0x60>
   18c28:	f4f712e3          	bne	a4,a5,18b6c <_fpadd_parts+0xd0>
   18c2c:	00452703          	lw	a4,4(a0)
   18c30:	0045a783          	lw	a5,4(a1)
   18c34:	f2f70ce3          	beq	a4,a5,18b6c <_fpadd_parts+0xd0>
   18c38:	0001b537          	lui	a0,0x1b
   18c3c:	ac050513          	addi	a0,a0,-1344 # 1aac0 <__thenan_df>
   18c40:	00008067          	ret
   18c44:	40f007b3          	neg	a5,a5
   18c48:	00100713          	li	a4,1
   18c4c:	00e62223          	sw	a4,4(a2)
   18c50:	01062423          	sw	a6,8(a2)
   18c54:	00f63823          	sd	a5,16(a2)
   18c58:	ecdff06f          	j	18b24 <_fpadd_parts+0x88>
   18c5c:	ea0880e3          	beqz	a7,18afc <_fpadd_parts+0x60>
   18c60:	02071793          	slli	a5,a4,0x20
   18c64:	0207d793          	srli	a5,a5,0x20
   18c68:	00100893          	li	a7,1
   18c6c:	00f898b3          	sll	a7,a7,a5
   18c70:	fff88893          	addi	a7,a7,-1
   18c74:	0058f8b3          	and	a7,a7,t0
   18c78:	00f2d7b3          	srl	a5,t0,a5
   18c7c:	011032b3          	snez	t0,a7
   18c80:	00e8083b          	addw	a6,a6,a4
   18c84:	00f2e2b3          	or	t0,t0,a5
   18c88:	e75ff06f          	j	18afc <_fpadd_parts+0x60>

0000000000018c8c <__pack_d>:
   18c8c:	00052703          	lw	a4,0(a0)
   18c90:	00100693          	li	a3,1
   18c94:	01053603          	ld	a2,16(a0)
   18c98:	00452783          	lw	a5,4(a0)
   18c9c:	0ae6f063          	bleu	a4,a3,18d3c <__pack_d+0xb0>
   18ca0:	00400693          	li	a3,4
   18ca4:	08d70663          	beq	a4,a3,18d30 <__pack_d+0xa4>
   18ca8:	00200693          	li	a3,2
   18cac:	04d70663          	beq	a4,a3,18cf8 <__pack_d+0x6c>
   18cb0:	04060463          	beqz	a2,18cf8 <__pack_d+0x6c>
   18cb4:	00852703          	lw	a4,8(a0)
   18cb8:	c0200693          	li	a3,-1022
   18cbc:	0ad74a63          	blt	a4,a3,18d70 <__pack_d+0xe4>
   18cc0:	3ff00693          	li	a3,1023
   18cc4:	06e6c663          	blt	a3,a4,18d30 <__pack_d+0xa4>
   18cc8:	0ff67593          	andi	a1,a2,255
   18ccc:	08000693          	li	a3,128
   18cd0:	08d58863          	beq	a1,a3,18d60 <__pack_d+0xd4>
   18cd4:	07f60613          	addi	a2,a2,127
   18cd8:	fff00693          	li	a3,-1
   18cdc:	0036d693          	srli	a3,a3,0x3
   18ce0:	04c6e263          	bltu	a3,a2,18d24 <__pack_d+0x98>
   18ce4:	3ff7071b          	addiw	a4,a4,1023
   18ce8:	00461613          	slli	a2,a2,0x4
   18cec:	00c65613          	srli	a2,a2,0xc
   18cf0:	7ff77713          	andi	a4,a4,2047
   18cf4:	00c0006f          	j	18d00 <__pack_d+0x74>
   18cf8:	00000713          	li	a4,0
   18cfc:	00000613          	li	a2,0
   18d00:	fff00693          	li	a3,-1
   18d04:	00c6d693          	srli	a3,a3,0xc
   18d08:	00d67633          	and	a2,a2,a3
   18d0c:	03471713          	slli	a4,a4,0x34
   18d10:	03f79693          	slli	a3,a5,0x3f
   18d14:	00e667b3          	or	a5,a2,a4
   18d18:	00d7e7b3          	or	a5,a5,a3
   18d1c:	f2078553          	fmv.d.x	fa0,a5
   18d20:	00008067          	ret
   18d24:	00165613          	srli	a2,a2,0x1
   18d28:	4007071b          	addiw	a4,a4,1024
   18d2c:	fbdff06f          	j	18ce8 <__pack_d+0x5c>
   18d30:	7ff00713          	li	a4,2047
   18d34:	00000613          	li	a2,0
   18d38:	fc9ff06f          	j	18d00 <__pack_d+0x74>
   18d3c:	fff00713          	li	a4,-1
   18d40:	00d75713          	srli	a4,a4,0xd
   18d44:	00865613          	srli	a2,a2,0x8
   18d48:	00e67633          	and	a2,a2,a4
   18d4c:	00100713          	li	a4,1
   18d50:	03371713          	slli	a4,a4,0x33
   18d54:	00e66633          	or	a2,a2,a4
   18d58:	7ff00713          	li	a4,2047
   18d5c:	fa5ff06f          	j	18d00 <__pack_d+0x74>
   18d60:	03761693          	slli	a3,a2,0x37
   18d64:	f606dae3          	bgez	a3,18cd8 <__pack_d+0x4c>
   18d68:	08060613          	addi	a2,a2,128
   18d6c:	f6dff06f          	j	18cd8 <__pack_d+0x4c>
   18d70:	40e6873b          	subw	a4,a3,a4
   18d74:	03800693          	li	a3,56
   18d78:	f8e6c0e3          	blt	a3,a4,18cf8 <__pack_d+0x6c>
   18d7c:	02071713          	slli	a4,a4,0x20
   18d80:	02075713          	srli	a4,a4,0x20
   18d84:	00100693          	li	a3,1
   18d88:	00e695b3          	sll	a1,a3,a4
   18d8c:	fff58593          	addi	a1,a1,-1
   18d90:	00c5f5b3          	and	a1,a1,a2
   18d94:	00e65633          	srl	a2,a2,a4
   18d98:	00b03733          	snez	a4,a1
   18d9c:	00c76733          	or	a4,a4,a2
   18da0:	0ff77593          	andi	a1,a4,255
   18da4:	08000613          	li	a2,128
   18da8:	02c59463          	bne	a1,a2,18dd0 <__pack_d+0x144>
   18dac:	03771613          	slli	a2,a4,0x37
   18db0:	00065463          	bgez	a2,18db8 <__pack_d+0x12c>
   18db4:	08070713          	addi	a4,a4,128 # ffffffffffffe080 <_gp+0xfffffffffffe0820>
   18db8:	03c69693          	slli	a3,a3,0x3c
   18dbc:	00471613          	slli	a2,a4,0x4
   18dc0:	00d73733          	sltu	a4,a4,a3
   18dc4:	00c65613          	srli	a2,a2,0xc
   18dc8:	00173713          	seqz	a4,a4
   18dcc:	f35ff06f          	j	18d00 <__pack_d+0x74>
   18dd0:	07f70713          	addi	a4,a4,127
   18dd4:	fe5ff06f          	j	18db8 <__pack_d+0x12c>

0000000000018dd8 <__unpack_d>:
   18dd8:	00655703          	lhu	a4,6(a0)
   18ddc:	00754603          	lbu	a2,7(a0)
   18de0:	00053503          	ld	a0,0(a0)
   18de4:	fff00693          	li	a3,-1
   18de8:	0047571b          	srliw	a4,a4,0x4
   18dec:	00c6d793          	srli	a5,a3,0xc
   18df0:	0076561b          	srliw	a2,a2,0x7
   18df4:	7ff77713          	andi	a4,a4,2047
   18df8:	00f577b3          	and	a5,a0,a5
   18dfc:	00c5a223          	sw	a2,4(a1)
   18e00:	02071a63          	bnez	a4,18e34 <__unpack_d+0x5c>
   18e04:	06078063          	beqz	a5,18e64 <__unpack_d+0x8c>
   18e08:	00300713          	li	a4,3
   18e0c:	00e5a023          	sw	a4,0(a1)
   18e10:	00879793          	slli	a5,a5,0x8
   18e14:	c0200713          	li	a4,-1022
   18e18:	0046d693          	srli	a3,a3,0x4
   18e1c:	00179793          	slli	a5,a5,0x1
   18e20:	fff7071b          	addiw	a4,a4,-1
   18e24:	fef6fce3          	bleu	a5,a3,18e1c <__unpack_d+0x44>
   18e28:	00e5a423          	sw	a4,8(a1)
   18e2c:	00f5b823          	sd	a5,16(a1)
   18e30:	00008067          	ret
   18e34:	7ff00693          	li	a3,2047
   18e38:	02d70c63          	beq	a4,a3,18e70 <__unpack_d+0x98>
   18e3c:	00100693          	li	a3,1
   18e40:	c017071b          	addiw	a4,a4,-1023
   18e44:	00879793          	slli	a5,a5,0x8
   18e48:	03c69693          	slli	a3,a3,0x3c
   18e4c:	00d7e7b3          	or	a5,a5,a3
   18e50:	00e5a423          	sw	a4,8(a1)
   18e54:	00300713          	li	a4,3
   18e58:	00e5a023          	sw	a4,0(a1)
   18e5c:	00f5b823          	sd	a5,16(a1)
   18e60:	00008067          	ret
   18e64:	00200793          	li	a5,2
   18e68:	00f5a023          	sw	a5,0(a1)
   18e6c:	00008067          	ret
   18e70:	02078a63          	beqz	a5,18ea4 <__unpack_d+0xcc>
   18e74:	00100693          	li	a3,1
   18e78:	03369713          	slli	a4,a3,0x33
   18e7c:	00e7f733          	and	a4,a5,a4
   18e80:	02070863          	beqz	a4,18eb0 <__unpack_d+0xd8>
   18e84:	00d5a023          	sw	a3,0(a1)
   18e88:	fff00713          	li	a4,-1
   18e8c:	03371713          	slli	a4,a4,0x33
   18e90:	fff70713          	addi	a4,a4,-1
   18e94:	00e7f7b3          	and	a5,a5,a4
   18e98:	00879793          	slli	a5,a5,0x8
   18e9c:	00f5b823          	sd	a5,16(a1)
   18ea0:	00008067          	ret
   18ea4:	00400793          	li	a5,4
   18ea8:	00f5a023          	sw	a5,0(a1)
   18eac:	00008067          	ret
   18eb0:	0005a023          	sw	zero,0(a1)
   18eb4:	fd5ff06f          	j	18e88 <__unpack_d+0xb0>

0000000000018eb8 <__adddf3>:
   18eb8:	f9010113          	addi	sp,sp,-112
   18ebc:	00810513          	addi	a0,sp,8
   18ec0:	01810593          	addi	a1,sp,24
   18ec4:	06113423          	sd	ra,104(sp)
   18ec8:	00a13427          	fsd	fa0,8(sp)
   18ecc:	00b13827          	fsd	fa1,16(sp)
   18ed0:	f09ff0ef          	jal	18dd8 <__unpack_d>
   18ed4:	01010513          	addi	a0,sp,16
   18ed8:	03010593          	addi	a1,sp,48
   18edc:	efdff0ef          	jal	18dd8 <__unpack_d>
   18ee0:	03010593          	addi	a1,sp,48
   18ee4:	04810613          	addi	a2,sp,72
   18ee8:	01810513          	addi	a0,sp,24
   18eec:	bb1ff0ef          	jal	18a9c <_fpadd_parts>
   18ef0:	d9dff0ef          	jal	18c8c <__pack_d>
   18ef4:	06813083          	ld	ra,104(sp)
   18ef8:	07010113          	addi	sp,sp,112
   18efc:	00008067          	ret

0000000000018f00 <__subdf3>:
   18f00:	f9010113          	addi	sp,sp,-112
   18f04:	00810513          	addi	a0,sp,8
   18f08:	01810593          	addi	a1,sp,24
   18f0c:	06113423          	sd	ra,104(sp)
   18f10:	00a13427          	fsd	fa0,8(sp)
   18f14:	00b13827          	fsd	fa1,16(sp)
   18f18:	ec1ff0ef          	jal	18dd8 <__unpack_d>
   18f1c:	01010513          	addi	a0,sp,16
   18f20:	03010593          	addi	a1,sp,48
   18f24:	eb5ff0ef          	jal	18dd8 <__unpack_d>
   18f28:	03412783          	lw	a5,52(sp)
   18f2c:	03010593          	addi	a1,sp,48
   18f30:	04810613          	addi	a2,sp,72
   18f34:	0017c793          	xori	a5,a5,1
   18f38:	01810513          	addi	a0,sp,24
   18f3c:	02f12a23          	sw	a5,52(sp)
   18f40:	b5dff0ef          	jal	18a9c <_fpadd_parts>
   18f44:	d49ff0ef          	jal	18c8c <__pack_d>
   18f48:	06813083          	ld	ra,104(sp)
   18f4c:	07010113          	addi	sp,sp,112
   18f50:	00008067          	ret

0000000000018f54 <__muldf3>:
   18f54:	f9010113          	addi	sp,sp,-112
   18f58:	00810513          	addi	a0,sp,8
   18f5c:	01810593          	addi	a1,sp,24
   18f60:	06113423          	sd	ra,104(sp)
   18f64:	00a13427          	fsd	fa0,8(sp)
   18f68:	00b13827          	fsd	fa1,16(sp)
   18f6c:	e6dff0ef          	jal	18dd8 <__unpack_d>
   18f70:	01010513          	addi	a0,sp,16
   18f74:	03010593          	addi	a1,sp,48
   18f78:	e61ff0ef          	jal	18dd8 <__unpack_d>
   18f7c:	01812703          	lw	a4,24(sp)
   18f80:	00100793          	li	a5,1
   18f84:	02e7e663          	bltu	a5,a4,18fb0 <__muldf3+0x5c>
   18f88:	01c12783          	lw	a5,28(sp)
   18f8c:	03412703          	lw	a4,52(sp)
   18f90:	01810513          	addi	a0,sp,24
   18f94:	40e787bb          	subw	a5,a5,a4
   18f98:	00f037b3          	snez	a5,a5
   18f9c:	00f12e23          	sw	a5,28(sp)
   18fa0:	cedff0ef          	jal	18c8c <__pack_d>
   18fa4:	06813083          	ld	ra,104(sp)
   18fa8:	07010113          	addi	sp,sp,112
   18fac:	00008067          	ret
   18fb0:	03012683          	lw	a3,48(sp)
   18fb4:	02d7e663          	bltu	a5,a3,18fe0 <__muldf3+0x8c>
   18fb8:	03412703          	lw	a4,52(sp)
   18fbc:	01c12783          	lw	a5,28(sp)
   18fc0:	03010513          	addi	a0,sp,48
   18fc4:	40e787bb          	subw	a5,a5,a4
   18fc8:	00f037b3          	snez	a5,a5
   18fcc:	02f12a23          	sw	a5,52(sp)
   18fd0:	cbdff0ef          	jal	18c8c <__pack_d>
   18fd4:	06813083          	ld	ra,104(sp)
   18fd8:	07010113          	addi	sp,sp,112
   18fdc:	00008067          	ret
   18fe0:	00400793          	li	a5,4
   18fe4:	00f71c63          	bne	a4,a5,18ffc <__muldf3+0xa8>
   18fe8:	00200793          	li	a5,2
   18fec:	f8f69ee3          	bne	a3,a5,18f88 <__muldf3+0x34>
   18ff0:	0001b537          	lui	a0,0x1b
   18ff4:	ac050513          	addi	a0,a0,-1344 # 1aac0 <__thenan_df>
   18ff8:	fa9ff06f          	j	18fa0 <__muldf3+0x4c>
   18ffc:	00f69863          	bne	a3,a5,1900c <__muldf3+0xb8>
   19000:	00200793          	li	a5,2
   19004:	fef706e3          	beq	a4,a5,18ff0 <__muldf3+0x9c>
   19008:	fb1ff06f          	j	18fb8 <__muldf3+0x64>
   1900c:	00200793          	li	a5,2
   19010:	f6f70ce3          	beq	a4,a5,18f88 <__muldf3+0x34>
   19014:	faf682e3          	beq	a3,a5,18fb8 <__muldf3+0x64>
   19018:	02813603          	ld	a2,40(sp)
   1901c:	04013583          	ld	a1,64(sp)
   19020:	fff00793          	li	a5,-1
   19024:	0207d793          	srli	a5,a5,0x20
   19028:	02065293          	srli	t0,a2,0x20
   1902c:	0205d513          	srli	a0,a1,0x20
   19030:	00f676b3          	and	a3,a2,a5
   19034:	00f5f5b3          	and	a1,a1,a5
   19038:	02a688b3          	mul	a7,a3,a0
   1903c:	00000813          	li	a6,0
   19040:	02558733          	mul	a4,a1,t0
   19044:	01170733          	add	a4,a4,a7
   19048:	02b68633          	mul	a2,a3,a1
   1904c:	025507b3          	mul	a5,a0,t0
   19050:	01177663          	bleu	a7,a4,1905c <__muldf3+0x108>
   19054:	00100813          	li	a6,1
   19058:	02081813          	slli	a6,a6,0x20
   1905c:	02071693          	slli	a3,a4,0x20
   19060:	00c686b3          	add	a3,a3,a2
   19064:	00c6b633          	sltu	a2,a3,a2
   19068:	02075713          	srli	a4,a4,0x20
   1906c:	00c80833          	add	a6,a6,a2
   19070:	00f70733          	add	a4,a4,a5
   19074:	01c12583          	lw	a1,28(sp)
   19078:	03812783          	lw	a5,56(sp)
   1907c:	02012603          	lw	a2,32(sp)
   19080:	03412883          	lw	a7,52(sp)
   19084:	fff00513          	li	a0,-1
   19088:	00f6063b          	addw	a2,a2,a5
   1908c:	411588bb          	subw	a7,a1,a7
   19090:	011038b3          	snez	a7,a7
   19094:	0046059b          	addiw	a1,a2,4
   19098:	010707b3          	add	a5,a4,a6
   1909c:	00355813          	srli	a6,a0,0x3
   190a0:	04b12823          	sw	a1,80(sp)
   190a4:	05112623          	sw	a7,76(sp)
   190a8:	06f87263          	bleu	a5,a6,1910c <__muldf3+0x1b8>
   190ac:	03f51713          	slli	a4,a0,0x3f
   190b0:	00080513          	mv	a0,a6
   190b4:	03f79813          	slli	a6,a5,0x3f
   190b8:	0016d613          	srli	a2,a3,0x1
   190bc:	0015859b          	addiw	a1,a1,1
   190c0:	00085463          	bgez	a6,190c8 <__muldf3+0x174>
   190c4:	00e666b3          	or	a3,a2,a4
   190c8:	0017d793          	srli	a5,a5,0x1
   190cc:	fef564e3          	bltu	a0,a5,190b4 <__muldf3+0x160>
   190d0:	04b12823          	sw	a1,80(sp)
   190d4:	0ff7f613          	andi	a2,a5,255
   190d8:	08000713          	li	a4,128
   190dc:	00e60c63          	beq	a2,a4,190f4 <__muldf3+0x1a0>
   190e0:	04f13c23          	sd	a5,88(sp)
   190e4:	00300793          	li	a5,3
   190e8:	04f12423          	sw	a5,72(sp)
   190ec:	04810513          	addi	a0,sp,72
   190f0:	eb1ff06f          	j	18fa0 <__muldf3+0x4c>
   190f4:	03779713          	slli	a4,a5,0x37
   190f8:	fe0744e3          	bltz	a4,190e0 <__muldf3+0x18c>
   190fc:	fe0682e3          	beqz	a3,190e0 <__muldf3+0x18c>
   19100:	08078793          	addi	a5,a5,128
   19104:	f007f793          	andi	a5,a5,-256
   19108:	fd9ff06f          	j	190e0 <__muldf3+0x18c>
   1910c:	00455513          	srli	a0,a0,0x4
   19110:	fcf562e3          	bltu	a0,a5,190d4 <__muldf3+0x180>
   19114:	0036071b          	addiw	a4,a2,3
   19118:	00050613          	mv	a2,a0
   1911c:	0100006f          	j	1912c <__muldf3+0x1d8>
   19120:	00169693          	slli	a3,a3,0x1
   19124:	fff7071b          	addiw	a4,a4,-1
   19128:	faf664e3          	bltu	a2,a5,190d0 <__muldf3+0x17c>
   1912c:	00179793          	slli	a5,a5,0x1
   19130:	00070593          	mv	a1,a4
   19134:	fe06d6e3          	bgez	a3,19120 <__muldf3+0x1cc>
   19138:	0017e793          	ori	a5,a5,1
   1913c:	fe5ff06f          	j	19120 <__muldf3+0x1cc>

0000000000019140 <__divdf3>:
   19140:	fb010113          	addi	sp,sp,-80
   19144:	00010513          	mv	a0,sp
   19148:	01010593          	addi	a1,sp,16
   1914c:	04113423          	sd	ra,72(sp)
   19150:	00a13027          	fsd	fa0,0(sp)
   19154:	00b13427          	fsd	fa1,8(sp)
   19158:	c81ff0ef          	jal	18dd8 <__unpack_d>
   1915c:	00810513          	addi	a0,sp,8
   19160:	02810593          	addi	a1,sp,40
   19164:	c75ff0ef          	jal	18dd8 <__unpack_d>
   19168:	01012703          	lw	a4,16(sp)
   1916c:	00100793          	li	a5,1
   19170:	00e7ec63          	bltu	a5,a4,19188 <__divdf3+0x48>
   19174:	01010513          	addi	a0,sp,16
   19178:	b15ff0ef          	jal	18c8c <__pack_d>
   1917c:	04813083          	ld	ra,72(sp)
   19180:	05010113          	addi	sp,sp,80
   19184:	00008067          	ret
   19188:	02812683          	lw	a3,40(sp)
   1918c:	02810513          	addi	a0,sp,40
   19190:	fed7f4e3          	bleu	a3,a5,19178 <__divdf3+0x38>
   19194:	01412583          	lw	a1,20(sp)
   19198:	02c12603          	lw	a2,44(sp)
   1919c:	ffe7079b          	addiw	a5,a4,-2
   191a0:	ffd7f793          	andi	a5,a5,-3
   191a4:	00c5c633          	xor	a2,a1,a2
   191a8:	00c12a23          	sw	a2,20(sp)
   191ac:	00079a63          	bnez	a5,191c0 <__divdf3+0x80>
   191b0:	fcd712e3          	bne	a4,a3,19174 <__divdf3+0x34>
   191b4:	0001b537          	lui	a0,0x1b
   191b8:	ac050513          	addi	a0,a0,-1344 # 1aac0 <__thenan_df>
   191bc:	fbdff06f          	j	19178 <__divdf3+0x38>
   191c0:	00400793          	li	a5,4
   191c4:	06f68c63          	beq	a3,a5,1923c <__divdf3+0xfc>
   191c8:	00200713          	li	a4,2
   191cc:	08e68063          	beq	a3,a4,1924c <__divdf3+0x10c>
   191d0:	01812703          	lw	a4,24(sp)
   191d4:	03012683          	lw	a3,48(sp)
   191d8:	02013783          	ld	a5,32(sp)
   191dc:	03813603          	ld	a2,56(sp)
   191e0:	40d7073b          	subw	a4,a4,a3
   191e4:	00e12c23          	sw	a4,24(sp)
   191e8:	00c7f863          	bleu	a2,a5,191f8 <__divdf3+0xb8>
   191ec:	fff7071b          	addiw	a4,a4,-1
   191f0:	00179793          	slli	a5,a5,0x1
   191f4:	00e12c23          	sw	a4,24(sp)
   191f8:	00100693          	li	a3,1
   191fc:	03d00713          	li	a4,61
   19200:	03c69693          	slli	a3,a3,0x3c
   19204:	00000593          	li	a1,0
   19208:	fff7071b          	addiw	a4,a4,-1
   1920c:	00c7e663          	bltu	a5,a2,19218 <__divdf3+0xd8>
   19210:	00d5e5b3          	or	a1,a1,a3
   19214:	40c787b3          	sub	a5,a5,a2
   19218:	0016d693          	srli	a3,a3,0x1
   1921c:	00179793          	slli	a5,a5,0x1
   19220:	fe0714e3          	bnez	a4,19208 <__divdf3+0xc8>
   19224:	0ff5f693          	andi	a3,a1,255
   19228:	08000713          	li	a4,128
   1922c:	02e68463          	beq	a3,a4,19254 <__divdf3+0x114>
   19230:	02b13023          	sd	a1,32(sp)
   19234:	01010513          	addi	a0,sp,16
   19238:	f41ff06f          	j	19178 <__divdf3+0x38>
   1923c:	02013023          	sd	zero,32(sp)
   19240:	00012c23          	sw	zero,24(sp)
   19244:	01010513          	addi	a0,sp,16
   19248:	f31ff06f          	j	19178 <__divdf3+0x38>
   1924c:	00f12823          	sw	a5,16(sp)
   19250:	f25ff06f          	j	19174 <__divdf3+0x34>
   19254:	03759713          	slli	a4,a1,0x37
   19258:	fc074ce3          	bltz	a4,19230 <__divdf3+0xf0>
   1925c:	fc078ae3          	beqz	a5,19230 <__divdf3+0xf0>
   19260:	08058593          	addi	a1,a1,128
   19264:	f005f593          	andi	a1,a1,-256
   19268:	fc9ff06f          	j	19230 <__divdf3+0xf0>

000000000001926c <__fpcmp_parts_d>:
   1926c:	00052703          	lw	a4,0(a0)
   19270:	00100793          	li	a5,1
   19274:	00050613          	mv	a2,a0
   19278:	06e7fe63          	bleu	a4,a5,192f4 <__fpcmp_parts_d+0x88>
   1927c:	0005a683          	lw	a3,0(a1)
   19280:	00078513          	mv	a0,a5
   19284:	04d7f063          	bleu	a3,a5,192c4 <__fpcmp_parts_d+0x58>
   19288:	00400793          	li	a5,4
   1928c:	04f70863          	beq	a4,a5,192dc <__fpcmp_parts_d+0x70>
   19290:	02f68c63          	beq	a3,a5,192c8 <__fpcmp_parts_d+0x5c>
   19294:	00200793          	li	a5,2
   19298:	02f70263          	beq	a4,a5,192bc <__fpcmp_parts_d+0x50>
   1929c:	04f68263          	beq	a3,a5,192e0 <__fpcmp_parts_d+0x74>
   192a0:	00462783          	lw	a5,4(a2)
   192a4:	0045a703          	lw	a4,4(a1)
   192a8:	04e78a63          	beq	a5,a4,192fc <__fpcmp_parts_d+0x90>
   192ac:	00f03533          	snez	a0,a5
   192b0:	40a0053b          	negw	a0,a0
   192b4:	00156513          	ori	a0,a0,1
   192b8:	00008067          	ret
   192bc:	00e69663          	bne	a3,a4,192c8 <__fpcmp_parts_d+0x5c>
   192c0:	00000513          	li	a0,0
   192c4:	00008067          	ret
   192c8:	0045a503          	lw	a0,4(a1)
   192cc:	00153513          	seqz	a0,a0
   192d0:	40a0053b          	negw	a0,a0
   192d4:	00156513          	ori	a0,a0,1
   192d8:	00008067          	ret
   192dc:	04e68a63          	beq	a3,a4,19330 <__fpcmp_parts_d+0xc4>
   192e0:	00462503          	lw	a0,4(a2)
   192e4:	00a03533          	snez	a0,a0
   192e8:	40a0053b          	negw	a0,a0
   192ec:	00156513          	ori	a0,a0,1
   192f0:	00008067          	ret
   192f4:	00078513          	mv	a0,a5
   192f8:	00008067          	ret
   192fc:	00862683          	lw	a3,8(a2)
   19300:	0085a703          	lw	a4,8(a1)
   19304:	fad744e3          	blt	a4,a3,192ac <__fpcmp_parts_d+0x40>
   19308:	00e6cc63          	blt	a3,a4,19320 <__fpcmp_parts_d+0xb4>
   1930c:	01063683          	ld	a3,16(a2)
   19310:	0105b703          	ld	a4,16(a1)
   19314:	f8d76ce3          	bltu	a4,a3,192ac <__fpcmp_parts_d+0x40>
   19318:	00000513          	li	a0,0
   1931c:	fae6f4e3          	bleu	a4,a3,192c4 <__fpcmp_parts_d+0x58>
   19320:	0017b513          	seqz	a0,a5
   19324:	40a0053b          	negw	a0,a0
   19328:	00156513          	ori	a0,a0,1
   1932c:	00008067          	ret
   19330:	0045a783          	lw	a5,4(a1)
   19334:	00462503          	lw	a0,4(a2)
   19338:	40a7853b          	subw	a0,a5,a0
   1933c:	00008067          	ret

0000000000019340 <__cmpdf2>:
   19340:	fb010113          	addi	sp,sp,-80
   19344:	00010513          	mv	a0,sp
   19348:	01010593          	addi	a1,sp,16
   1934c:	04113423          	sd	ra,72(sp)
   19350:	00a13027          	fsd	fa0,0(sp)
   19354:	00b13427          	fsd	fa1,8(sp)
   19358:	a81ff0ef          	jal	18dd8 <__unpack_d>
   1935c:	00810513          	addi	a0,sp,8
   19360:	02810593          	addi	a1,sp,40
   19364:	a75ff0ef          	jal	18dd8 <__unpack_d>
   19368:	01010513          	addi	a0,sp,16
   1936c:	02810593          	addi	a1,sp,40
   19370:	efdff0ef          	jal	1926c <__fpcmp_parts_d>
   19374:	04813083          	ld	ra,72(sp)
   19378:	05010113          	addi	sp,sp,80
   1937c:	00008067          	ret

0000000000019380 <__eqdf2>:
   19380:	fb010113          	addi	sp,sp,-80
   19384:	00010513          	mv	a0,sp
   19388:	01010593          	addi	a1,sp,16
   1938c:	04113423          	sd	ra,72(sp)
   19390:	00a13027          	fsd	fa0,0(sp)
   19394:	00b13427          	fsd	fa1,8(sp)
   19398:	a41ff0ef          	jal	18dd8 <__unpack_d>
   1939c:	00810513          	addi	a0,sp,8
   193a0:	02810593          	addi	a1,sp,40
   193a4:	a35ff0ef          	jal	18dd8 <__unpack_d>
   193a8:	01012703          	lw	a4,16(sp)
   193ac:	00100793          	li	a5,1
   193b0:	00100513          	li	a0,1
   193b4:	00e7fc63          	bleu	a4,a5,193cc <__eqdf2+0x4c>
   193b8:	02812703          	lw	a4,40(sp)
   193bc:	00e7f863          	bleu	a4,a5,193cc <__eqdf2+0x4c>
   193c0:	01010513          	addi	a0,sp,16
   193c4:	02810593          	addi	a1,sp,40
   193c8:	ea5ff0ef          	jal	1926c <__fpcmp_parts_d>
   193cc:	04813083          	ld	ra,72(sp)
   193d0:	05010113          	addi	sp,sp,80
   193d4:	00008067          	ret

00000000000193d8 <__nedf2>:
   193d8:	fb010113          	addi	sp,sp,-80
   193dc:	00010513          	mv	a0,sp
   193e0:	01010593          	addi	a1,sp,16
   193e4:	04113423          	sd	ra,72(sp)
   193e8:	00a13027          	fsd	fa0,0(sp)
   193ec:	00b13427          	fsd	fa1,8(sp)
   193f0:	9e9ff0ef          	jal	18dd8 <__unpack_d>
   193f4:	00810513          	addi	a0,sp,8
   193f8:	02810593          	addi	a1,sp,40
   193fc:	9ddff0ef          	jal	18dd8 <__unpack_d>
   19400:	01012703          	lw	a4,16(sp)
   19404:	00100793          	li	a5,1
   19408:	00100513          	li	a0,1
   1940c:	00e7fc63          	bleu	a4,a5,19424 <__nedf2+0x4c>
   19410:	02812703          	lw	a4,40(sp)
   19414:	00e7f863          	bleu	a4,a5,19424 <__nedf2+0x4c>
   19418:	01010513          	addi	a0,sp,16
   1941c:	02810593          	addi	a1,sp,40
   19420:	e4dff0ef          	jal	1926c <__fpcmp_parts_d>
   19424:	04813083          	ld	ra,72(sp)
   19428:	05010113          	addi	sp,sp,80
   1942c:	00008067          	ret

0000000000019430 <__gtdf2>:
   19430:	fb010113          	addi	sp,sp,-80
   19434:	00010513          	mv	a0,sp
   19438:	01010593          	addi	a1,sp,16
   1943c:	04113423          	sd	ra,72(sp)
   19440:	00a13027          	fsd	fa0,0(sp)
   19444:	00b13427          	fsd	fa1,8(sp)
   19448:	991ff0ef          	jal	18dd8 <__unpack_d>
   1944c:	00810513          	addi	a0,sp,8
   19450:	02810593          	addi	a1,sp,40
   19454:	985ff0ef          	jal	18dd8 <__unpack_d>
   19458:	01012703          	lw	a4,16(sp)
   1945c:	00100793          	li	a5,1
   19460:	fff00513          	li	a0,-1
   19464:	00e7fc63          	bleu	a4,a5,1947c <__gtdf2+0x4c>
   19468:	02812703          	lw	a4,40(sp)
   1946c:	00e7f863          	bleu	a4,a5,1947c <__gtdf2+0x4c>
   19470:	01010513          	addi	a0,sp,16
   19474:	02810593          	addi	a1,sp,40
   19478:	df5ff0ef          	jal	1926c <__fpcmp_parts_d>
   1947c:	04813083          	ld	ra,72(sp)
   19480:	05010113          	addi	sp,sp,80
   19484:	00008067          	ret

0000000000019488 <__gedf2>:
   19488:	fb010113          	addi	sp,sp,-80
   1948c:	00010513          	mv	a0,sp
   19490:	01010593          	addi	a1,sp,16
   19494:	04113423          	sd	ra,72(sp)
   19498:	00a13027          	fsd	fa0,0(sp)
   1949c:	00b13427          	fsd	fa1,8(sp)
   194a0:	939ff0ef          	jal	18dd8 <__unpack_d>
   194a4:	00810513          	addi	a0,sp,8
   194a8:	02810593          	addi	a1,sp,40
   194ac:	92dff0ef          	jal	18dd8 <__unpack_d>
   194b0:	01012703          	lw	a4,16(sp)
   194b4:	00100793          	li	a5,1
   194b8:	fff00513          	li	a0,-1
   194bc:	00e7fc63          	bleu	a4,a5,194d4 <__gedf2+0x4c>
   194c0:	02812703          	lw	a4,40(sp)
   194c4:	00e7f863          	bleu	a4,a5,194d4 <__gedf2+0x4c>
   194c8:	01010513          	addi	a0,sp,16
   194cc:	02810593          	addi	a1,sp,40
   194d0:	d9dff0ef          	jal	1926c <__fpcmp_parts_d>
   194d4:	04813083          	ld	ra,72(sp)
   194d8:	05010113          	addi	sp,sp,80
   194dc:	00008067          	ret

00000000000194e0 <__ltdf2>:
   194e0:	fb010113          	addi	sp,sp,-80
   194e4:	00010513          	mv	a0,sp
   194e8:	01010593          	addi	a1,sp,16
   194ec:	04113423          	sd	ra,72(sp)
   194f0:	00a13027          	fsd	fa0,0(sp)
   194f4:	00b13427          	fsd	fa1,8(sp)
   194f8:	8e1ff0ef          	jal	18dd8 <__unpack_d>
   194fc:	00810513          	addi	a0,sp,8
   19500:	02810593          	addi	a1,sp,40
   19504:	8d5ff0ef          	jal	18dd8 <__unpack_d>
   19508:	01012703          	lw	a4,16(sp)
   1950c:	00100793          	li	a5,1
   19510:	00100513          	li	a0,1
   19514:	00e7fc63          	bleu	a4,a5,1952c <__ltdf2+0x4c>
   19518:	02812703          	lw	a4,40(sp)
   1951c:	00e7f863          	bleu	a4,a5,1952c <__ltdf2+0x4c>
   19520:	01010513          	addi	a0,sp,16
   19524:	02810593          	addi	a1,sp,40
   19528:	d45ff0ef          	jal	1926c <__fpcmp_parts_d>
   1952c:	04813083          	ld	ra,72(sp)
   19530:	05010113          	addi	sp,sp,80
   19534:	00008067          	ret

0000000000019538 <__ledf2>:
   19538:	fb010113          	addi	sp,sp,-80
   1953c:	00010513          	mv	a0,sp
   19540:	01010593          	addi	a1,sp,16
   19544:	04113423          	sd	ra,72(sp)
   19548:	00a13027          	fsd	fa0,0(sp)
   1954c:	00b13427          	fsd	fa1,8(sp)
   19550:	889ff0ef          	jal	18dd8 <__unpack_d>
   19554:	00810513          	addi	a0,sp,8
   19558:	02810593          	addi	a1,sp,40
   1955c:	87dff0ef          	jal	18dd8 <__unpack_d>
   19560:	01012703          	lw	a4,16(sp)
   19564:	00100793          	li	a5,1
   19568:	00100513          	li	a0,1
   1956c:	00e7fc63          	bleu	a4,a5,19584 <__ledf2+0x4c>
   19570:	02812703          	lw	a4,40(sp)
   19574:	00e7f863          	bleu	a4,a5,19584 <__ledf2+0x4c>
   19578:	01010513          	addi	a0,sp,16
   1957c:	02810593          	addi	a1,sp,40
   19580:	cedff0ef          	jal	1926c <__fpcmp_parts_d>
   19584:	04813083          	ld	ra,72(sp)
   19588:	05010113          	addi	sp,sp,80
   1958c:	00008067          	ret

0000000000019590 <__unorddf2>:
   19590:	fb010113          	addi	sp,sp,-80
   19594:	00010513          	mv	a0,sp
   19598:	01010593          	addi	a1,sp,16
   1959c:	04113423          	sd	ra,72(sp)
   195a0:	00a13027          	fsd	fa0,0(sp)
   195a4:	00b13427          	fsd	fa1,8(sp)
   195a8:	831ff0ef          	jal	18dd8 <__unpack_d>
   195ac:	00810513          	addi	a0,sp,8
   195b0:	02810593          	addi	a1,sp,40
   195b4:	825ff0ef          	jal	18dd8 <__unpack_d>
   195b8:	01012703          	lw	a4,16(sp)
   195bc:	00100793          	li	a5,1
   195c0:	00100513          	li	a0,1
   195c4:	00e7f663          	bleu	a4,a5,195d0 <__unorddf2+0x40>
   195c8:	02812503          	lw	a0,40(sp)
   195cc:	00253513          	sltiu	a0,a0,2
   195d0:	04813083          	ld	ra,72(sp)
   195d4:	05010113          	addi	sp,sp,80
   195d8:	00008067          	ret

00000000000195dc <__floatsidf>:
   195dc:	01f5579b          	srliw	a5,a0,0x1f
   195e0:	fd010113          	addi	sp,sp,-48
   195e4:	0ff7f793          	andi	a5,a5,255
   195e8:	00300713          	li	a4,3
   195ec:	02113423          	sd	ra,40(sp)
   195f0:	02813023          	sd	s0,32(sp)
   195f4:	00e12423          	sw	a4,8(sp)
   195f8:	00f12623          	sw	a5,12(sp)
   195fc:	02051263          	bnez	a0,19620 <__floatsidf+0x44>
   19600:	00200793          	li	a5,2
   19604:	00f12423          	sw	a5,8(sp)
   19608:	00810513          	addi	a0,sp,8
   1960c:	e80ff0ef          	jal	18c8c <__pack_d>
   19610:	02813083          	ld	ra,40(sp)
   19614:	02013403          	ld	s0,32(sp)
   19618:	03010113          	addi	sp,sp,48
   1961c:	00008067          	ret
   19620:	00078863          	beqz	a5,19630 <__floatsidf+0x54>
   19624:	800007b7          	lui	a5,0x80000
   19628:	02f50a63          	beq	a0,a5,1965c <__floatsidf+0x80>
   1962c:	40a0053b          	negw	a0,a0
   19630:	02051413          	slli	s0,a0,0x20
   19634:	02045413          	srli	s0,s0,0x20
   19638:	00040513          	mv	a0,s0
   1963c:	1f0000ef          	jal	1982c <__clzdi2>
   19640:	ffd5051b          	addiw	a0,a0,-3
   19644:	03c00793          	li	a5,60
   19648:	00a41433          	sll	s0,s0,a0
   1964c:	40a7853b          	subw	a0,a5,a0
   19650:	00813c23          	sd	s0,24(sp)
   19654:	00a12823          	sw	a0,16(sp)
   19658:	fb1ff06f          	j	19608 <__floatsidf+0x2c>
   1965c:	8a01b507          	fld	fa0,-1888(gp) # 1d100 <mask+0x8>
   19660:	fb1ff06f          	j	19610 <__floatsidf+0x34>

0000000000019664 <__floatunsidf>:
   19664:	fd010113          	addi	sp,sp,-48
   19668:	02113423          	sd	ra,40(sp)
   1966c:	02813023          	sd	s0,32(sp)
   19670:	00012623          	sw	zero,12(sp)
   19674:	04050663          	beqz	a0,196c0 <__floatunsidf+0x5c>
   19678:	02051413          	slli	s0,a0,0x20
   1967c:	02045413          	srli	s0,s0,0x20
   19680:	00300793          	li	a5,3
   19684:	00040513          	mv	a0,s0
   19688:	00f12423          	sw	a5,8(sp)
   1968c:	1a0000ef          	jal	1982c <__clzdi2>
   19690:	ffd5051b          	addiw	a0,a0,-3
   19694:	03c00793          	li	a5,60
   19698:	00a41433          	sll	s0,s0,a0
   1969c:	40a7853b          	subw	a0,a5,a0
   196a0:	00a12823          	sw	a0,16(sp)
   196a4:	00810513          	addi	a0,sp,8
   196a8:	00813c23          	sd	s0,24(sp)
   196ac:	de0ff0ef          	jal	18c8c <__pack_d>
   196b0:	02813083          	ld	ra,40(sp)
   196b4:	02013403          	ld	s0,32(sp)
   196b8:	03010113          	addi	sp,sp,48
   196bc:	00008067          	ret
   196c0:	00200793          	li	a5,2
   196c4:	00810513          	addi	a0,sp,8
   196c8:	00f12423          	sw	a5,8(sp)
   196cc:	dc0ff0ef          	jal	18c8c <__pack_d>
   196d0:	02813083          	ld	ra,40(sp)
   196d4:	02013403          	ld	s0,32(sp)
   196d8:	03010113          	addi	sp,sp,48
   196dc:	00008067          	ret

00000000000196e0 <__fixdfsi>:
   196e0:	fd010113          	addi	sp,sp,-48
   196e4:	00010513          	mv	a0,sp
   196e8:	00810593          	addi	a1,sp,8
   196ec:	02113423          	sd	ra,40(sp)
   196f0:	00a13027          	fsd	fa0,0(sp)
   196f4:	ee4ff0ef          	jal	18dd8 <__unpack_d>
   196f8:	00812783          	lw	a5,8(sp)
   196fc:	00200713          	li	a4,2
   19700:	06f77663          	bleu	a5,a4,1976c <__fixdfsi+0x8c>
   19704:	00400713          	li	a4,4
   19708:	00e78a63          	beq	a5,a4,1971c <__fixdfsi+0x3c>
   1970c:	01012783          	lw	a5,16(sp)
   19710:	0407ce63          	bltz	a5,1976c <__fixdfsi+0x8c>
   19714:	01e00713          	li	a4,30
   19718:	02f75063          	ble	a5,a4,19738 <__fixdfsi+0x58>
   1971c:	00c12783          	lw	a5,12(sp)
   19720:	80000537          	lui	a0,0x80000
   19724:	00079463          	bnez	a5,1972c <__fixdfsi+0x4c>
   19728:	fff54513          	not	a0,a0
   1972c:	02813083          	ld	ra,40(sp)
   19730:	03010113          	addi	sp,sp,48
   19734:	00008067          	ret
   19738:	00c12683          	lw	a3,12(sp)
   1973c:	01813703          	ld	a4,24(sp)
   19740:	03c00513          	li	a0,60
   19744:	40f507bb          	subw	a5,a0,a5
   19748:	00d036b3          	snez	a3,a3
   1974c:	00f757b3          	srl	a5,a4,a5
   19750:	02813083          	ld	ra,40(sp)
   19754:	0007851b          	sext.w	a0,a5
   19758:	40d007bb          	negw	a5,a3
   1975c:	00f547b3          	xor	a5,a0,a5
   19760:	00d7853b          	addw	a0,a5,a3
   19764:	03010113          	addi	sp,sp,48
   19768:	00008067          	ret
   1976c:	02813083          	ld	ra,40(sp)
   19770:	00000513          	li	a0,0
   19774:	03010113          	addi	sp,sp,48
   19778:	00008067          	ret

000000000001977c <__negdf2>:
   1977c:	fd010113          	addi	sp,sp,-48
   19780:	00010513          	mv	a0,sp
   19784:	00810593          	addi	a1,sp,8
   19788:	02113423          	sd	ra,40(sp)
   1978c:	00a13027          	fsd	fa0,0(sp)
   19790:	e48ff0ef          	jal	18dd8 <__unpack_d>
   19794:	00c12783          	lw	a5,12(sp)
   19798:	00810513          	addi	a0,sp,8
   1979c:	0017b793          	seqz	a5,a5
   197a0:	00f12623          	sw	a5,12(sp)
   197a4:	ce8ff0ef          	jal	18c8c <__pack_d>
   197a8:	02813083          	ld	ra,40(sp)
   197ac:	03010113          	addi	sp,sp,48
   197b0:	00008067          	ret

00000000000197b4 <__make_dp>:
   197b4:	fd010113          	addi	sp,sp,-48
   197b8:	00a12423          	sw	a0,8(sp)
   197bc:	00810513          	addi	a0,sp,8
   197c0:	02113423          	sd	ra,40(sp)
   197c4:	00b12623          	sw	a1,12(sp)
   197c8:	00c12823          	sw	a2,16(sp)
   197cc:	00d13c23          	sd	a3,24(sp)
   197d0:	cbcff0ef          	jal	18c8c <__pack_d>
   197d4:	02813083          	ld	ra,40(sp)
   197d8:	03010113          	addi	sp,sp,48
   197dc:	00008067          	ret

00000000000197e0 <__truncdfsf2>:
   197e0:	fd010113          	addi	sp,sp,-48
   197e4:	00010513          	mv	a0,sp
   197e8:	00810593          	addi	a1,sp,8
   197ec:	02113423          	sd	ra,40(sp)
   197f0:	00a13027          	fsd	fa0,0(sp)
   197f4:	de4ff0ef          	jal	18dd8 <__unpack_d>
   197f8:	01813783          	ld	a5,24(sp)
   197fc:	01e7d693          	srli	a3,a5,0x1e
   19800:	02279713          	slli	a4,a5,0x22
   19804:	0006869b          	sext.w	a3,a3
   19808:	00070463          	beqz	a4,19810 <__truncdfsf2+0x30>
   1980c:	0016e693          	ori	a3,a3,1
   19810:	00812503          	lw	a0,8(sp)
   19814:	00c12583          	lw	a1,12(sp)
   19818:	01012603          	lw	a2,16(sp)
   1981c:	585000ef          	jal	1a5a0 <__make_fp>
   19820:	02813083          	ld	ra,40(sp)
   19824:	03010113          	addi	sp,sp,48
   19828:	00008067          	ret

000000000001982c <__clzdi2>:
   1982c:	03800793          	li	a5,56
   19830:	00f55733          	srl	a4,a0,a5
   19834:	0ff77693          	andi	a3,a4,255
   19838:	02069663          	bnez	a3,19864 <__clzdi2+0x38>
   1983c:	ff878793          	addi	a5,a5,-8 # ffffffff7ffffff8 <_gp+0xffffffff7ffe2798>
   19840:	fe0798e3          	bnez	a5,19830 <__clzdi2+0x4>
   19844:	0001b6b7          	lui	a3,0x1b
   19848:	00050713          	mv	a4,a0
   1984c:	ae868693          	addi	a3,a3,-1304 # 1aae8 <__clz_tab>
   19850:	00d70733          	add	a4,a4,a3
   19854:	00074503          	lbu	a0,0(a4)
   19858:	04000793          	li	a5,64
   1985c:	40a7853b          	subw	a0,a5,a0
   19860:	00008067          	ret
   19864:	0001b6b7          	lui	a3,0x1b
   19868:	ae868693          	addi	a3,a3,-1304 # 1aae8 <__clz_tab>
   1986c:	04000513          	li	a0,64
   19870:	00d70733          	add	a4,a4,a3
   19874:	40f507b3          	sub	a5,a0,a5
   19878:	00074503          	lbu	a0,0(a4)
   1987c:	40a7853b          	subw	a0,a5,a0
   19880:	00008067          	ret

0000000000019884 <_fpadd_parts>:
   19884:	00052783          	lw	a5,0(a0) # ffffffff80000000 <_gp+0xffffffff7ffe27a0>
   19888:	00100713          	li	a4,1
   1988c:	0ef77463          	bleu	a5,a4,19974 <_fpadd_parts+0xf0>
   19890:	0005a683          	lw	a3,0(a1)
   19894:	0cd77e63          	bleu	a3,a4,19970 <_fpadd_parts+0xec>
   19898:	00400813          	li	a6,4
   1989c:	15078c63          	beq	a5,a6,199f4 <_fpadd_parts+0x170>
   198a0:	0d068863          	beq	a3,a6,19970 <_fpadd_parts+0xec>
   198a4:	00200813          	li	a6,2
   198a8:	11068663          	beq	a3,a6,199b4 <_fpadd_parts+0x130>
   198ac:	0d078263          	beq	a5,a6,19970 <_fpadd_parts+0xec>
   198b0:	00852303          	lw	t1,8(a0)
   198b4:	0085a783          	lw	a5,8(a1)
   198b8:	01f00693          	li	a3,31
   198bc:	00c52383          	lw	t2,12(a0)
   198c0:	40f3083b          	subw	a6,t1,a5
   198c4:	41f8529b          	sraiw	t0,a6,0x1f
   198c8:	0102c8b3          	xor	a7,t0,a6
   198cc:	405888bb          	subw	a7,a7,t0
   198d0:	00c5a283          	lw	t0,12(a1)
   198d4:	0b16d263          	ble	a7,a3,19978 <_fpadd_parts+0xf4>
   198d8:	1067ca63          	blt	a5,t1,199ec <_fpadd_parts+0x168>
   198dc:	00078313          	mv	t1,a5
   198e0:	00000393          	li	t2,0
   198e4:	00452703          	lw	a4,4(a0)
   198e8:	0045a783          	lw	a5,4(a1)
   198ec:	0af70a63          	beq	a4,a5,199a0 <_fpadd_parts+0x11c>
   198f0:	405387bb          	subw	a5,t2,t0
   198f4:	00070463          	beqz	a4,198fc <_fpadd_parts+0x78>
   198f8:	407287bb          	subw	a5,t0,t2
   198fc:	1007ca63          	bltz	a5,19a10 <_fpadd_parts+0x18c>
   19900:	00062223          	sw	zero,4(a2)
   19904:	00662423          	sw	t1,8(a2)
   19908:	00f62623          	sw	a5,12(a2)
   1990c:	400005b7          	lui	a1,0x40000
   19910:	fff7871b          	addiw	a4,a5,-1
   19914:	ffe5859b          	addiw	a1,a1,-2
   19918:	02e5e463          	bltu	a1,a4,19940 <_fpadd_parts+0xbc>
   1991c:	00862703          	lw	a4,8(a2)
   19920:	fff7071b          	addiw	a4,a4,-1
   19924:	0017979b          	slliw	a5,a5,0x1
   19928:	fff7869b          	addiw	a3,a5,-1
   1992c:	00070513          	mv	a0,a4
   19930:	fff7071b          	addiw	a4,a4,-1
   19934:	fed5f8e3          	bleu	a3,a1,19924 <_fpadd_parts+0xa0>
   19938:	00f62623          	sw	a5,12(a2)
   1993c:	00a62423          	sw	a0,8(a2)
   19940:	00300713          	li	a4,3
   19944:	00e62023          	sw	a4,0(a2)
   19948:	00060513          	mv	a0,a2
   1994c:	0207d463          	bgez	a5,19974 <_fpadd_parts+0xf0>
   19950:	00862703          	lw	a4,8(a2)
   19954:	0017f693          	andi	a3,a5,1
   19958:	0017d79b          	srliw	a5,a5,0x1
   1995c:	00f6e7b3          	or	a5,a3,a5
   19960:	0017071b          	addiw	a4,a4,1
   19964:	00f62623          	sw	a5,12(a2)
   19968:	00e62423          	sw	a4,8(a2)
   1996c:	00008067          	ret
   19970:	00058513          	mv	a0,a1
   19974:	00008067          	ret
   19978:	0b005863          	blez	a6,19a28 <_fpadd_parts+0x1a4>
   1997c:	011716bb          	sllw	a3,a4,a7
   19980:	fff6869b          	addiw	a3,a3,-1
   19984:	0056f6b3          	and	a3,a3,t0
   19988:	00d03733          	snez	a4,a3
   1998c:	0112d2bb          	srlw	t0,t0,a7
   19990:	005762b3          	or	t0,a4,t0
   19994:	0045a783          	lw	a5,4(a1) # 40000004 <_gp+0x3ffe27a4>
   19998:	00452703          	lw	a4,4(a0)
   1999c:	f4f71ae3          	bne	a4,a5,198f0 <_fpadd_parts+0x6c>
   199a0:	007287bb          	addw	a5,t0,t2
   199a4:	00e62223          	sw	a4,4(a2)
   199a8:	00662423          	sw	t1,8(a2)
   199ac:	00f62623          	sw	a5,12(a2)
   199b0:	f91ff06f          	j	19940 <_fpadd_parts+0xbc>
   199b4:	fcd790e3          	bne	a5,a3,19974 <_fpadd_parts+0xf0>
   199b8:	00452703          	lw	a4,4(a0)
   199bc:	00852803          	lw	a6,8(a0)
   199c0:	00c52683          	lw	a3,12(a0)
   199c4:	00e62223          	sw	a4,4(a2)
   199c8:	00f62023          	sw	a5,0(a2)
   199cc:	00452783          	lw	a5,4(a0)
   199d0:	0045a703          	lw	a4,4(a1)
   199d4:	00060513          	mv	a0,a2
   199d8:	01062423          	sw	a6,8(a2)
   199dc:	00f777b3          	and	a5,a4,a5
   199e0:	00d62623          	sw	a3,12(a2)
   199e4:	00f62223          	sw	a5,4(a2)
   199e8:	00008067          	ret
   199ec:	00000293          	li	t0,0
   199f0:	ef5ff06f          	j	198e4 <_fpadd_parts+0x60>
   199f4:	f8f690e3          	bne	a3,a5,19974 <_fpadd_parts+0xf0>
   199f8:	00452703          	lw	a4,4(a0)
   199fc:	0045a783          	lw	a5,4(a1)
   19a00:	f6f70ae3          	beq	a4,a5,19974 <_fpadd_parts+0xf0>
   19a04:	0001b537          	lui	a0,0x1b
   19a08:	ad850513          	addi	a0,a0,-1320 # 1aad8 <__thenan_sf>
   19a0c:	00008067          	ret
   19a10:	40f007bb          	negw	a5,a5
   19a14:	00100713          	li	a4,1
   19a18:	00e62223          	sw	a4,4(a2)
   19a1c:	00662423          	sw	t1,8(a2)
   19a20:	00f62623          	sw	a5,12(a2)
   19a24:	ee9ff06f          	j	1990c <_fpadd_parts+0x88>
   19a28:	ea080ee3          	beqz	a6,198e4 <_fpadd_parts+0x60>
   19a2c:	0117183b          	sllw	a6,a4,a7
   19a30:	fff8081b          	addiw	a6,a6,-1
   19a34:	00787833          	and	a6,a6,t2
   19a38:	0113d7bb          	srlw	a5,t2,a7
   19a3c:	010036b3          	snez	a3,a6
   19a40:	0113033b          	addw	t1,t1,a7
   19a44:	00f6e3b3          	or	t2,a3,a5
   19a48:	e9dff06f          	j	198e4 <_fpadd_parts+0x60>

0000000000019a4c <__pack_f>:
   19a4c:	00052703          	lw	a4,0(a0)
   19a50:	00100613          	li	a2,1
   19a54:	00c52683          	lw	a3,12(a0)
   19a58:	00452783          	lw	a5,4(a0)
   19a5c:	08e67c63          	bleu	a4,a2,19af4 <__pack_f+0xa8>
   19a60:	00400593          	li	a1,4
   19a64:	08b70263          	beq	a4,a1,19ae8 <__pack_f+0x9c>
   19a68:	00200593          	li	a1,2
   19a6c:	04b70263          	beq	a4,a1,19ab0 <__pack_f+0x64>
   19a70:	04068063          	beqz	a3,19ab0 <__pack_f+0x64>
   19a74:	00852703          	lw	a4,8(a0)
   19a78:	f8200593          	li	a1,-126
   19a7c:	0ab74e63          	blt	a4,a1,19b38 <__pack_f+0xec>
   19a80:	07f00613          	li	a2,127
   19a84:	06e64263          	blt	a2,a4,19ae8 <__pack_f+0x9c>
   19a88:	00c6f5b3          	and	a1,a3,a2
   19a8c:	04000613          	li	a2,64
   19a90:	08c58663          	beq	a1,a2,19b1c <__pack_f+0xd0>
   19a94:	03f6869b          	addiw	a3,a3,63
   19a98:	0806ca63          	bltz	a3,19b2c <__pack_f+0xe0>
   19a9c:	07f7071b          	addiw	a4,a4,127
   19aa0:	02269693          	slli	a3,a3,0x22
   19aa4:	0296d693          	srli	a3,a3,0x29
   19aa8:	0ff77713          	andi	a4,a4,255
   19aac:	00c0006f          	j	19ab8 <__pack_f+0x6c>
   19ab0:	00000713          	li	a4,0
   19ab4:	00000693          	li	a3,0
   19ab8:	00800637          	lui	a2,0x800
   19abc:	fff6061b          	addiw	a2,a2,-1
   19ac0:	00c6f6b3          	and	a3,a3,a2
   19ac4:	80800637          	lui	a2,0x80800
   19ac8:	fff6061b          	addiw	a2,a2,-1
   19acc:	00c6f6b3          	and	a3,a3,a2
   19ad0:	0177171b          	slliw	a4,a4,0x17
   19ad4:	01f7961b          	slliw	a2,a5,0x1f
   19ad8:	00e6e7b3          	or	a5,a3,a4
   19adc:	00c7e7b3          	or	a5,a5,a2
   19ae0:	f0078553          	fmv.s.x	fa0,a5
   19ae4:	00008067          	ret
   19ae8:	0ff00713          	li	a4,255
   19aec:	00000693          	li	a3,0
   19af0:	fc9ff06f          	j	19ab8 <__pack_f+0x6c>
   19af4:	00400637          	lui	a2,0x400
   19af8:	0076d71b          	srliw	a4,a3,0x7
   19afc:	fff6069b          	addiw	a3,a2,-1
   19b00:	00d776b3          	and	a3,a4,a3
   19b04:	00800737          	lui	a4,0x800
   19b08:	fff7071b          	addiw	a4,a4,-1
   19b0c:	00c6e6b3          	or	a3,a3,a2
   19b10:	00e6f6b3          	and	a3,a3,a4
   19b14:	0ff00713          	li	a4,255
   19b18:	fa1ff06f          	j	19ab8 <__pack_f+0x6c>
   19b1c:	03869613          	slli	a2,a3,0x38
   19b20:	f6065ce3          	bgez	a2,19a98 <__pack_f+0x4c>
   19b24:	0406869b          	addiw	a3,a3,64
   19b28:	f71ff06f          	j	19a98 <__pack_f+0x4c>
   19b2c:	0016d69b          	srliw	a3,a3,0x1
   19b30:	0807071b          	addiw	a4,a4,128
   19b34:	f6dff06f          	j	19aa0 <__pack_f+0x54>
   19b38:	40e5873b          	subw	a4,a1,a4
   19b3c:	01900593          	li	a1,25
   19b40:	f6e5c8e3          	blt	a1,a4,19ab0 <__pack_f+0x64>
   19b44:	00e6163b          	sllw	a2,a2,a4
   19b48:	fff6061b          	addiw	a2,a2,-1
   19b4c:	00d67633          	and	a2,a2,a3
   19b50:	00e6d6bb          	srlw	a3,a3,a4
   19b54:	00c03733          	snez	a4,a2
   19b58:	00d76733          	or	a4,a4,a3
   19b5c:	07f77613          	andi	a2,a4,127
   19b60:	04000693          	li	a3,64
   19b64:	02d61263          	bne	a2,a3,19b88 <__pack_f+0x13c>
   19b68:	03871613          	slli	a2,a4,0x38
   19b6c:	02064c63          	bltz	a2,19ba4 <__pack_f+0x158>
   19b70:	400006b7          	lui	a3,0x40000
   19b74:	02271613          	slli	a2,a4,0x22
   19b78:	00d73733          	sltu	a4,a4,a3
   19b7c:	00173713          	seqz	a4,a4
   19b80:	02965693          	srli	a3,a2,0x29
   19b84:	f35ff06f          	j	19ab8 <__pack_f+0x6c>
   19b88:	03f7061b          	addiw	a2,a4,63
   19b8c:	40000737          	lui	a4,0x40000
   19b90:	02261693          	slli	a3,a2,0x22
   19b94:	00e63733          	sltu	a4,a2,a4
   19b98:	0296d693          	srli	a3,a3,0x29
   19b9c:	00173713          	seqz	a4,a4
   19ba0:	f19ff06f          	j	19ab8 <__pack_f+0x6c>
   19ba4:	0407061b          	addiw	a2,a4,64
   19ba8:	fe5ff06f          	j	19b8c <__pack_f+0x140>

0000000000019bac <__unpack_f>:
   19bac:	00255703          	lhu	a4,2(a0)
   19bb0:	00354683          	lbu	a3,3(a0)
   19bb4:	00052603          	lw	a2,0(a0)
   19bb8:	0077571b          	srliw	a4,a4,0x7
   19bbc:	008007b7          	lui	a5,0x800
   19bc0:	0076d69b          	srliw	a3,a3,0x7
   19bc4:	fff7879b          	addiw	a5,a5,-1
   19bc8:	0ff77713          	andi	a4,a4,255
   19bcc:	00f677b3          	and	a5,a2,a5
   19bd0:	00d5a223          	sw	a3,4(a1)
   19bd4:	02071a63          	bnez	a4,19c08 <__unpack_f+0x5c>
   19bd8:	04078e63          	beqz	a5,19c34 <__unpack_f+0x88>
   19bdc:	00300713          	li	a4,3
   19be0:	00e5a023          	sw	a4,0(a1)
   19be4:	0077979b          	slliw	a5,a5,0x7
   19be8:	f8200713          	li	a4,-126
   19bec:	400006b7          	lui	a3,0x40000
   19bf0:	0017979b          	slliw	a5,a5,0x1
   19bf4:	fff7071b          	addiw	a4,a4,-1
   19bf8:	fed7ece3          	bltu	a5,a3,19bf0 <__unpack_f+0x44>
   19bfc:	00e5a423          	sw	a4,8(a1)
   19c00:	00f5a623          	sw	a5,12(a1)
   19c04:	00008067          	ret
   19c08:	0ff00693          	li	a3,255
   19c0c:	02d70a63          	beq	a4,a3,19c40 <__unpack_f+0x94>
   19c10:	f817071b          	addiw	a4,a4,-127
   19c14:	0077979b          	slliw	a5,a5,0x7
   19c18:	400006b7          	lui	a3,0x40000
   19c1c:	00d7e7b3          	or	a5,a5,a3
   19c20:	00e5a423          	sw	a4,8(a1)
   19c24:	00300713          	li	a4,3
   19c28:	00e5a023          	sw	a4,0(a1)
   19c2c:	00f5a623          	sw	a5,12(a1)
   19c30:	00008067          	ret
   19c34:	00200793          	li	a5,2
   19c38:	00f5a023          	sw	a5,0(a1)
   19c3c:	00008067          	ret
   19c40:	02078663          	beqz	a5,19c6c <__unpack_f+0xc0>
   19c44:	02979713          	slli	a4,a5,0x29
   19c48:	02075863          	bgez	a4,19c78 <__unpack_f+0xcc>
   19c4c:	00100713          	li	a4,1
   19c50:	00e5a023          	sw	a4,0(a1)
   19c54:	ffc00737          	lui	a4,0xffc00
   19c58:	fff7071b          	addiw	a4,a4,-1
   19c5c:	00e7f7b3          	and	a5,a5,a4
   19c60:	0077979b          	slliw	a5,a5,0x7
   19c64:	00f5a623          	sw	a5,12(a1)
   19c68:	00008067          	ret
   19c6c:	00400793          	li	a5,4
   19c70:	00f5a023          	sw	a5,0(a1)
   19c74:	00008067          	ret
   19c78:	0005a023          	sw	zero,0(a1)
   19c7c:	fd9ff06f          	j	19c54 <__unpack_f+0xa8>

0000000000019c80 <__addsf3>:
   19c80:	fb010113          	addi	sp,sp,-80
   19c84:	00010513          	mv	a0,sp
   19c88:	01010593          	addi	a1,sp,16
   19c8c:	04113423          	sd	ra,72(sp)
   19c90:	00a12027          	fsw	fa0,0(sp)
   19c94:	00b12427          	fsw	fa1,8(sp)
   19c98:	f15ff0ef          	jal	19bac <__unpack_f>
   19c9c:	00810513          	addi	a0,sp,8
   19ca0:	02010593          	addi	a1,sp,32
   19ca4:	f09ff0ef          	jal	19bac <__unpack_f>
   19ca8:	02010593          	addi	a1,sp,32
   19cac:	03010613          	addi	a2,sp,48
   19cb0:	01010513          	addi	a0,sp,16
   19cb4:	bd1ff0ef          	jal	19884 <_fpadd_parts>
   19cb8:	d95ff0ef          	jal	19a4c <__pack_f>
   19cbc:	04813083          	ld	ra,72(sp)
   19cc0:	05010113          	addi	sp,sp,80
   19cc4:	00008067          	ret

0000000000019cc8 <__subsf3>:
   19cc8:	fb010113          	addi	sp,sp,-80
   19ccc:	00010513          	mv	a0,sp
   19cd0:	01010593          	addi	a1,sp,16
   19cd4:	04113423          	sd	ra,72(sp)
   19cd8:	00a12027          	fsw	fa0,0(sp)
   19cdc:	00b12427          	fsw	fa1,8(sp)
   19ce0:	ecdff0ef          	jal	19bac <__unpack_f>
   19ce4:	00810513          	addi	a0,sp,8
   19ce8:	02010593          	addi	a1,sp,32
   19cec:	ec1ff0ef          	jal	19bac <__unpack_f>
   19cf0:	02412783          	lw	a5,36(sp)
   19cf4:	02010593          	addi	a1,sp,32
   19cf8:	03010613          	addi	a2,sp,48
   19cfc:	0017c793          	xori	a5,a5,1
   19d00:	01010513          	addi	a0,sp,16
   19d04:	02f12223          	sw	a5,36(sp)
   19d08:	b7dff0ef          	jal	19884 <_fpadd_parts>
   19d0c:	d41ff0ef          	jal	19a4c <__pack_f>
   19d10:	04813083          	ld	ra,72(sp)
   19d14:	05010113          	addi	sp,sp,80
   19d18:	00008067          	ret

0000000000019d1c <__mulsf3>:
   19d1c:	fb010113          	addi	sp,sp,-80
   19d20:	00010513          	mv	a0,sp
   19d24:	01010593          	addi	a1,sp,16
   19d28:	04113423          	sd	ra,72(sp)
   19d2c:	00a12027          	fsw	fa0,0(sp)
   19d30:	00b12427          	fsw	fa1,8(sp)
   19d34:	e79ff0ef          	jal	19bac <__unpack_f>
   19d38:	00810513          	addi	a0,sp,8
   19d3c:	02010593          	addi	a1,sp,32
   19d40:	e6dff0ef          	jal	19bac <__unpack_f>
   19d44:	01012703          	lw	a4,16(sp)
   19d48:	00100793          	li	a5,1
   19d4c:	02e7e663          	bltu	a5,a4,19d78 <__mulsf3+0x5c>
   19d50:	01412783          	lw	a5,20(sp)
   19d54:	02412703          	lw	a4,36(sp)
   19d58:	01010513          	addi	a0,sp,16
   19d5c:	40e787bb          	subw	a5,a5,a4
   19d60:	00f037b3          	snez	a5,a5
   19d64:	00f12a23          	sw	a5,20(sp)
   19d68:	ce5ff0ef          	jal	19a4c <__pack_f>
   19d6c:	04813083          	ld	ra,72(sp)
   19d70:	05010113          	addi	sp,sp,80
   19d74:	00008067          	ret
   19d78:	02012683          	lw	a3,32(sp)
   19d7c:	02d7e663          	bltu	a5,a3,19da8 <__mulsf3+0x8c>
   19d80:	02412703          	lw	a4,36(sp)
   19d84:	01412783          	lw	a5,20(sp)
   19d88:	02010513          	addi	a0,sp,32
   19d8c:	40e787bb          	subw	a5,a5,a4
   19d90:	00f037b3          	snez	a5,a5
   19d94:	02f12223          	sw	a5,36(sp)
   19d98:	cb5ff0ef          	jal	19a4c <__pack_f>
   19d9c:	04813083          	ld	ra,72(sp)
   19da0:	05010113          	addi	sp,sp,80
   19da4:	00008067          	ret
   19da8:	00400793          	li	a5,4
   19dac:	00f71c63          	bne	a4,a5,19dc4 <__mulsf3+0xa8>
   19db0:	00200793          	li	a5,2
   19db4:	f8f69ee3          	bne	a3,a5,19d50 <__mulsf3+0x34>
   19db8:	0001b537          	lui	a0,0x1b
   19dbc:	ad850513          	addi	a0,a0,-1320 # 1aad8 <__thenan_sf>
   19dc0:	fa9ff06f          	j	19d68 <__mulsf3+0x4c>
   19dc4:	00f69863          	bne	a3,a5,19dd4 <__mulsf3+0xb8>
   19dc8:	00200793          	li	a5,2
   19dcc:	fef706e3          	beq	a4,a5,19db8 <__mulsf3+0x9c>
   19dd0:	fb1ff06f          	j	19d80 <__mulsf3+0x64>
   19dd4:	00200793          	li	a5,2
   19dd8:	f6f70ce3          	beq	a4,a5,19d50 <__mulsf3+0x34>
   19ddc:	faf682e3          	beq	a3,a5,19d80 <__mulsf3+0x64>
   19de0:	02c16783          	lwu	a5,44(sp)
   19de4:	01c16703          	lwu	a4,28(sp)
   19de8:	02812683          	lw	a3,40(sp)
   19dec:	02412583          	lw	a1,36(sp)
   19df0:	02e78733          	mul	a4,a5,a4
   19df4:	01812783          	lw	a5,24(sp)
   19df8:	00d786bb          	addw	a3,a5,a3
   19dfc:	01412783          	lw	a5,20(sp)
   19e00:	0026861b          	addiw	a2,a3,2
   19e04:	02c12c23          	sw	a2,56(sp)
   19e08:	40b787bb          	subw	a5,a5,a1
   19e0c:	00f037b3          	snez	a5,a5
   19e10:	02f12a23          	sw	a5,52(sp)
   19e14:	42075793          	srai	a5,a4,0x20
   19e18:	0007071b          	sext.w	a4,a4
   19e1c:	0207d263          	bgez	a5,19e40 <__mulsf3+0x124>
   19e20:	03f79613          	slli	a2,a5,0x3f
   19e24:	0036869b          	addiw	a3,a3,3
   19e28:	00065863          	bgez	a2,19e38 <__mulsf3+0x11c>
   19e2c:	0017571b          	srliw	a4,a4,0x1
   19e30:	80000637          	lui	a2,0x80000
   19e34:	00c76733          	or	a4,a4,a2
   19e38:	0017d79b          	srliw	a5,a5,0x1
   19e3c:	02d12c23          	sw	a3,56(sp)
   19e40:	40000637          	lui	a2,0x40000
   19e44:	02c7fa63          	bleu	a2,a5,19e78 <__mulsf3+0x15c>
   19e48:	03812683          	lw	a3,56(sp)
   19e4c:	fff6869b          	addiw	a3,a3,-1
   19e50:	0100006f          	j	19e60 <__mulsf3+0x144>
   19e54:	0017171b          	slliw	a4,a4,0x1
   19e58:	fff6869b          	addiw	a3,a3,-1
   19e5c:	00c7fc63          	bleu	a2,a5,19e74 <__mulsf3+0x158>
   19e60:	0017979b          	slliw	a5,a5,0x1
   19e64:	00068593          	mv	a1,a3
   19e68:	fe0756e3          	bgez	a4,19e54 <__mulsf3+0x138>
   19e6c:	0017e793          	ori	a5,a5,1
   19e70:	fe5ff06f          	j	19e54 <__mulsf3+0x138>
   19e74:	02b12c23          	sw	a1,56(sp)
   19e78:	07f7f613          	andi	a2,a5,127
   19e7c:	04000693          	li	a3,64
   19e80:	00d60c63          	beq	a2,a3,19e98 <__mulsf3+0x17c>
   19e84:	02f12e23          	sw	a5,60(sp)
   19e88:	00300793          	li	a5,3
   19e8c:	02f12823          	sw	a5,48(sp)
   19e90:	03010513          	addi	a0,sp,48
   19e94:	ed5ff06f          	j	19d68 <__mulsf3+0x4c>
   19e98:	03879693          	slli	a3,a5,0x38
   19e9c:	fe06c4e3          	bltz	a3,19e84 <__mulsf3+0x168>
   19ea0:	fe0702e3          	beqz	a4,19e84 <__mulsf3+0x168>
   19ea4:	0407879b          	addiw	a5,a5,64
   19ea8:	f807f793          	andi	a5,a5,-128
   19eac:	fd9ff06f          	j	19e84 <__mulsf3+0x168>

0000000000019eb0 <__divsf3>:
   19eb0:	fc010113          	addi	sp,sp,-64
   19eb4:	00010513          	mv	a0,sp
   19eb8:	01010593          	addi	a1,sp,16
   19ebc:	02113c23          	sd	ra,56(sp)
   19ec0:	00a12027          	fsw	fa0,0(sp)
   19ec4:	00b12427          	fsw	fa1,8(sp)
   19ec8:	ce5ff0ef          	jal	19bac <__unpack_f>
   19ecc:	00810513          	addi	a0,sp,8
   19ed0:	02010593          	addi	a1,sp,32
   19ed4:	cd9ff0ef          	jal	19bac <__unpack_f>
   19ed8:	01012703          	lw	a4,16(sp)
   19edc:	00100793          	li	a5,1
   19ee0:	00e7ec63          	bltu	a5,a4,19ef8 <__divsf3+0x48>
   19ee4:	01010513          	addi	a0,sp,16
   19ee8:	b65ff0ef          	jal	19a4c <__pack_f>
   19eec:	03813083          	ld	ra,56(sp)
   19ef0:	04010113          	addi	sp,sp,64
   19ef4:	00008067          	ret
   19ef8:	02012683          	lw	a3,32(sp)
   19efc:	02010513          	addi	a0,sp,32
   19f00:	fed7f4e3          	bleu	a3,a5,19ee8 <__divsf3+0x38>
   19f04:	01412583          	lw	a1,20(sp)
   19f08:	02412603          	lw	a2,36(sp)
   19f0c:	ffe7079b          	addiw	a5,a4,-2
   19f10:	ffd7f793          	andi	a5,a5,-3
   19f14:	00c5c633          	xor	a2,a1,a2
   19f18:	00c12a23          	sw	a2,20(sp)
   19f1c:	00079a63          	bnez	a5,19f30 <__divsf3+0x80>
   19f20:	fcd712e3          	bne	a4,a3,19ee4 <__divsf3+0x34>
   19f24:	0001b537          	lui	a0,0x1b
   19f28:	ad850513          	addi	a0,a0,-1320 # 1aad8 <__thenan_sf>
   19f2c:	fbdff06f          	j	19ee8 <__divsf3+0x38>
   19f30:	00400793          	li	a5,4
   19f34:	06f68a63          	beq	a3,a5,19fa8 <__divsf3+0xf8>
   19f38:	00200713          	li	a4,2
   19f3c:	06e68e63          	beq	a3,a4,19fb8 <__divsf3+0x108>
   19f40:	01812703          	lw	a4,24(sp)
   19f44:	02812683          	lw	a3,40(sp)
   19f48:	01c12783          	lw	a5,28(sp)
   19f4c:	02c12603          	lw	a2,44(sp)
   19f50:	40d7073b          	subw	a4,a4,a3
   19f54:	00e12c23          	sw	a4,24(sp)
   19f58:	00c7f863          	bleu	a2,a5,19f68 <__divsf3+0xb8>
   19f5c:	fff7071b          	addiw	a4,a4,-1
   19f60:	0017979b          	slliw	a5,a5,0x1
   19f64:	00e12c23          	sw	a4,24(sp)
   19f68:	01f00713          	li	a4,31
   19f6c:	400006b7          	lui	a3,0x40000
   19f70:	00000593          	li	a1,0
   19f74:	fff7071b          	addiw	a4,a4,-1
   19f78:	00c7e663          	bltu	a5,a2,19f84 <__divsf3+0xd4>
   19f7c:	00d5e5b3          	or	a1,a1,a3
   19f80:	40c787bb          	subw	a5,a5,a2
   19f84:	0016d69b          	srliw	a3,a3,0x1
   19f88:	0017979b          	slliw	a5,a5,0x1
   19f8c:	fe0714e3          	bnez	a4,19f74 <__divsf3+0xc4>
   19f90:	07f5f693          	andi	a3,a1,127
   19f94:	04000713          	li	a4,64
   19f98:	02e68463          	beq	a3,a4,19fc0 <__divsf3+0x110>
   19f9c:	00b12e23          	sw	a1,28(sp)
   19fa0:	01010513          	addi	a0,sp,16
   19fa4:	f45ff06f          	j	19ee8 <__divsf3+0x38>
   19fa8:	00012e23          	sw	zero,28(sp)
   19fac:	00012c23          	sw	zero,24(sp)
   19fb0:	01010513          	addi	a0,sp,16
   19fb4:	f35ff06f          	j	19ee8 <__divsf3+0x38>
   19fb8:	00f12823          	sw	a5,16(sp)
   19fbc:	f29ff06f          	j	19ee4 <__divsf3+0x34>
   19fc0:	03859713          	slli	a4,a1,0x38
   19fc4:	fc074ce3          	bltz	a4,19f9c <__divsf3+0xec>
   19fc8:	fc078ae3          	beqz	a5,19f9c <__divsf3+0xec>
   19fcc:	0405859b          	addiw	a1,a1,64
   19fd0:	f805f593          	andi	a1,a1,-128
   19fd4:	fc9ff06f          	j	19f9c <__divsf3+0xec>

0000000000019fd8 <__fpcmp_parts_f>:
   19fd8:	00052703          	lw	a4,0(a0)
   19fdc:	00100793          	li	a5,1
   19fe0:	00050613          	mv	a2,a0
   19fe4:	06e7fe63          	bleu	a4,a5,1a060 <__fpcmp_parts_f+0x88>
   19fe8:	0005a683          	lw	a3,0(a1)
   19fec:	00078513          	mv	a0,a5
   19ff0:	04d7f063          	bleu	a3,a5,1a030 <__fpcmp_parts_f+0x58>
   19ff4:	00400793          	li	a5,4
   19ff8:	04f70863          	beq	a4,a5,1a048 <__fpcmp_parts_f+0x70>
   19ffc:	02f68c63          	beq	a3,a5,1a034 <__fpcmp_parts_f+0x5c>
   1a000:	00200793          	li	a5,2
   1a004:	02f70263          	beq	a4,a5,1a028 <__fpcmp_parts_f+0x50>
   1a008:	04f68263          	beq	a3,a5,1a04c <__fpcmp_parts_f+0x74>
   1a00c:	00462783          	lw	a5,4(a2) # 40000004 <_gp+0x3ffe27a4>
   1a010:	0045a703          	lw	a4,4(a1)
   1a014:	04e78a63          	beq	a5,a4,1a068 <__fpcmp_parts_f+0x90>
   1a018:	00f03533          	snez	a0,a5
   1a01c:	40a0053b          	negw	a0,a0
   1a020:	00156513          	ori	a0,a0,1
   1a024:	00008067          	ret
   1a028:	00e69663          	bne	a3,a4,1a034 <__fpcmp_parts_f+0x5c>
   1a02c:	00000513          	li	a0,0
   1a030:	00008067          	ret
   1a034:	0045a503          	lw	a0,4(a1)
   1a038:	00153513          	seqz	a0,a0
   1a03c:	40a0053b          	negw	a0,a0
   1a040:	00156513          	ori	a0,a0,1
   1a044:	00008067          	ret
   1a048:	04e68a63          	beq	a3,a4,1a09c <__fpcmp_parts_f+0xc4>
   1a04c:	00462503          	lw	a0,4(a2)
   1a050:	00a03533          	snez	a0,a0
   1a054:	40a0053b          	negw	a0,a0
   1a058:	00156513          	ori	a0,a0,1
   1a05c:	00008067          	ret
   1a060:	00078513          	mv	a0,a5
   1a064:	00008067          	ret
   1a068:	00862683          	lw	a3,8(a2)
   1a06c:	0085a703          	lw	a4,8(a1)
   1a070:	fad744e3          	blt	a4,a3,1a018 <__fpcmp_parts_f+0x40>
   1a074:	00e6cc63          	blt	a3,a4,1a08c <__fpcmp_parts_f+0xb4>
   1a078:	00c62683          	lw	a3,12(a2)
   1a07c:	00c5a703          	lw	a4,12(a1)
   1a080:	f8d76ce3          	bltu	a4,a3,1a018 <__fpcmp_parts_f+0x40>
   1a084:	00000513          	li	a0,0
   1a088:	fae6f4e3          	bleu	a4,a3,1a030 <__fpcmp_parts_f+0x58>
   1a08c:	0017b513          	seqz	a0,a5
   1a090:	40a0053b          	negw	a0,a0
   1a094:	00156513          	ori	a0,a0,1
   1a098:	00008067          	ret
   1a09c:	0045a783          	lw	a5,4(a1)
   1a0a0:	00462503          	lw	a0,4(a2)
   1a0a4:	40a7853b          	subw	a0,a5,a0
   1a0a8:	00008067          	ret

000000000001a0ac <__cmpsf2>:
   1a0ac:	fc010113          	addi	sp,sp,-64
   1a0b0:	00010513          	mv	a0,sp
   1a0b4:	01010593          	addi	a1,sp,16
   1a0b8:	02113c23          	sd	ra,56(sp)
   1a0bc:	00a12027          	fsw	fa0,0(sp)
   1a0c0:	00b12427          	fsw	fa1,8(sp)
   1a0c4:	ae9ff0ef          	jal	19bac <__unpack_f>
   1a0c8:	00810513          	addi	a0,sp,8
   1a0cc:	02010593          	addi	a1,sp,32
   1a0d0:	addff0ef          	jal	19bac <__unpack_f>
   1a0d4:	01010513          	addi	a0,sp,16
   1a0d8:	02010593          	addi	a1,sp,32
   1a0dc:	efdff0ef          	jal	19fd8 <__fpcmp_parts_f>
   1a0e0:	03813083          	ld	ra,56(sp)
   1a0e4:	04010113          	addi	sp,sp,64
   1a0e8:	00008067          	ret

000000000001a0ec <__eqsf2>:
   1a0ec:	fc010113          	addi	sp,sp,-64
   1a0f0:	00010513          	mv	a0,sp
   1a0f4:	01010593          	addi	a1,sp,16
   1a0f8:	02113c23          	sd	ra,56(sp)
   1a0fc:	00a12027          	fsw	fa0,0(sp)
   1a100:	00b12427          	fsw	fa1,8(sp)
   1a104:	aa9ff0ef          	jal	19bac <__unpack_f>
   1a108:	00810513          	addi	a0,sp,8
   1a10c:	02010593          	addi	a1,sp,32
   1a110:	a9dff0ef          	jal	19bac <__unpack_f>
   1a114:	01012703          	lw	a4,16(sp)
   1a118:	00100793          	li	a5,1
   1a11c:	00100513          	li	a0,1
   1a120:	00e7fc63          	bleu	a4,a5,1a138 <__eqsf2+0x4c>
   1a124:	02012703          	lw	a4,32(sp)
   1a128:	00e7f863          	bleu	a4,a5,1a138 <__eqsf2+0x4c>
   1a12c:	01010513          	addi	a0,sp,16
   1a130:	02010593          	addi	a1,sp,32
   1a134:	ea5ff0ef          	jal	19fd8 <__fpcmp_parts_f>
   1a138:	03813083          	ld	ra,56(sp)
   1a13c:	04010113          	addi	sp,sp,64
   1a140:	00008067          	ret

000000000001a144 <__nesf2>:
   1a144:	fc010113          	addi	sp,sp,-64
   1a148:	00010513          	mv	a0,sp
   1a14c:	01010593          	addi	a1,sp,16
   1a150:	02113c23          	sd	ra,56(sp)
   1a154:	00a12027          	fsw	fa0,0(sp)
   1a158:	00b12427          	fsw	fa1,8(sp)
   1a15c:	a51ff0ef          	jal	19bac <__unpack_f>
   1a160:	00810513          	addi	a0,sp,8
   1a164:	02010593          	addi	a1,sp,32
   1a168:	a45ff0ef          	jal	19bac <__unpack_f>
   1a16c:	01012703          	lw	a4,16(sp)
   1a170:	00100793          	li	a5,1
   1a174:	00100513          	li	a0,1
   1a178:	00e7fc63          	bleu	a4,a5,1a190 <__nesf2+0x4c>
   1a17c:	02012703          	lw	a4,32(sp)
   1a180:	00e7f863          	bleu	a4,a5,1a190 <__nesf2+0x4c>
   1a184:	01010513          	addi	a0,sp,16
   1a188:	02010593          	addi	a1,sp,32
   1a18c:	e4dff0ef          	jal	19fd8 <__fpcmp_parts_f>
   1a190:	03813083          	ld	ra,56(sp)
   1a194:	04010113          	addi	sp,sp,64
   1a198:	00008067          	ret

000000000001a19c <__gtsf2>:
   1a19c:	fc010113          	addi	sp,sp,-64
   1a1a0:	00010513          	mv	a0,sp
   1a1a4:	01010593          	addi	a1,sp,16
   1a1a8:	02113c23          	sd	ra,56(sp)
   1a1ac:	00a12027          	fsw	fa0,0(sp)
   1a1b0:	00b12427          	fsw	fa1,8(sp)
   1a1b4:	9f9ff0ef          	jal	19bac <__unpack_f>
   1a1b8:	00810513          	addi	a0,sp,8
   1a1bc:	02010593          	addi	a1,sp,32
   1a1c0:	9edff0ef          	jal	19bac <__unpack_f>
   1a1c4:	01012703          	lw	a4,16(sp)
   1a1c8:	00100793          	li	a5,1
   1a1cc:	fff00513          	li	a0,-1
   1a1d0:	00e7fc63          	bleu	a4,a5,1a1e8 <__gtsf2+0x4c>
   1a1d4:	02012703          	lw	a4,32(sp)
   1a1d8:	00e7f863          	bleu	a4,a5,1a1e8 <__gtsf2+0x4c>
   1a1dc:	01010513          	addi	a0,sp,16
   1a1e0:	02010593          	addi	a1,sp,32
   1a1e4:	df5ff0ef          	jal	19fd8 <__fpcmp_parts_f>
   1a1e8:	03813083          	ld	ra,56(sp)
   1a1ec:	04010113          	addi	sp,sp,64
   1a1f0:	00008067          	ret

000000000001a1f4 <__gesf2>:
   1a1f4:	fc010113          	addi	sp,sp,-64
   1a1f8:	00010513          	mv	a0,sp
   1a1fc:	01010593          	addi	a1,sp,16
   1a200:	02113c23          	sd	ra,56(sp)
   1a204:	00a12027          	fsw	fa0,0(sp)
   1a208:	00b12427          	fsw	fa1,8(sp)
   1a20c:	9a1ff0ef          	jal	19bac <__unpack_f>
   1a210:	00810513          	addi	a0,sp,8
   1a214:	02010593          	addi	a1,sp,32
   1a218:	995ff0ef          	jal	19bac <__unpack_f>
   1a21c:	01012703          	lw	a4,16(sp)
   1a220:	00100793          	li	a5,1
   1a224:	fff00513          	li	a0,-1
   1a228:	00e7fc63          	bleu	a4,a5,1a240 <__gesf2+0x4c>
   1a22c:	02012703          	lw	a4,32(sp)
   1a230:	00e7f863          	bleu	a4,a5,1a240 <__gesf2+0x4c>
   1a234:	01010513          	addi	a0,sp,16
   1a238:	02010593          	addi	a1,sp,32
   1a23c:	d9dff0ef          	jal	19fd8 <__fpcmp_parts_f>
   1a240:	03813083          	ld	ra,56(sp)
   1a244:	04010113          	addi	sp,sp,64
   1a248:	00008067          	ret

000000000001a24c <__ltsf2>:
   1a24c:	fc010113          	addi	sp,sp,-64
   1a250:	00010513          	mv	a0,sp
   1a254:	01010593          	addi	a1,sp,16
   1a258:	02113c23          	sd	ra,56(sp)
   1a25c:	00a12027          	fsw	fa0,0(sp)
   1a260:	00b12427          	fsw	fa1,8(sp)
   1a264:	949ff0ef          	jal	19bac <__unpack_f>
   1a268:	00810513          	addi	a0,sp,8
   1a26c:	02010593          	addi	a1,sp,32
   1a270:	93dff0ef          	jal	19bac <__unpack_f>
   1a274:	01012703          	lw	a4,16(sp)
   1a278:	00100793          	li	a5,1
   1a27c:	00100513          	li	a0,1
   1a280:	00e7fc63          	bleu	a4,a5,1a298 <__ltsf2+0x4c>
   1a284:	02012703          	lw	a4,32(sp)
   1a288:	00e7f863          	bleu	a4,a5,1a298 <__ltsf2+0x4c>
   1a28c:	01010513          	addi	a0,sp,16
   1a290:	02010593          	addi	a1,sp,32
   1a294:	d45ff0ef          	jal	19fd8 <__fpcmp_parts_f>
   1a298:	03813083          	ld	ra,56(sp)
   1a29c:	04010113          	addi	sp,sp,64
   1a2a0:	00008067          	ret

000000000001a2a4 <__lesf2>:
   1a2a4:	fc010113          	addi	sp,sp,-64
   1a2a8:	00010513          	mv	a0,sp
   1a2ac:	01010593          	addi	a1,sp,16
   1a2b0:	02113c23          	sd	ra,56(sp)
   1a2b4:	00a12027          	fsw	fa0,0(sp)
   1a2b8:	00b12427          	fsw	fa1,8(sp)
   1a2bc:	8f1ff0ef          	jal	19bac <__unpack_f>
   1a2c0:	00810513          	addi	a0,sp,8
   1a2c4:	02010593          	addi	a1,sp,32
   1a2c8:	8e5ff0ef          	jal	19bac <__unpack_f>
   1a2cc:	01012703          	lw	a4,16(sp)
   1a2d0:	00100793          	li	a5,1
   1a2d4:	00100513          	li	a0,1
   1a2d8:	00e7fc63          	bleu	a4,a5,1a2f0 <__lesf2+0x4c>
   1a2dc:	02012703          	lw	a4,32(sp)
   1a2e0:	00e7f863          	bleu	a4,a5,1a2f0 <__lesf2+0x4c>
   1a2e4:	01010513          	addi	a0,sp,16
   1a2e8:	02010593          	addi	a1,sp,32
   1a2ec:	cedff0ef          	jal	19fd8 <__fpcmp_parts_f>
   1a2f0:	03813083          	ld	ra,56(sp)
   1a2f4:	04010113          	addi	sp,sp,64
   1a2f8:	00008067          	ret

000000000001a2fc <__unordsf2>:
   1a2fc:	fc010113          	addi	sp,sp,-64
   1a300:	00010513          	mv	a0,sp
   1a304:	01010593          	addi	a1,sp,16
   1a308:	02113c23          	sd	ra,56(sp)
   1a30c:	00a12027          	fsw	fa0,0(sp)
   1a310:	00b12427          	fsw	fa1,8(sp)
   1a314:	899ff0ef          	jal	19bac <__unpack_f>
   1a318:	00810513          	addi	a0,sp,8
   1a31c:	02010593          	addi	a1,sp,32
   1a320:	88dff0ef          	jal	19bac <__unpack_f>
   1a324:	01012703          	lw	a4,16(sp)
   1a328:	00100793          	li	a5,1
   1a32c:	00100513          	li	a0,1
   1a330:	00e7f663          	bleu	a4,a5,1a33c <__unordsf2+0x40>
   1a334:	02012503          	lw	a0,32(sp)
   1a338:	00253513          	sltiu	a0,a0,2
   1a33c:	03813083          	ld	ra,56(sp)
   1a340:	04010113          	addi	sp,sp,64
   1a344:	00008067          	ret

000000000001a348 <__floatsisf>:
   1a348:	01f5579b          	srliw	a5,a0,0x1f
   1a34c:	fe010113          	addi	sp,sp,-32
   1a350:	0ff7f793          	andi	a5,a5,255
   1a354:	00300713          	li	a4,3
   1a358:	00113c23          	sd	ra,24(sp)
   1a35c:	00813823          	sd	s0,16(sp)
   1a360:	00e12023          	sw	a4,0(sp)
   1a364:	00f12223          	sw	a5,4(sp)
   1a368:	02051263          	bnez	a0,1a38c <__floatsisf+0x44>
   1a36c:	00200793          	li	a5,2
   1a370:	00f12023          	sw	a5,0(sp)
   1a374:	00010513          	mv	a0,sp
   1a378:	ed4ff0ef          	jal	19a4c <__pack_f>
   1a37c:	01813083          	ld	ra,24(sp)
   1a380:	01013403          	ld	s0,16(sp)
   1a384:	02010113          	addi	sp,sp,32
   1a388:	00008067          	ret
   1a38c:	01e00713          	li	a4,30
   1a390:	00e12423          	sw	a4,8(sp)
   1a394:	02079a63          	bnez	a5,1a3c8 <__floatsisf+0x80>
   1a398:	00050413          	mv	s0,a0
   1a39c:	02041513          	slli	a0,s0,0x20
   1a3a0:	02055513          	srli	a0,a0,0x20
   1a3a4:	c88ff0ef          	jal	1982c <__clzdi2>
   1a3a8:	fdf5079b          	addiw	a5,a0,-33
   1a3ac:	02f05e63          	blez	a5,1a3e8 <__floatsisf+0xa0>
   1a3b0:	01e00713          	li	a4,30
   1a3b4:	00f4153b          	sllw	a0,s0,a5
   1a3b8:	40f707bb          	subw	a5,a4,a5
   1a3bc:	00a12623          	sw	a0,12(sp)
   1a3c0:	00f12423          	sw	a5,8(sp)
   1a3c4:	fb1ff06f          	j	1a374 <__floatsisf+0x2c>
   1a3c8:	800007b7          	lui	a5,0x80000
   1a3cc:	02f50263          	beq	a0,a5,1a3f0 <__floatsisf+0xa8>
   1a3d0:	40a0043b          	negw	s0,a0
   1a3d4:	02041513          	slli	a0,s0,0x20
   1a3d8:	02055513          	srli	a0,a0,0x20
   1a3dc:	c50ff0ef          	jal	1982c <__clzdi2>
   1a3e0:	fdf5079b          	addiw	a5,a0,-33
   1a3e4:	fcf046e3          	bgtz	a5,1a3b0 <__floatsisf+0x68>
   1a3e8:	00812623          	sw	s0,12(sp)
   1a3ec:	f89ff06f          	j	1a374 <__floatsisf+0x2c>
   1a3f0:	8a81a507          	flw	fa0,-1880(gp) # 1d108 <mask+0x10>
   1a3f4:	f89ff06f          	j	1a37c <__floatsisf+0x34>

000000000001a3f8 <__floatunsisf>:
   1a3f8:	fd010113          	addi	sp,sp,-48
   1a3fc:	02813023          	sd	s0,32(sp)
   1a400:	02113423          	sd	ra,40(sp)
   1a404:	00913c23          	sd	s1,24(sp)
   1a408:	00050413          	mv	s0,a0
   1a40c:	00012223          	sw	zero,4(sp)
   1a410:	06050263          	beqz	a0,1a474 <__floatunsisf+0x7c>
   1a414:	02041513          	slli	a0,s0,0x20
   1a418:	00300793          	li	a5,3
   1a41c:	01e00493          	li	s1,30
   1a420:	02055513          	srli	a0,a0,0x20
   1a424:	00f12023          	sw	a5,0(sp)
   1a428:	00912423          	sw	s1,8(sp)
   1a42c:	c00ff0ef          	jal	1982c <__clzdi2>
   1a430:	02051513          	slli	a0,a0,0x20
   1a434:	02055513          	srli	a0,a0,0x20
   1a438:	fe050513          	addi	a0,a0,-32
   1a43c:	fff5079b          	addiw	a5,a0,-1
   1a440:	04050c63          	beqz	a0,1a498 <__floatunsisf+0xa0>
   1a444:	08078463          	beqz	a5,1a4cc <__floatunsisf+0xd4>
   1a448:	00f4143b          	sllw	s0,s0,a5
   1a44c:	40f484bb          	subw	s1,s1,a5
   1a450:	00812623          	sw	s0,12(sp)
   1a454:	00912423          	sw	s1,8(sp)
   1a458:	00010513          	mv	a0,sp
   1a45c:	df0ff0ef          	jal	19a4c <__pack_f>
   1a460:	02813083          	ld	ra,40(sp)
   1a464:	02013403          	ld	s0,32(sp)
   1a468:	01813483          	ld	s1,24(sp)
   1a46c:	03010113          	addi	sp,sp,48
   1a470:	00008067          	ret
   1a474:	00200793          	li	a5,2
   1a478:	00010513          	mv	a0,sp
   1a47c:	00f12023          	sw	a5,0(sp)
   1a480:	dccff0ef          	jal	19a4c <__pack_f>
   1a484:	02813083          	ld	ra,40(sp)
   1a488:	02013403          	ld	s0,32(sp)
   1a48c:	01813483          	ld	s1,24(sp)
   1a490:	03010113          	addi	sp,sp,48
   1a494:	00008067          	ret
   1a498:	0014579b          	srliw	a5,s0,0x1
   1a49c:	00147413          	andi	s0,s0,1
   1a4a0:	0087e433          	or	s0,a5,s0
   1a4a4:	00010513          	mv	a0,sp
   1a4a8:	01f00793          	li	a5,31
   1a4ac:	00812623          	sw	s0,12(sp)
   1a4b0:	00f12423          	sw	a5,8(sp)
   1a4b4:	d98ff0ef          	jal	19a4c <__pack_f>
   1a4b8:	02813083          	ld	ra,40(sp)
   1a4bc:	02013403          	ld	s0,32(sp)
   1a4c0:	01813483          	ld	s1,24(sp)
   1a4c4:	03010113          	addi	sp,sp,48
   1a4c8:	00008067          	ret
   1a4cc:	00812623          	sw	s0,12(sp)
   1a4d0:	f89ff06f          	j	1a458 <__floatunsisf+0x60>

000000000001a4d4 <__fixsfsi>:
   1a4d4:	fd010113          	addi	sp,sp,-48
   1a4d8:	00810513          	addi	a0,sp,8
   1a4dc:	01010593          	addi	a1,sp,16
   1a4e0:	02113423          	sd	ra,40(sp)
   1a4e4:	00a12427          	fsw	fa0,8(sp)
   1a4e8:	ec4ff0ef          	jal	19bac <__unpack_f>
   1a4ec:	01012783          	lw	a5,16(sp)
   1a4f0:	00200713          	li	a4,2
   1a4f4:	06f77263          	bleu	a5,a4,1a558 <__fixsfsi+0x84>
   1a4f8:	00400713          	li	a4,4
   1a4fc:	00e78a63          	beq	a5,a4,1a510 <__fixsfsi+0x3c>
   1a500:	01812783          	lw	a5,24(sp)
   1a504:	0407ca63          	bltz	a5,1a558 <__fixsfsi+0x84>
   1a508:	01e00513          	li	a0,30
   1a50c:	02f55063          	ble	a5,a0,1a52c <__fixsfsi+0x58>
   1a510:	01412783          	lw	a5,20(sp)
   1a514:	80000537          	lui	a0,0x80000
   1a518:	00079463          	bnez	a5,1a520 <__fixsfsi+0x4c>
   1a51c:	fff54513          	not	a0,a0
   1a520:	02813083          	ld	ra,40(sp)
   1a524:	03010113          	addi	sp,sp,48
   1a528:	00008067          	ret
   1a52c:	40f507bb          	subw	a5,a0,a5
   1a530:	01412503          	lw	a0,20(sp)
   1a534:	02813083          	ld	ra,40(sp)
   1a538:	00a03733          	snez	a4,a0
   1a53c:	01c12503          	lw	a0,28(sp)
   1a540:	03010113          	addi	sp,sp,48
   1a544:	00f5553b          	srlw	a0,a0,a5
   1a548:	40e007bb          	negw	a5,a4
   1a54c:	00f547b3          	xor	a5,a0,a5
   1a550:	00e7853b          	addw	a0,a5,a4
   1a554:	00008067          	ret
   1a558:	02813083          	ld	ra,40(sp)
   1a55c:	00000513          	li	a0,0
   1a560:	03010113          	addi	sp,sp,48
   1a564:	00008067          	ret

000000000001a568 <__negsf2>:
   1a568:	fd010113          	addi	sp,sp,-48
   1a56c:	00810513          	addi	a0,sp,8
   1a570:	01010593          	addi	a1,sp,16
   1a574:	02113423          	sd	ra,40(sp)
   1a578:	00a12427          	fsw	fa0,8(sp)
   1a57c:	e30ff0ef          	jal	19bac <__unpack_f>
   1a580:	01412783          	lw	a5,20(sp)
   1a584:	01010513          	addi	a0,sp,16
   1a588:	0017b793          	seqz	a5,a5
   1a58c:	00f12a23          	sw	a5,20(sp)
   1a590:	cbcff0ef          	jal	19a4c <__pack_f>
   1a594:	02813083          	ld	ra,40(sp)
   1a598:	03010113          	addi	sp,sp,48
   1a59c:	00008067          	ret

000000000001a5a0 <__make_fp>:
   1a5a0:	fe010113          	addi	sp,sp,-32
   1a5a4:	00a12023          	sw	a0,0(sp)
   1a5a8:	00010513          	mv	a0,sp
   1a5ac:	00113c23          	sd	ra,24(sp)
   1a5b0:	00b12223          	sw	a1,4(sp)
   1a5b4:	00c12423          	sw	a2,8(sp)
   1a5b8:	00d12623          	sw	a3,12(sp)
   1a5bc:	c90ff0ef          	jal	19a4c <__pack_f>
   1a5c0:	01813083          	ld	ra,24(sp)
   1a5c4:	02010113          	addi	sp,sp,32
   1a5c8:	00008067          	ret

000000000001a5cc <__extendsfdf2>:
   1a5cc:	fd010113          	addi	sp,sp,-48
   1a5d0:	00810513          	addi	a0,sp,8
   1a5d4:	01010593          	addi	a1,sp,16
   1a5d8:	02113423          	sd	ra,40(sp)
   1a5dc:	00a12427          	fsw	fa0,8(sp)
   1a5e0:	dccff0ef          	jal	19bac <__unpack_f>
   1a5e4:	01c16683          	lwu	a3,28(sp)
   1a5e8:	01012503          	lw	a0,16(sp)
   1a5ec:	01412583          	lw	a1,20(sp)
   1a5f0:	01812603          	lw	a2,24(sp)
   1a5f4:	01e69693          	slli	a3,a3,0x1e
   1a5f8:	9bcff0ef          	jal	197b4 <__make_dp>
   1a5fc:	02813083          	ld	ra,40(sp)
   1a600:	03010113          	addi	sp,sp,48
   1a604:	00008067          	ret

000000000001a608 <__errno>:
   1a608:	8101b503          	ld	a0,-2032(gp) # 1d070 <_impure_ptr>
   1a60c:	00008067          	ret
