
bm.riscv:     file format elf64-littleriscv


Disassembly of section .text:

0000000000010000 <_ftext>:
   10000:	0000e197          	auipc	gp,0xe
   10004:	86018193          	addi	gp,gp,-1952 # 1d860 <_gp>
   10008:	0000d297          	auipc	t0,0xd
   1000c:	10828293          	addi	t0,t0,264 # 1d110 <_PathLocale>
   10010:	0000d317          	auipc	t1,0xd
   10014:	1a030313          	addi	t1,t1,416 # 1d1b0 <_end>
   10018:	0002b023          	sd	zero,0(t0)
   1001c:	00828293          	addi	t0,t0,8
   10020:	fe62ece3          	bltu	t0,t1,10018 <_ftext+0x18>
   10024:	00000517          	auipc	a0,0x0
   10028:	2cc50513          	addi	a0,a0,716 # 102f0 <__libc_fini_array>
   1002c:	1e0000ef          	jal	1020c <atexit>
   10030:	220000ef          	jal	10250 <__libc_init_array>
   10034:	00012503          	lw	a0,0(sp)
   10038:	00810593          	addi	a1,sp,8
   1003c:	00000613          	li	a2,0
   10040:	0f8000ef          	jal	10138 <main>
   10044:	1dc0006f          	j	10220 <exit>

0000000000010048 <_fini>:
   10048:	00008067          	ret

000000000001004c <deregister_tm_clones>:
   1004c:	80018713          	addi	a4,gp,-2048 # 1d060 <_edata>
   10050:	80718793          	addi	a5,gp,-2041 # 1d067 <_edata+0x7>
   10054:	40e787b3          	sub	a5,a5,a4
   10058:	00e00713          	li	a4,14
   1005c:	00f77a63          	bleu	a5,a4,10070 <deregister_tm_clones+0x24>
   10060:	00000293          	li	t0,0
   10064:	00028663          	beqz	t0,10070 <deregister_tm_clones+0x24>
   10068:	80018513          	addi	a0,gp,-2048 # 1d060 <_edata>
   1006c:	00028067          	jr	t0
   10070:	00008067          	ret

0000000000010074 <register_tm_clones>:
   10074:	80018593          	addi	a1,gp,-2048 # 1d060 <_edata>
   10078:	80018793          	addi	a5,gp,-2048 # 1d060 <_edata>
   1007c:	40b787b3          	sub	a5,a5,a1
   10080:	4037d793          	srai	a5,a5,0x3
   10084:	03f7d593          	srli	a1,a5,0x3f
   10088:	00f585b3          	add	a1,a1,a5
   1008c:	4015d593          	srai	a1,a1,0x1
   10090:	00058a63          	beqz	a1,100a4 <register_tm_clones+0x30>
   10094:	00000293          	li	t0,0
   10098:	00028663          	beqz	t0,100a4 <register_tm_clones+0x30>
   1009c:	80018513          	addi	a0,gp,-2048 # 1d060 <_edata>
   100a0:	00028067          	jr	t0
   100a4:	00008067          	ret

00000000000100a8 <__do_global_dtors_aux>:
   100a8:	ff010113          	addi	sp,sp,-16
   100ac:	00813023          	sd	s0,0(sp)
   100b0:	8e01c783          	lbu	a5,-1824(gp) # 1d140 <_bss_start>
   100b4:	00113423          	sd	ra,8(sp)
   100b8:	02079263          	bnez	a5,100dc <__do_global_dtors_aux+0x34>
   100bc:	f91ff0ef          	jal	1004c <deregister_tm_clones>
   100c0:	00000793          	li	a5,0
   100c4:	00078863          	beqz	a5,100d4 <__do_global_dtors_aux+0x2c>
   100c8:	0001b537          	lui	a0,0x1b
   100cc:	c8850513          	addi	a0,a0,-888 # 1ac88 <__fini_array_end>
   100d0:	f31ef0ef          	jal	0 <_ftext-0x10000>
   100d4:	00100793          	li	a5,1
   100d8:	8ef18023          	sb	a5,-1824(gp) # 1d140 <_bss_start>
   100dc:	00813083          	ld	ra,8(sp)
   100e0:	00013403          	ld	s0,0(sp)
   100e4:	01010113          	addi	sp,sp,16
   100e8:	00008067          	ret

00000000000100ec <frame_dummy>:
   100ec:	ff010113          	addi	sp,sp,-16
   100f0:	00000793          	li	a5,0
   100f4:	00113423          	sd	ra,8(sp)
   100f8:	00078a63          	beqz	a5,1010c <frame_dummy+0x20>
   100fc:	0001b537          	lui	a0,0x1b
   10100:	c8850513          	addi	a0,a0,-888 # 1ac88 <__fini_array_end>
   10104:	8e818593          	addi	a1,gp,-1816 # 1d148 <object.2878>
   10108:	ef9ef0ef          	jal	0 <_ftext-0x10000>
   1010c:	0001c537          	lui	a0,0x1c
   10110:	0d850513          	addi	a0,a0,216 # 1c0d8 <__JCR_END__>
   10114:	00053783          	ld	a5,0(a0)
   10118:	00079863          	bnez	a5,10128 <frame_dummy+0x3c>
   1011c:	00813083          	ld	ra,8(sp)
   10120:	01010113          	addi	sp,sp,16
   10124:	f51ff06f          	j	10074 <register_tm_clones>
   10128:	00000793          	li	a5,0
   1012c:	fe0788e3          	beqz	a5,1011c <frame_dummy+0x30>
   10130:	000780e7          	jalr	a5
   10134:	fe9ff06f          	j	1011c <frame_dummy+0x30>

0000000000010138 <main>:
   10138:	fd010113          	addi	sp,sp,-48
   1013c:	02113423          	sd	ra,40(sp)
   10140:	02813023          	sd	s0,32(sp)
   10144:	00913c23          	sd	s1,24(sp)
   10148:	01213823          	sd	s2,16(sp)
   1014c:	03010413          	addi	s0,sp,48
   10150:	00000913          	li	s2,0
   10154:	00000493          	li	s1,0
   10158:	fc042e23          	sw	zero,-36(s0)
   1015c:	06c0006f          	j	101c8 <main+0x90>
   10160:	290000ef          	jal	103f0 <rand>
   10164:	fca42c23          	sw	a0,-40(s0)
   10168:	fd842783          	lw	a5,-40(s0)
   1016c:	0017f793          	andi	a5,a5,1
   10170:	00078663          	beqz	a5,1017c <main+0x44>
   10174:	0019091b          	addiw	s2,s2,1
   10178:	0080006f          	j	10180 <main+0x48>
   1017c:	0014849b          	addiw	s1,s1,1
   10180:	00a00793          	li	a5,10
   10184:	02f947bb          	divw	a5,s2,a5
   10188:	00078913          	mv	s2,a5
   1018c:	00a00793          	li	a5,10
   10190:	02f4c7bb          	divw	a5,s1,a5
   10194:	00078493          	mv	s1,a5
   10198:	0299493b          	divw	s2,s2,s1
   1019c:	0099093b          	addw	s2,s2,s1
   101a0:	0324c4bb          	divw	s1,s1,s2
   101a4:	0014849b          	addiw	s1,s1,1
   101a8:	4099093b          	subw	s2,s2,s1
   101ac:	244000ef          	jal	103f0 <rand>
   101b0:	00050913          	mv	s2,a0
   101b4:	23c000ef          	jal	103f0 <rand>
   101b8:	00050493          	mv	s1,a0
   101bc:	fdc42783          	lw	a5,-36(s0)
   101c0:	0017879b          	addiw	a5,a5,1
   101c4:	fcf42e23          	sw	a5,-36(s0)
   101c8:	fdc42703          	lw	a4,-36(s0)
   101cc:	000027b7          	lui	a5,0x2
   101d0:	70f7879b          	addiw	a5,a5,1807
   101d4:	f8e7d6e3          	ble	a4,a5,10160 <main+0x28>
   101d8:	0001a7b7          	lui	a5,0x1a
   101dc:	61078513          	addi	a0,a5,1552 # 1a610 <__errno+0x8>
   101e0:	00090593          	mv	a1,s2
   101e4:	00048613          	mv	a2,s1
   101e8:	1a4000ef          	jal	1038c <printf>
   101ec:	00000793          	li	a5,0
   101f0:	00078513          	mv	a0,a5
   101f4:	02813083          	ld	ra,40(sp)
   101f8:	02013403          	ld	s0,32(sp)
   101fc:	01813483          	ld	s1,24(sp)
   10200:	01013903          	ld	s2,16(sp)
   10204:	03010113          	addi	sp,sp,48
   10208:	00008067          	ret

000000000001020c <atexit>:
   1020c:	00050593          	mv	a1,a0
   10210:	00000613          	li	a2,0
   10214:	00000513          	li	a0,0
   10218:	00000693          	li	a3,0
   1021c:	5710106f          	j	11f8c <__register_exitproc>

0000000000010220 <exit>:
   10220:	ff010113          	addi	sp,sp,-16
   10224:	00000593          	li	a1,0
   10228:	00813023          	sd	s0,0(sp)
   1022c:	00113423          	sd	ra,8(sp)
   10230:	00050413          	mv	s0,a0
   10234:	65d010ef          	jal	12090 <__call_exitprocs>
   10238:	8081b503          	ld	a0,-2040(gp) # 1d068 <_global_impure_ptr>
   1023c:	05853783          	ld	a5,88(a0)
   10240:	00078463          	beqz	a5,10248 <exit+0x28>
   10244:	000780e7          	jalr	a5
   10248:	00040513          	mv	a0,s0
   1024c:	035080ef          	jal	18a80 <_exit>

0000000000010250 <__libc_init_array>:
   10250:	fe010113          	addi	sp,sp,-32
   10254:	00813823          	sd	s0,16(sp)
   10258:	0001b7b7          	lui	a5,0x1b
   1025c:	0001b437          	lui	s0,0x1b
   10260:	01213023          	sd	s2,0(sp)
   10264:	c7878793          	addi	a5,a5,-904 # 1ac78 <_etext>
   10268:	c7840913          	addi	s2,s0,-904 # 1ac78 <_etext>
   1026c:	41278933          	sub	s2,a5,s2
   10270:	40395913          	srai	s2,s2,0x3
   10274:	00913423          	sd	s1,8(sp)
   10278:	00113c23          	sd	ra,24(sp)
   1027c:	c7840413          	addi	s0,s0,-904
   10280:	00000493          	li	s1,0
   10284:	00090c63          	beqz	s2,1029c <__libc_init_array+0x4c>
   10288:	00043783          	ld	a5,0(s0)
   1028c:	00148493          	addi	s1,s1,1
   10290:	00840413          	addi	s0,s0,8
   10294:	000780e7          	jalr	a5
   10298:	fe9918e3          	bne	s2,s1,10288 <__libc_init_array+0x38>
   1029c:	0001b437          	lui	s0,0x1b
   102a0:	da9ff0ef          	jal	10048 <_fini>
   102a4:	0001b7b7          	lui	a5,0x1b
   102a8:	c7840913          	addi	s2,s0,-904 # 1ac78 <_etext>
   102ac:	c8078793          	addi	a5,a5,-896 # 1ac80 <__init_array_end>
   102b0:	41278933          	sub	s2,a5,s2
   102b4:	40395913          	srai	s2,s2,0x3
   102b8:	c7840413          	addi	s0,s0,-904
   102bc:	00000493          	li	s1,0
   102c0:	00090c63          	beqz	s2,102d8 <__libc_init_array+0x88>
   102c4:	00043783          	ld	a5,0(s0)
   102c8:	00148493          	addi	s1,s1,1
   102cc:	00840413          	addi	s0,s0,8
   102d0:	000780e7          	jalr	a5
   102d4:	fe9918e3          	bne	s2,s1,102c4 <__libc_init_array+0x74>
   102d8:	01813083          	ld	ra,24(sp)
   102dc:	01013403          	ld	s0,16(sp)
   102e0:	00813483          	ld	s1,8(sp)
   102e4:	00013903          	ld	s2,0(sp)
   102e8:	02010113          	addi	sp,sp,32
   102ec:	00008067          	ret

00000000000102f0 <__libc_fini_array>:
   102f0:	fe010113          	addi	sp,sp,-32
   102f4:	00813823          	sd	s0,16(sp)
   102f8:	0001b7b7          	lui	a5,0x1b
   102fc:	0001b437          	lui	s0,0x1b
   10300:	c8040413          	addi	s0,s0,-896 # 1ac80 <__init_array_end>
   10304:	c8878793          	addi	a5,a5,-888 # 1ac88 <__fini_array_end>
   10308:	408787b3          	sub	a5,a5,s0
   1030c:	00913423          	sd	s1,8(sp)
   10310:	4037d493          	srai	s1,a5,0x3
   10314:	00113c23          	sd	ra,24(sp)
   10318:	00878433          	add	s0,a5,s0
   1031c:	00048c63          	beqz	s1,10334 <__libc_fini_array+0x44>
   10320:	ff843783          	ld	a5,-8(s0)
   10324:	fff48493          	addi	s1,s1,-1
   10328:	ff840413          	addi	s0,s0,-8
   1032c:	000780e7          	jalr	a5
   10330:	fe0498e3          	bnez	s1,10320 <__libc_fini_array+0x30>
   10334:	01813083          	ld	ra,24(sp)
   10338:	01013403          	ld	s0,16(sp)
   1033c:	00813483          	ld	s1,8(sp)
   10340:	02010113          	addi	sp,sp,32
   10344:	d05ff06f          	j	10048 <_fini>

0000000000010348 <_printf_r>:
   10348:	fb010113          	addi	sp,sp,-80
   1034c:	02c13023          	sd	a2,32(sp)
   10350:	02d13423          	sd	a3,40(sp)
   10354:	02f13c23          	sd	a5,56(sp)
   10358:	02e13823          	sd	a4,48(sp)
   1035c:	05013023          	sd	a6,64(sp)
   10360:	05113423          	sd	a7,72(sp)
   10364:	00058613          	mv	a2,a1
   10368:	01053583          	ld	a1,16(a0)
   1036c:	02010793          	addi	a5,sp,32
   10370:	00078693          	mv	a3,a5
   10374:	00113c23          	sd	ra,24(sp)
   10378:	00f13423          	sd	a5,8(sp)
   1037c:	098000ef          	jal	10414 <_vfprintf_r>
   10380:	01813083          	ld	ra,24(sp)
   10384:	05010113          	addi	sp,sp,80
   10388:	00008067          	ret

000000000001038c <printf>:
   1038c:	8101b283          	ld	t0,-2032(gp) # 1d070 <_impure_ptr>
   10390:	fa010113          	addi	sp,sp,-96
   10394:	02c13823          	sd	a2,48(sp)
   10398:	02d13c23          	sd	a3,56(sp)
   1039c:	04f13423          	sd	a5,72(sp)
   103a0:	02b13423          	sd	a1,40(sp)
   103a4:	04e13023          	sd	a4,64(sp)
   103a8:	05013823          	sd	a6,80(sp)
   103ac:	05113c23          	sd	a7,88(sp)
   103b0:	0102b583          	ld	a1,16(t0)
   103b4:	02810793          	addi	a5,sp,40
   103b8:	00050613          	mv	a2,a0
   103bc:	00078693          	mv	a3,a5
   103c0:	00028513          	mv	a0,t0
   103c4:	00113c23          	sd	ra,24(sp)
   103c8:	00f13423          	sd	a5,8(sp)
   103cc:	048000ef          	jal	10414 <_vfprintf_r>
   103d0:	01813083          	ld	ra,24(sp)
   103d4:	06010113          	addi	sp,sp,96
   103d8:	00008067          	ret

00000000000103dc <srand>:
   103dc:	8101b783          	ld	a5,-2032(gp) # 1d070 <_impure_ptr>
   103e0:	02051513          	slli	a0,a0,0x20
   103e4:	02055513          	srli	a0,a0,0x20
   103e8:	0ea7b423          	sd	a0,232(a5)
   103ec:	00008067          	ret

00000000000103f0 <rand>:
   103f0:	8101b703          	ld	a4,-2032(gp) # 1d070 <_impure_ptr>
   103f4:	8381b683          	ld	a3,-1992(gp) # 1d098 <__wctomb+0x8>
   103f8:	0e873783          	ld	a5,232(a4)
   103fc:	02d787b3          	mul	a5,a5,a3
   10400:	00178793          	addi	a5,a5,1
   10404:	00179513          	slli	a0,a5,0x1
   10408:	0ef73423          	sd	a5,232(a4)
   1040c:	02155513          	srli	a0,a0,0x21
   10410:	00008067          	ret

0000000000010414 <_vfprintf_r>:
   10414:	a3010113          	addi	sp,sp,-1488
   10418:	5c113423          	sd	ra,1480(sp)
   1041c:	5b213823          	sd	s2,1456(sp)
   10420:	5b413023          	sd	s4,1440(sp)
   10424:	59513c23          	sd	s5,1432(sp)
   10428:	00058913          	mv	s2,a1
   1042c:	00060a13          	mv	s4,a2
   10430:	02d13423          	sd	a3,40(sp)
   10434:	5c813023          	sd	s0,1472(sp)
   10438:	5a913c23          	sd	s1,1464(sp)
   1043c:	5b313423          	sd	s3,1448(sp)
   10440:	59613823          	sd	s6,1424(sp)
   10444:	59713423          	sd	s7,1416(sp)
   10448:	59813023          	sd	s8,1408(sp)
   1044c:	57913c23          	sd	s9,1400(sp)
   10450:	57a13823          	sd	s10,1392(sp)
   10454:	57b13423          	sd	s11,1384(sp)
   10458:	54813c27          	fsd	fs0,1368(sp)
   1045c:	00050a93          	mv	s5,a0
   10460:	531030ef          	jal	14190 <_localeconv_r>
   10464:	00053503          	ld	a0,0(a0)
   10468:	02a13c23          	sd	a0,56(sp)
   1046c:	515050ef          	jal	16180 <strlen>
   10470:	04a13823          	sd	a0,80(sp)
   10474:	000a8663          	beqz	s5,10480 <_vfprintf_r+0x6c>
   10478:	050aa783          	lw	a5,80(s5)
   1047c:	70078a63          	beqz	a5,10b90 <_vfprintf_r+0x77c>
   10480:	01091703          	lh	a4,16(s2)
   10484:	03071793          	slli	a5,a4,0x30
   10488:	0307d793          	srli	a5,a5,0x30
   1048c:	03279293          	slli	t0,a5,0x32
   10490:	0202ca63          	bltz	t0,104c4 <_vfprintf_r+0xb0>
   10494:	0a492683          	lw	a3,164(s2)
   10498:	000027b7          	lui	a5,0x2
   1049c:	00f76733          	or	a4,a4,a5
   104a0:	ffffe7b7          	lui	a5,0xffffe
   104a4:	0107171b          	slliw	a4,a4,0x10
   104a8:	fff7879b          	addiw	a5,a5,-1
   104ac:	4107571b          	sraiw	a4,a4,0x10
   104b0:	00f6f7b3          	and	a5,a3,a5
   104b4:	0af92223          	sw	a5,164(s2)
   104b8:	03071793          	slli	a5,a4,0x30
   104bc:	00e91823          	sh	a4,16(s2)
   104c0:	0307d793          	srli	a5,a5,0x30
   104c4:	0087f693          	andi	a3,a5,8
   104c8:	56068e63          	beqz	a3,10a44 <_vfprintf_r+0x630>
   104cc:	01893683          	ld	a3,24(s2)
   104d0:	56068a63          	beqz	a3,10a44 <_vfprintf_r+0x630>
   104d4:	01a7f793          	andi	a5,a5,26
   104d8:	00a00693          	li	a3,10
   104dc:	58d78863          	beq	a5,a3,10a6c <_vfprintf_r+0x658>
   104e0:	0d010293          	addi	t0,sp,208
   104e4:	00513823          	sd	t0,16(sp)
   104e8:	01013603          	ld	a2,16(sp)
   104ec:	0cf10293          	addi	t0,sp,207
   104f0:	15010693          	addi	a3,sp,336
   104f4:	405607b3          	sub	a5,a2,t0
   104f8:	0001a737          	lui	a4,0x1a
   104fc:	00513423          	sd	t0,8(sp)
   10500:	04013c23          	sd	zero,88(sp)
   10504:	08d13c23          	sd	a3,152(sp)
   10508:	0a012223          	sw	zero,164(sp)
   1050c:	0a012023          	sw	zero,160(sp)
   10510:	04012223          	sw	zero,68(sp)
   10514:	06013023          	sd	zero,96(sp)
   10518:	06012423          	sw	zero,104(sp)
   1051c:	02012823          	sw	zero,48(sp)
   10520:	00068893          	mv	a7,a3
   10524:	79070b13          	addi	s6,a4,1936 # 1a790 <blanks.3949>
   10528:	06f12623          	sw	a5,108(sp)
   1052c:	000a4783          	lbu	a5,0(s4)
   10530:	4c078c63          	beqz	a5,10a08 <_vfprintf_r+0x5f4>
   10534:	02500713          	li	a4,37
   10538:	000a0413          	mv	s0,s4
   1053c:	00e79663          	bne	a5,a4,10548 <_vfprintf_r+0x134>
   10540:	0580006f          	j	10598 <_vfprintf_r+0x184>
   10544:	00e78863          	beq	a5,a4,10554 <_vfprintf_r+0x140>
   10548:	00140413          	addi	s0,s0,1
   1054c:	00044783          	lbu	a5,0(s0)
   10550:	fe079ae3          	bnez	a5,10544 <_vfprintf_r+0x130>
   10554:	414404bb          	subw	s1,s0,s4
   10558:	04048063          	beqz	s1,10598 <_vfprintf_r+0x184>
   1055c:	0a412703          	lw	a4,164(sp)
   10560:	0a012783          	lw	a5,160(sp)
   10564:	00048693          	mv	a3,s1
   10568:	0097073b          	addw	a4,a4,s1
   1056c:	0017879b          	addiw	a5,a5,1
   10570:	0ae12223          	sw	a4,164(sp)
   10574:	00700713          	li	a4,7
   10578:	0148b023          	sd	s4,0(a7)
   1057c:	00d8b423          	sd	a3,8(a7)
   10580:	0af12023          	sw	a5,160(sp)
   10584:	01088893          	addi	a7,a7,16
   10588:	5cf74063          	blt	a4,a5,10b48 <_vfprintf_r+0x734>
   1058c:	03012283          	lw	t0,48(sp)
   10590:	009282bb          	addw	t0,t0,s1
   10594:	02512823          	sw	t0,48(sp)
   10598:	00044783          	lbu	a5,0(s0)
   1059c:	5c078463          	beqz	a5,10b64 <_vfprintf_r+0x750>
   105a0:	00140413          	addi	s0,s0,1
   105a4:	06010ba3          	sb	zero,119(sp)
   105a8:	00000593          	li	a1,0
   105ac:	fff00d93          	li	s11,-1
   105b0:	00012e23          	sw	zero,28(sp)
   105b4:	00000b93          	li	s7,0
   105b8:	05800693          	li	a3,88
   105bc:	00900613          	li	a2,9
   105c0:	02a00513          	li	a0,42
   105c4:	00044c03          	lbu	s8,0(s0)
   105c8:	00140a13          	addi	s4,s0,1
   105cc:	fe0c079b          	addiw	a5,s8,-32
   105d0:	10f6eee3          	bltu	a3,a5,10eec <_vfprintf_r+0xad8>
   105d4:	02079793          	slli	a5,a5,0x20
   105d8:	0207d793          	srli	a5,a5,0x20
   105dc:	0001a737          	lui	a4,0x1a
   105e0:	00279793          	slli	a5,a5,0x2
   105e4:	62870713          	addi	a4,a4,1576 # 1a628 <__errno+0x20>
   105e8:	00e787b3          	add	a5,a5,a4
   105ec:	0007a783          	lw	a5,0(a5) # ffffffffffffe000 <_gp+0xfffffffffffe07a0>
   105f0:	00078067          	jr	a5
   105f4:	010beb93          	ori	s7,s7,16
   105f8:	000a0413          	mv	s0,s4
   105fc:	fc9ff06f          	j	105c4 <_vfprintf_r+0x1b0>
   10600:	010beb93          	ori	s7,s7,16
   10604:	03bb9613          	slli	a2,s7,0x3b
   10608:	02813783          	ld	a5,40(sp)
   1060c:	5a064463          	bltz	a2,10bb4 <_vfprintf_r+0x7a0>
   10610:	039b9713          	slli	a4,s7,0x39
   10614:	00074463          	bltz	a4,1061c <_vfprintf_r+0x208>
   10618:	1380106f          	j	11750 <_vfprintf_r+0x133c>
   1061c:	02813803          	ld	a6,40(sp)
   10620:	0007d703          	lhu	a4,0(a5)
   10624:	00000793          	li	a5,0
   10628:	00880813          	addi	a6,a6,8
   1062c:	03013423          	sd	a6,40(sp)
   10630:	0340006f          	j	10664 <_vfprintf_r+0x250>
   10634:	010beb93          	ori	s7,s7,16
   10638:	03bb9613          	slli	a2,s7,0x3b
   1063c:	02813783          	ld	a5,40(sp)
   10640:	54064e63          	bltz	a2,10b9c <_vfprintf_r+0x788>
   10644:	039b9713          	slli	a4,s7,0x39
   10648:	00074463          	bltz	a4,10650 <_vfprintf_r+0x23c>
   1064c:	0ec0106f          	j	11738 <_vfprintf_r+0x1324>
   10650:	02813803          	ld	a6,40(sp)
   10654:	0007d703          	lhu	a4,0(a5)
   10658:	00100793          	li	a5,1
   1065c:	00880813          	addi	a6,a6,8
   10660:	03013423          	sd	a6,40(sp)
   10664:	06010ba3          	sb	zero,119(sp)
   10668:	05b12023          	sw	s11,64(sp)
   1066c:	00000593          	li	a1,0
   10670:	000dc463          	bltz	s11,10678 <_vfprintf_r+0x264>
   10674:	f7fbfb93          	andi	s7,s7,-129
   10678:	18071ee3          	bnez	a4,11014 <_vfprintf_r+0xc00>
   1067c:	4e0d84e3          	beqz	s11,11364 <_vfprintf_r+0xf50>
   10680:	00100693          	li	a3,1
   10684:	70d784e3          	beq	a5,a3,1158c <_vfprintf_r+0x1178>
   10688:	00200693          	li	a3,2
   1068c:	52d790e3          	bne	a5,a3,113ac <_vfprintf_r+0xf98>
   10690:	06013683          	ld	a3,96(sp)
   10694:	0d010413          	addi	s0,sp,208
   10698:	00f77793          	andi	a5,a4,15
   1069c:	00f687b3          	add	a5,a3,a5
   106a0:	0007c783          	lbu	a5,0(a5)
   106a4:	fff40413          	addi	s0,s0,-1
   106a8:	00475713          	srli	a4,a4,0x4
   106ac:	00f40023          	sb	a5,0(s0)
   106b0:	fe0714e3          	bnez	a4,10698 <_vfprintf_r+0x284>
   106b4:	01013283          	ld	t0,16(sp)
   106b8:	40828cb3          	sub	s9,t0,s0
   106bc:	03912223          	sw	s9,36(sp)
   106c0:	02412983          	lw	s3,36(sp)
   106c4:	01b9d463          	ble	s11,s3,106cc <_vfprintf_r+0x2b8>
   106c8:	000d8993          	mv	s3,s11
   106cc:	03312023          	sw	s3,32(sp)
   106d0:	00058863          	beqz	a1,106e0 <_vfprintf_r+0x2cc>
   106d4:	02012703          	lw	a4,32(sp)
   106d8:	0017071b          	addiw	a4,a4,1
   106dc:	02e12023          	sw	a4,32(sp)
   106e0:	002bfd93          	andi	s11,s7,2
   106e4:	000d8863          	beqz	s11,106f4 <_vfprintf_r+0x2e0>
   106e8:	02012783          	lw	a5,32(sp)
   106ec:	0027879b          	addiw	a5,a5,2
   106f0:	02f12023          	sw	a5,32(sp)
   106f4:	084bf813          	andi	a6,s7,132
   106f8:	03012a23          	sw	a6,52(sp)
   106fc:	00081ae3          	bnez	a6,10f10 <_vfprintf_r+0xafc>
   10700:	01c12283          	lw	t0,28(sp)
   10704:	02012683          	lw	a3,32(sp)
   10708:	40d284bb          	subw	s1,t0,a3
   1070c:	009052e3          	blez	s1,10f10 <_vfprintf_r+0xafc>
   10710:	01000793          	li	a5,16
   10714:	0a412703          	lw	a4,164(sp)
   10718:	0097c463          	blt	a5,s1,10720 <_vfprintf_r+0x30c>
   1071c:	37c0106f          	j	11a98 <_vfprintf_r+0x1684>
   10720:	01000c93          	li	s9,16
   10724:	0a012783          	lw	a5,160(sp)
   10728:	05613423          	sd	s6,72(sp)
   1072c:	00700d13          	li	s10,7
   10730:	000c8993          	mv	s3,s9
   10734:	00c0006f          	j	10740 <_vfprintf_r+0x32c>
   10738:	ff04849b          	addiw	s1,s1,-16
   1073c:	0499d663          	ble	s1,s3,10788 <_vfprintf_r+0x374>
   10740:	0107071b          	addiw	a4,a4,16
   10744:	0017879b          	addiw	a5,a5,1
   10748:	0168b023          	sd	s6,0(a7)
   1074c:	0198b423          	sd	s9,8(a7)
   10750:	0ae12223          	sw	a4,164(sp)
   10754:	0af12023          	sw	a5,160(sp)
   10758:	01088893          	addi	a7,a7,16
   1075c:	fcfd5ee3          	ble	a5,s10,10738 <_vfprintf_r+0x324>
   10760:	000a8513          	mv	a0,s5
   10764:	00090593          	mv	a1,s2
   10768:	09810613          	addi	a2,sp,152
   1076c:	3cd050ef          	jal	16338 <__sprint_r>
   10770:	40051663          	bnez	a0,10b7c <_vfprintf_r+0x768>
   10774:	ff04849b          	addiw	s1,s1,-16
   10778:	0a412703          	lw	a4,164(sp)
   1077c:	0a012783          	lw	a5,160(sp)
   10780:	15010893          	addi	a7,sp,336
   10784:	fa99cee3          	blt	s3,s1,10740 <_vfprintf_r+0x32c>
   10788:	04813803          	ld	a6,72(sp)
   1078c:	00e4873b          	addw	a4,s1,a4
   10790:	0017879b          	addiw	a5,a5,1
   10794:	00700693          	li	a3,7
   10798:	0108b023          	sd	a6,0(a7)
   1079c:	0098b423          	sd	s1,8(a7)
   107a0:	0ae12223          	sw	a4,164(sp)
   107a4:	0af12023          	sw	a5,160(sp)
   107a8:	01088893          	addi	a7,a7,16
   107ac:	76f6d663          	ble	a5,a3,10f18 <_vfprintf_r+0xb04>
   107b0:	000a8513          	mv	a0,s5
   107b4:	00090593          	mv	a1,s2
   107b8:	09810613          	addi	a2,sp,152
   107bc:	37d050ef          	jal	16338 <__sprint_r>
   107c0:	3a051e63          	bnez	a0,10b7c <_vfprintf_r+0x768>
   107c4:	07714683          	lbu	a3,119(sp)
   107c8:	0a412703          	lw	a4,164(sp)
   107cc:	0a012783          	lw	a5,160(sp)
   107d0:	15010893          	addi	a7,sp,336
   107d4:	74069663          	bnez	a3,10f20 <_vfprintf_r+0xb0c>
   107d8:	020d8863          	beqz	s11,10808 <_vfprintf_r+0x3f4>
   107dc:	07810693          	addi	a3,sp,120
   107e0:	00d8b023          	sd	a3,0(a7)
   107e4:	00200693          	li	a3,2
   107e8:	00d8b423          	sd	a3,8(a7)
   107ec:	0027071b          	addiw	a4,a4,2
   107f0:	0017879b          	addiw	a5,a5,1
   107f4:	00700693          	li	a3,7
   107f8:	0ae12223          	sw	a4,164(sp)
   107fc:	0af12023          	sw	a5,160(sp)
   10800:	01088893          	addi	a7,a7,16
   10804:	38f6c2e3          	blt	a3,a5,11388 <_vfprintf_r+0xf74>
   10808:	03412283          	lw	t0,52(sp)
   1080c:	08000693          	li	a3,128
   10810:	14d28ee3          	beq	t0,a3,1116c <_vfprintf_r+0xd58>
   10814:	04012803          	lw	a6,64(sp)
   10818:	02412283          	lw	t0,36(sp)
   1081c:	40580d3b          	subw	s10,a6,t0
   10820:	0da05063          	blez	s10,108e0 <_vfprintf_r+0x4cc>
   10824:	0001a337          	lui	t1,0x1a
   10828:	01000693          	li	a3,16
   1082c:	7a030993          	addi	s3,t1,1952 # 1a7a0 <zeroes.3950>
   10830:	07a6d663          	ble	s10,a3,1089c <_vfprintf_r+0x488>
   10834:	01000d93          	li	s11,16
   10838:	0001a337          	lui	t1,0x1a
   1083c:	7a030993          	addi	s3,t1,1952 # 1a7a0 <zeroes.3950>
   10840:	00700493          	li	s1,7
   10844:	000d8c93          	mv	s9,s11
   10848:	00c0006f          	j	10854 <_vfprintf_r+0x440>
   1084c:	ff0d0d1b          	addiw	s10,s10,-16
   10850:	05acd663          	ble	s10,s9,1089c <_vfprintf_r+0x488>
   10854:	0107071b          	addiw	a4,a4,16
   10858:	0017879b          	addiw	a5,a5,1
   1085c:	0138b023          	sd	s3,0(a7)
   10860:	01b8b423          	sd	s11,8(a7)
   10864:	0ae12223          	sw	a4,164(sp)
   10868:	0af12023          	sw	a5,160(sp)
   1086c:	01088893          	addi	a7,a7,16
   10870:	fcf4dee3          	ble	a5,s1,1084c <_vfprintf_r+0x438>
   10874:	000a8513          	mv	a0,s5
   10878:	00090593          	mv	a1,s2
   1087c:	09810613          	addi	a2,sp,152
   10880:	2b9050ef          	jal	16338 <__sprint_r>
   10884:	2e051c63          	bnez	a0,10b7c <_vfprintf_r+0x768>
   10888:	ff0d0d1b          	addiw	s10,s10,-16
   1088c:	0a412703          	lw	a4,164(sp)
   10890:	0a012783          	lw	a5,160(sp)
   10894:	15010893          	addi	a7,sp,336
   10898:	fbaccee3          	blt	s9,s10,10854 <_vfprintf_r+0x440>
   1089c:	01a7073b          	addw	a4,a4,s10
   108a0:	0017879b          	addiw	a5,a5,1
   108a4:	00700693          	li	a3,7
   108a8:	0138b023          	sd	s3,0(a7)
   108ac:	01a8b423          	sd	s10,8(a7)
   108b0:	0ae12223          	sw	a4,164(sp)
   108b4:	0af12023          	sw	a5,160(sp)
   108b8:	01088893          	addi	a7,a7,16
   108bc:	02f6d263          	ble	a5,a3,108e0 <_vfprintf_r+0x4cc>
   108c0:	000a8513          	mv	a0,s5
   108c4:	00090593          	mv	a1,s2
   108c8:	09810613          	addi	a2,sp,152
   108cc:	26d050ef          	jal	16338 <__sprint_r>
   108d0:	2a051663          	bnez	a0,10b7c <_vfprintf_r+0x768>
   108d4:	0a412703          	lw	a4,164(sp)
   108d8:	0a012783          	lw	a5,160(sp)
   108dc:	15010893          	addi	a7,sp,336
   108e0:	037b9613          	slli	a2,s7,0x37
   108e4:	76064e63          	bltz	a2,11060 <_vfprintf_r+0xc4c>
   108e8:	02412683          	lw	a3,36(sp)
   108ec:	0017879b          	addiw	a5,a5,1
   108f0:	0088b023          	sd	s0,0(a7)
   108f4:	00e6873b          	addw	a4,a3,a4
   108f8:	00d8b423          	sd	a3,8(a7)
   108fc:	00700693          	li	a3,7
   10900:	0ae12223          	sw	a4,164(sp)
   10904:	0af12023          	sw	a5,160(sp)
   10908:	6ef6c663          	blt	a3,a5,10ff4 <_vfprintf_r+0xbe0>
   1090c:	01088893          	addi	a7,a7,16
   10910:	03db9613          	slli	a2,s7,0x3d
   10914:	0c065263          	bgez	a2,109d8 <_vfprintf_r+0x5c4>
   10918:	01c12283          	lw	t0,28(sp)
   1091c:	02012683          	lw	a3,32(sp)
   10920:	40d2843b          	subw	s0,t0,a3
   10924:	0a805a63          	blez	s0,109d8 <_vfprintf_r+0x5c4>
   10928:	01000793          	li	a5,16
   1092c:	0087c463          	blt	a5,s0,10934 <_vfprintf_r+0x520>
   10930:	1a80106f          	j	11ad8 <_vfprintf_r+0x16c4>
   10934:	01000b93          	li	s7,16
   10938:	0a012783          	lw	a5,160(sp)
   1093c:	05613423          	sd	s6,72(sp)
   10940:	00700c13          	li	s8,7
   10944:	000b8c93          	mv	s9,s7
   10948:	00c0006f          	j	10954 <_vfprintf_r+0x540>
   1094c:	ff04041b          	addiw	s0,s0,-16
   10950:	048cd663          	ble	s0,s9,1099c <_vfprintf_r+0x588>
   10954:	0107071b          	addiw	a4,a4,16
   10958:	0017879b          	addiw	a5,a5,1
   1095c:	0168b023          	sd	s6,0(a7)
   10960:	0178b423          	sd	s7,8(a7)
   10964:	0ae12223          	sw	a4,164(sp)
   10968:	0af12023          	sw	a5,160(sp)
   1096c:	01088893          	addi	a7,a7,16
   10970:	fcfc5ee3          	ble	a5,s8,1094c <_vfprintf_r+0x538>
   10974:	000a8513          	mv	a0,s5
   10978:	00090593          	mv	a1,s2
   1097c:	09810613          	addi	a2,sp,152
   10980:	1b9050ef          	jal	16338 <__sprint_r>
   10984:	1e051c63          	bnez	a0,10b7c <_vfprintf_r+0x768>
   10988:	ff04041b          	addiw	s0,s0,-16
   1098c:	0a412703          	lw	a4,164(sp)
   10990:	0a012783          	lw	a5,160(sp)
   10994:	15010893          	addi	a7,sp,336
   10998:	fa8ccee3          	blt	s9,s0,10954 <_vfprintf_r+0x540>
   1099c:	04813803          	ld	a6,72(sp)
   109a0:	0087073b          	addw	a4,a4,s0
   109a4:	0017879b          	addiw	a5,a5,1
   109a8:	00700693          	li	a3,7
   109ac:	0108b023          	sd	a6,0(a7)
   109b0:	0088b423          	sd	s0,8(a7)
   109b4:	0ae12223          	sw	a4,164(sp)
   109b8:	0af12023          	sw	a5,160(sp)
   109bc:	00f6de63          	ble	a5,a3,109d8 <_vfprintf_r+0x5c4>
   109c0:	000a8513          	mv	a0,s5
   109c4:	00090593          	mv	a1,s2
   109c8:	09810613          	addi	a2,sp,152
   109cc:	16d050ef          	jal	16338 <__sprint_r>
   109d0:	1a051663          	bnez	a0,10b7c <_vfprintf_r+0x768>
   109d4:	0a412703          	lw	a4,164(sp)
   109d8:	02012983          	lw	s3,32(sp)
   109dc:	01c12283          	lw	t0,28(sp)
   109e0:	0059d463          	ble	t0,s3,109e8 <_vfprintf_r+0x5d4>
   109e4:	00028993          	mv	s3,t0
   109e8:	03012283          	lw	t0,48(sp)
   109ec:	013282bb          	addw	t0,t0,s3
   109f0:	02512823          	sw	t0,48(sp)
   109f4:	040714e3          	bnez	a4,1123c <_vfprintf_r+0xe28>
   109f8:	000a4783          	lbu	a5,0(s4)
   109fc:	0a012023          	sw	zero,160(sp)
   10a00:	15010893          	addi	a7,sp,336
   10a04:	b20798e3          	bnez	a5,10534 <_vfprintf_r+0x120>
   10a08:	000a0413          	mv	s0,s4
   10a0c:	b8dff06f          	j	10598 <_vfprintf_r+0x184>
   10a10:	02813783          	ld	a5,40(sp)
   10a14:	02813803          	ld	a6,40(sp)
   10a18:	000a0413          	mv	s0,s4
   10a1c:	0007a783          	lw	a5,0(a5)
   10a20:	00880813          	addi	a6,a6,8
   10a24:	03013423          	sd	a6,40(sp)
   10a28:	00f12e23          	sw	a5,28(sp)
   10a2c:	b807dce3          	bgez	a5,105c4 <_vfprintf_r+0x1b0>
   10a30:	40f007bb          	negw	a5,a5
   10a34:	00f12e23          	sw	a5,28(sp)
   10a38:	004beb93          	ori	s7,s7,4
   10a3c:	000a0413          	mv	s0,s4
   10a40:	b85ff06f          	j	105c4 <_vfprintf_r+0x1b0>
   10a44:	000a8513          	mv	a0,s5
   10a48:	00090593          	mv	a1,s2
   10a4c:	3fc010ef          	jal	11e48 <__swsetup_r>
   10a50:	0a051a63          	bnez	a0,10b04 <_vfprintf_r+0x6f0>
   10a54:	01091703          	lh	a4,16(s2)
   10a58:	00a00693          	li	a3,10
   10a5c:	03071793          	slli	a5,a4,0x30
   10a60:	0307d793          	srli	a5,a5,0x30
   10a64:	01a7f793          	andi	a5,a5,26
   10a68:	a6d79ce3          	bne	a5,a3,104e0 <_vfprintf_r+0xcc>
   10a6c:	01291783          	lh	a5,18(s2)
   10a70:	a607c8e3          	bltz	a5,104e0 <_vfprintf_r+0xcc>
   10a74:	0a492303          	lw	t1,164(s2)
   10a78:	03093283          	ld	t0,48(s2)
   10a7c:	04093883          	ld	a7,64(s2)
   10a80:	02813683          	ld	a3,40(sp)
   10a84:	ffd77713          	andi	a4,a4,-3
   10a88:	40000813          	li	a6,1024
   10a8c:	0ae11c23          	sh	a4,184(sp)
   10a90:	000a8513          	mv	a0,s5
   10a94:	15010713          	addi	a4,sp,336
   10a98:	0a810593          	addi	a1,sp,168
   10a9c:	000a0613          	mv	a2,s4
   10aa0:	14612623          	sw	t1,332(sp)
   10aa4:	0af11d23          	sh	a5,186(sp)
   10aa8:	0c513c23          	sd	t0,216(sp)
   10aac:	0f113423          	sd	a7,232(sp)
   10ab0:	0ae13423          	sd	a4,168(sp)
   10ab4:	0ce13023          	sd	a4,192(sp)
   10ab8:	0b012a23          	sw	a6,180(sp)
   10abc:	0d012423          	sw	a6,200(sp)
   10ac0:	0c012823          	sw	zero,208(sp)
   10ac4:	951ff0ef          	jal	10414 <_vfprintf_r>
   10ac8:	00050413          	mv	s0,a0
   10acc:	00054c63          	bltz	a0,10ae4 <_vfprintf_r+0x6d0>
   10ad0:	000a8513          	mv	a0,s5
   10ad4:	0a810593          	addi	a1,sp,168
   10ad8:	261020ef          	jal	13538 <_fflush_r>
   10adc:	00050463          	beqz	a0,10ae4 <_vfprintf_r+0x6d0>
   10ae0:	2c40106f          	j	11da4 <_vfprintf_r+0x1990>
   10ae4:	0b815783          	lhu	a5,184(sp)
   10ae8:	0407f793          	andi	a5,a5,64
   10aec:	00078863          	beqz	a5,10afc <_vfprintf_r+0x6e8>
   10af0:	01095783          	lhu	a5,16(s2)
   10af4:	0407e793          	ori	a5,a5,64
   10af8:	00f91823          	sh	a5,16(s2)
   10afc:	00040513          	mv	a0,s0
   10b00:	0080006f          	j	10b08 <_vfprintf_r+0x6f4>
   10b04:	fff00513          	li	a0,-1
   10b08:	5c813083          	ld	ra,1480(sp)
   10b0c:	5c013403          	ld	s0,1472(sp)
   10b10:	5b813483          	ld	s1,1464(sp)
   10b14:	5b013903          	ld	s2,1456(sp)
   10b18:	5a813983          	ld	s3,1448(sp)
   10b1c:	5a013a03          	ld	s4,1440(sp)
   10b20:	59813a83          	ld	s5,1432(sp)
   10b24:	59013b03          	ld	s6,1424(sp)
   10b28:	58813b83          	ld	s7,1416(sp)
   10b2c:	58013c03          	ld	s8,1408(sp)
   10b30:	57813c83          	ld	s9,1400(sp)
   10b34:	57013d03          	ld	s10,1392(sp)
   10b38:	56813d83          	ld	s11,1384(sp)
   10b3c:	55813407          	fld	fs0,1368(sp)
   10b40:	5d010113          	addi	sp,sp,1488
   10b44:	00008067          	ret
   10b48:	000a8513          	mv	a0,s5
   10b4c:	00090593          	mv	a1,s2
   10b50:	09810613          	addi	a2,sp,152
   10b54:	7e4050ef          	jal	16338 <__sprint_r>
   10b58:	02051263          	bnez	a0,10b7c <_vfprintf_r+0x768>
   10b5c:	15010893          	addi	a7,sp,336
   10b60:	a2dff06f          	j	1058c <_vfprintf_r+0x178>
   10b64:	0a412783          	lw	a5,164(sp)
   10b68:	00078a63          	beqz	a5,10b7c <_vfprintf_r+0x768>
   10b6c:	000a8513          	mv	a0,s5
   10b70:	00090593          	mv	a1,s2
   10b74:	09810613          	addi	a2,sp,152
   10b78:	7c0050ef          	jal	16338 <__sprint_r>
   10b7c:	01095783          	lhu	a5,16(s2)
   10b80:	0407f793          	andi	a5,a5,64
   10b84:	f80790e3          	bnez	a5,10b04 <_vfprintf_r+0x6f0>
   10b88:	03012503          	lw	a0,48(sp)
   10b8c:	f7dff06f          	j	10b08 <_vfprintf_r+0x6f4>
   10b90:	000a8513          	mv	a0,s5
   10b94:	795020ef          	jal	13b28 <__sinit>
   10b98:	8e9ff06f          	j	10480 <_vfprintf_r+0x6c>
   10b9c:	02813683          	ld	a3,40(sp)
   10ba0:	0007b703          	ld	a4,0(a5)
   10ba4:	00100793          	li	a5,1
   10ba8:	00868693          	addi	a3,a3,8
   10bac:	02d13423          	sd	a3,40(sp)
   10bb0:	ab5ff06f          	j	10664 <_vfprintf_r+0x250>
   10bb4:	02813683          	ld	a3,40(sp)
   10bb8:	0007b703          	ld	a4,0(a5)
   10bbc:	00000793          	li	a5,0
   10bc0:	00868693          	addi	a3,a3,8
   10bc4:	02d13423          	sd	a3,40(sp)
   10bc8:	a9dff06f          	j	10664 <_vfprintf_r+0x250>
   10bcc:	000a0413          	mv	s0,s4
   10bd0:	02b00593          	li	a1,43
   10bd4:	9f1ff06f          	j	105c4 <_vfprintf_r+0x1b0>
   10bd8:	080beb93          	ori	s7,s7,128
   10bdc:	000a0413          	mv	s0,s4
   10be0:	9e5ff06f          	j	105c4 <_vfprintf_r+0x1b0>
   10be4:	02813683          	ld	a3,40(sp)
   10be8:	00100713          	li	a4,1
   10bec:	02e12023          	sw	a4,32(sp)
   10bf0:	0006a783          	lw	a5,0(a3)
   10bf4:	00868693          	addi	a3,a3,8
   10bf8:	06010ba3          	sb	zero,119(sp)
   10bfc:	0af10423          	sb	a5,168(sp)
   10c00:	02d13423          	sd	a3,40(sp)
   10c04:	02e12223          	sw	a4,36(sp)
   10c08:	0a810413          	addi	s0,sp,168
   10c0c:	04012023          	sw	zero,64(sp)
   10c10:	ad1ff06f          	j	106e0 <_vfprintf_r+0x2cc>
   10c14:	000a4c03          	lbu	s8,0(s4)
   10c18:	001a0413          	addi	s0,s4,1
   10c1c:	00ac1463          	bne	s8,a0,10c24 <_vfprintf_r+0x810>
   10c20:	1c00106f          	j	11de0 <_vfprintf_r+0x19cc>
   10c24:	fd0c079b          	addiw	a5,s8,-48
   10c28:	00040a13          	mv	s4,s0
   10c2c:	00000d93          	li	s11,0
   10c30:	98f66ee3          	bltu	a2,a5,105cc <_vfprintf_r+0x1b8>
   10c34:	001a0a13          	addi	s4,s4,1
   10c38:	fffa4c03          	lbu	s8,-1(s4)
   10c3c:	001d971b          	slliw	a4,s11,0x1
   10c40:	003d9d9b          	slliw	s11,s11,0x3
   10c44:	01b70dbb          	addw	s11,a4,s11
   10c48:	01b78dbb          	addw	s11,a5,s11
   10c4c:	fd0c079b          	addiw	a5,s8,-48
   10c50:	fef672e3          	bleu	a5,a2,10c34 <_vfprintf_r+0x820>
   10c54:	960ddce3          	bgez	s11,105cc <_vfprintf_r+0x1b8>
   10c58:	fff00d93          	li	s11,-1
   10c5c:	971ff06f          	j	105cc <_vfprintf_r+0x1b8>
   10c60:	008beb93          	ori	s7,s7,8
   10c64:	000a0413          	mv	s0,s4
   10c68:	95dff06f          	j	105c4 <_vfprintf_r+0x1b0>
   10c6c:	0001b737          	lui	a4,0x1b
   10c70:	c1070713          	addi	a4,a4,-1008 # 1ac10 <__clz_tab+0x128>
   10c74:	03bb9613          	slli	a2,s7,0x3b
   10c78:	06b10ba3          	sb	a1,119(sp)
   10c7c:	02813783          	ld	a5,40(sp)
   10c80:	06e13023          	sd	a4,96(sp)
   10c84:	0e065863          	bgez	a2,10d74 <_vfprintf_r+0x960>
   10c88:	02813683          	ld	a3,40(sp)
   10c8c:	0007b703          	ld	a4,0(a5)
   10c90:	00868693          	addi	a3,a3,8
   10c94:	02d13423          	sd	a3,40(sp)
   10c98:	03fb9613          	slli	a2,s7,0x3f
   10c9c:	00200793          	li	a5,2
   10ca0:	9c0652e3          	bgez	a2,10664 <_vfprintf_r+0x250>
   10ca4:	9c0700e3          	beqz	a4,10664 <_vfprintf_r+0x250>
   10ca8:	03000693          	li	a3,48
   10cac:	06d10c23          	sb	a3,120(sp)
   10cb0:	07810ca3          	sb	s8,121(sp)
   10cb4:	002beb93          	ori	s7,s7,2
   10cb8:	9adff06f          	j	10664 <_vfprintf_r+0x250>
   10cbc:	03bb9813          	slli	a6,s7,0x3b
   10cc0:	06b10ba3          	sb	a1,119(sp)
   10cc4:	02813783          	ld	a5,40(sp)
   10cc8:	0c085e63          	bgez	a6,10da4 <_vfprintf_r+0x990>
   10ccc:	02813283          	ld	t0,40(sp)
   10cd0:	0007b703          	ld	a4,0(a5)
   10cd4:	00828293          	addi	t0,t0,8
   10cd8:	02513423          	sd	t0,40(sp)
   10cdc:	0a074ce3          	bltz	a4,11594 <_vfprintf_r+0x1180>
   10ce0:	07714583          	lbu	a1,119(sp)
   10ce4:	05b12023          	sw	s11,64(sp)
   10ce8:	00100793          	li	a5,1
   10cec:	985ff06f          	j	10670 <_vfprintf_r+0x25c>
   10cf0:	040beb93          	ori	s7,s7,64
   10cf4:	000a0413          	mv	s0,s4
   10cf8:	8cdff06f          	j	105c4 <_vfprintf_r+0x1b0>
   10cfc:	03bb9713          	slli	a4,s7,0x3b
   10d00:	06b10ba3          	sb	a1,119(sp)
   10d04:	260752e3          	bgez	a4,11768 <_vfprintf_r+0x1354>
   10d08:	02813803          	ld	a6,40(sp)
   10d0c:	03012703          	lw	a4,48(sp)
   10d10:	00083783          	ld	a5,0(a6)
   10d14:	00880813          	addi	a6,a6,8
   10d18:	03013423          	sd	a6,40(sp)
   10d1c:	00e7b023          	sd	a4,0(a5)
   10d20:	80dff06f          	j	1052c <_vfprintf_r+0x118>
   10d24:	00012e23          	sw	zero,28(sp)
   10d28:	fd0c079b          	addiw	a5,s8,-48
   10d2c:	01c12283          	lw	t0,28(sp)
   10d30:	001a0a13          	addi	s4,s4,1
   10d34:	fffa4c03          	lbu	s8,-1(s4)
   10d38:	0012971b          	slliw	a4,t0,0x1
   10d3c:	0032981b          	slliw	a6,t0,0x3
   10d40:	0107073b          	addw	a4,a4,a6
   10d44:	00f707bb          	addw	a5,a4,a5
   10d48:	00f12e23          	sw	a5,28(sp)
   10d4c:	fd0c079b          	addiw	a5,s8,-48
   10d50:	fcf67ee3          	bleu	a5,a2,10d2c <_vfprintf_r+0x918>
   10d54:	879ff06f          	j	105cc <_vfprintf_r+0x1b8>
   10d58:	0001b737          	lui	a4,0x1b
   10d5c:	c2870713          	addi	a4,a4,-984 # 1ac28 <__clz_tab+0x140>
   10d60:	03bb9613          	slli	a2,s7,0x3b
   10d64:	06b10ba3          	sb	a1,119(sp)
   10d68:	02813783          	ld	a5,40(sp)
   10d6c:	06e13023          	sd	a4,96(sp)
   10d70:	f0064ce3          	bltz	a2,10c88 <_vfprintf_r+0x874>
   10d74:	039b9713          	slli	a4,s7,0x39
   10d78:	180756e3          	bgez	a4,11704 <_vfprintf_r+0x12f0>
   10d7c:	02813803          	ld	a6,40(sp)
   10d80:	0007d703          	lhu	a4,0(a5)
   10d84:	00880813          	addi	a6,a6,8
   10d88:	03013423          	sd	a6,40(sp)
   10d8c:	f0dff06f          	j	10c98 <_vfprintf_r+0x884>
   10d90:	010beb93          	ori	s7,s7,16
   10d94:	03bb9813          	slli	a6,s7,0x3b
   10d98:	06b10ba3          	sb	a1,119(sp)
   10d9c:	02813783          	ld	a5,40(sp)
   10da0:	f20846e3          	bltz	a6,10ccc <_vfprintf_r+0x8b8>
   10da4:	039b9613          	slli	a2,s7,0x39
   10da8:	140654e3          	bgez	a2,116f0 <_vfprintf_r+0x12dc>
   10dac:	02813683          	ld	a3,40(sp)
   10db0:	00079703          	lh	a4,0(a5)
   10db4:	00868693          	addi	a3,a3,8
   10db8:	02d13423          	sd	a3,40(sp)
   10dbc:	f21ff06f          	j	10cdc <_vfprintf_r+0x8c8>
   10dc0:	02813803          	ld	a6,40(sp)
   10dc4:	06b10ba3          	sb	a1,119(sp)
   10dc8:	00100413          	li	s0,1
   10dcc:	00083007          	fld	ft0,0(a6)
   10dd0:	00880d13          	addi	s10,a6,8
   10dd4:	01113023          	sd	a7,0(sp)
   10dd8:	22000553          	fmv.d	fa0,ft0
   10ddc:	04013c27          	fsd	ft0,88(sp)
   10de0:	0a0050ef          	jal	15e80 <__fpclassifyd>
   10de4:	00013883          	ld	a7,0(sp)
   10de8:	7c851463          	bne	a0,s0,115b0 <_vfprintf_r+0x119c>
   10dec:	05813087          	fld	ft1,88(sp)
   10df0:	f2000053          	fmv.d.x	ft0,zero
   10df4:	a20097d3          	flt.d	a5,ft1,ft0
   10df8:	500790e3          	bnez	a5,11af8 <_vfprintf_r+0x16e4>
   10dfc:	07714583          	lbu	a1,119(sp)
   10e00:	04700793          	li	a5,71
   10e04:	3587d4e3          	ble	s8,a5,1194c <_vfprintf_r+0x1538>
   10e08:	0001b437          	lui	s0,0x1b
   10e0c:	bf840413          	addi	s0,s0,-1032 # 1abf8 <__clz_tab+0x110>
   10e10:	00300293          	li	t0,3
   10e14:	02512023          	sw	t0,32(sp)
   10e18:	f7fbfb93          	andi	s7,s7,-129
   10e1c:	03a13423          	sd	s10,40(sp)
   10e20:	02512223          	sw	t0,36(sp)
   10e24:	04012023          	sw	zero,64(sp)
   10e28:	8a9ff06f          	j	106d0 <_vfprintf_r+0x2bc>
   10e2c:	02813703          	ld	a4,40(sp)
   10e30:	06010ba3          	sb	zero,119(sp)
   10e34:	00073403          	ld	s0,0(a4)
   10e38:	00870d13          	addi	s10,a4,8
   10e3c:	460404e3          	beqz	s0,11aa4 <_vfprintf_r+0x1690>
   10e40:	00040513          	mv	a0,s0
   10e44:	3c0dc6e3          	bltz	s11,11a10 <_vfprintf_r+0x15fc>
   10e48:	00000593          	li	a1,0
   10e4c:	000d8613          	mv	a2,s11
   10e50:	01113023          	sd	a7,0(sp)
   10e54:	501030ef          	jal	14b54 <memchr>
   10e58:	00013883          	ld	a7,0(sp)
   10e5c:	54050ce3          	beqz	a0,11bb4 <_vfprintf_r+0x17a0>
   10e60:	40850533          	sub	a0,a0,s0
   10e64:	02a12223          	sw	a0,36(sp)
   10e68:	02412783          	lw	a5,36(sp)
   10e6c:	2cfdc6e3          	blt	s11,a5,11938 <_vfprintf_r+0x1524>
   10e70:	02412803          	lw	a6,36(sp)
   10e74:	07714583          	lbu	a1,119(sp)
   10e78:	03a13423          	sd	s10,40(sp)
   10e7c:	fff84993          	not	s3,a6
   10e80:	41f9d99b          	sraiw	s3,s3,0x1f
   10e84:	013879b3          	and	s3,a6,s3
   10e88:	03312023          	sw	s3,32(sp)
   10e8c:	04012023          	sw	zero,64(sp)
   10e90:	841ff06f          	j	106d0 <_vfprintf_r+0x2bc>
   10e94:	000a0413          	mv	s0,s4
   10e98:	f2059663          	bnez	a1,105c4 <_vfprintf_r+0x1b0>
   10e9c:	02000593          	li	a1,32
   10ea0:	f24ff06f          	j	105c4 <_vfprintf_r+0x1b0>
   10ea4:	02813683          	ld	a3,40(sp)
   10ea8:	03000793          	li	a5,48
   10eac:	06f10c23          	sb	a5,120(sp)
   10eb0:	07800793          	li	a5,120
   10eb4:	06f10ca3          	sb	a5,121(sp)
   10eb8:	0001b7b7          	lui	a5,0x1b
   10ebc:	0006b703          	ld	a4,0(a3)
   10ec0:	c2878793          	addi	a5,a5,-984 # 1ac28 <__clz_tab+0x140>
   10ec4:	00868693          	addi	a3,a3,8
   10ec8:	06f13023          	sd	a5,96(sp)
   10ecc:	002beb93          	ori	s7,s7,2
   10ed0:	02d13423          	sd	a3,40(sp)
   10ed4:	00200793          	li	a5,2
   10ed8:	07800c13          	li	s8,120
   10edc:	f88ff06f          	j	10664 <_vfprintf_r+0x250>
   10ee0:	001beb93          	ori	s7,s7,1
   10ee4:	000a0413          	mv	s0,s4
   10ee8:	edcff06f          	j	105c4 <_vfprintf_r+0x1b0>
   10eec:	06b10ba3          	sb	a1,119(sp)
   10ef0:	c60c0ae3          	beqz	s8,10b64 <_vfprintf_r+0x750>
   10ef4:	00100693          	li	a3,1
   10ef8:	02d12023          	sw	a3,32(sp)
   10efc:	0b810423          	sb	s8,168(sp)
   10f00:	06010ba3          	sb	zero,119(sp)
   10f04:	02d12223          	sw	a3,36(sp)
   10f08:	0a810413          	addi	s0,sp,168
   10f0c:	d01ff06f          	j	10c0c <_vfprintf_r+0x7f8>
   10f10:	0a412703          	lw	a4,164(sp)
   10f14:	0a012783          	lw	a5,160(sp)
   10f18:	07714683          	lbu	a3,119(sp)
   10f1c:	8a068ee3          	beqz	a3,107d8 <_vfprintf_r+0x3c4>
   10f20:	07710693          	addi	a3,sp,119
   10f24:	00d8b023          	sd	a3,0(a7)
   10f28:	00100693          	li	a3,1
   10f2c:	00d8b423          	sd	a3,8(a7)
   10f30:	0017071b          	addiw	a4,a4,1
   10f34:	0017879b          	addiw	a5,a5,1
   10f38:	00700693          	li	a3,7
   10f3c:	0ae12223          	sw	a4,164(sp)
   10f40:	0af12023          	sw	a5,160(sp)
   10f44:	01088893          	addi	a7,a7,16
   10f48:	88f6d8e3          	ble	a5,a3,107d8 <_vfprintf_r+0x3c4>
   10f4c:	000a8513          	mv	a0,s5
   10f50:	00090593          	mv	a1,s2
   10f54:	09810613          	addi	a2,sp,152
   10f58:	3e0050ef          	jal	16338 <__sprint_r>
   10f5c:	c20510e3          	bnez	a0,10b7c <_vfprintf_r+0x768>
   10f60:	0a412703          	lw	a4,164(sp)
   10f64:	0a012783          	lw	a5,160(sp)
   10f68:	15010893          	addi	a7,sp,336
   10f6c:	86dff06f          	j	107d8 <_vfprintf_r+0x3c4>
   10f70:	0a012783          	lw	a5,160(sp)
   10f74:	0001a337          	lui	t1,0x1a
   10f78:	7a030993          	addi	s3,t1,1952 # 1a7a0 <zeroes.3950>
   10f7c:	0087073b          	addw	a4,a4,s0
   10f80:	0017879b          	addiw	a5,a5,1
   10f84:	00700693          	li	a3,7
   10f88:	0138b023          	sd	s3,0(a7)
   10f8c:	0088b423          	sd	s0,8(a7)
   10f90:	0ae12223          	sw	a4,164(sp)
   10f94:	0af12023          	sw	a5,160(sp)
   10f98:	01088893          	addi	a7,a7,16
   10f9c:	02f6d063          	ble	a5,a3,10fbc <_vfprintf_r+0xba8>
   10fa0:	000a8513          	mv	a0,s5
   10fa4:	00090593          	mv	a1,s2
   10fa8:	09810613          	addi	a2,sp,152
   10fac:	38c050ef          	jal	16338 <__sprint_r>
   10fb0:	bc0516e3          	bnez	a0,10b7c <_vfprintf_r+0x768>
   10fb4:	0a412703          	lw	a4,164(sp)
   10fb8:	15010893          	addi	a7,sp,336
   10fbc:	03fb9793          	slli	a5,s7,0x3f
   10fc0:	9407d8e3          	bgez	a5,10910 <_vfprintf_r+0x4fc>
   10fc4:	05013283          	ld	t0,80(sp)
   10fc8:	0a012783          	lw	a5,160(sp)
   10fcc:	00700693          	li	a3,7
   10fd0:	00e2873b          	addw	a4,t0,a4
   10fd4:	03813283          	ld	t0,56(sp)
   10fd8:	0017879b          	addiw	a5,a5,1
   10fdc:	0ae12223          	sw	a4,164(sp)
   10fe0:	0058b023          	sd	t0,0(a7)
   10fe4:	05013283          	ld	t0,80(sp)
   10fe8:	0af12023          	sw	a5,160(sp)
   10fec:	0058b423          	sd	t0,8(a7)
   10ff0:	90f6dee3          	ble	a5,a3,1090c <_vfprintf_r+0x4f8>
   10ff4:	000a8513          	mv	a0,s5
   10ff8:	00090593          	mv	a1,s2
   10ffc:	09810613          	addi	a2,sp,152
   11000:	338050ef          	jal	16338 <__sprint_r>
   11004:	b6051ce3          	bnez	a0,10b7c <_vfprintf_r+0x768>
   11008:	0a412703          	lw	a4,164(sp)
   1100c:	15010893          	addi	a7,sp,336
   11010:	901ff06f          	j	10910 <_vfprintf_r+0x4fc>
   11014:	00100693          	li	a3,1
   11018:	e6d79863          	bne	a5,a3,10688 <_vfprintf_r+0x274>
   1101c:	00900513          	li	a0,9
   11020:	0d010693          	addi	a3,sp,208
   11024:	00a00613          	li	a2,10
   11028:	00e57e63          	bleu	a4,a0,11044 <_vfprintf_r+0xc30>
   1102c:	02c777b3          	remu	a5,a4,a2
   11030:	fff68693          	addi	a3,a3,-1
   11034:	02c75733          	divu	a4,a4,a2
   11038:	0307879b          	addiw	a5,a5,48
   1103c:	00f68023          	sb	a5,0(a3)
   11040:	fee566e3          	bltu	a0,a4,1102c <_vfprintf_r+0xc18>
   11044:	01013283          	ld	t0,16(sp)
   11048:	fff68413          	addi	s0,a3,-1
   1104c:	0307071b          	addiw	a4,a4,48
   11050:	40828cb3          	sub	s9,t0,s0
   11054:	fee68fa3          	sb	a4,-1(a3)
   11058:	03912223          	sw	s9,36(sp)
   1105c:	e64ff06f          	j	106c0 <_vfprintf_r+0x2ac>
   11060:	06500693          	li	a3,101
   11064:	1f86d863          	ble	s8,a3,11254 <_vfprintf_r+0xe40>
   11068:	05813087          	fld	ft1,88(sp)
   1106c:	f2000053          	fmv.d.x	ft0,zero
   11070:	a200a6d3          	feq.d	a3,ft1,ft0
   11074:	38068663          	beqz	a3,11400 <_vfprintf_r+0xfec>
   11078:	0001b6b7          	lui	a3,0x1b
   1107c:	c4868693          	addi	a3,a3,-952 # 1ac48 <__clz_tab+0x160>
   11080:	00d8b023          	sd	a3,0(a7)
   11084:	00100693          	li	a3,1
   11088:	00d8b423          	sd	a3,8(a7)
   1108c:	0017071b          	addiw	a4,a4,1
   11090:	0017879b          	addiw	a5,a5,1
   11094:	00700693          	li	a3,7
   11098:	0ae12223          	sw	a4,164(sp)
   1109c:	0af12023          	sw	a5,160(sp)
   110a0:	01088893          	addi	a7,a7,16
   110a4:	76f6c063          	blt	a3,a5,11804 <_vfprintf_r+0x13f0>
   110a8:	08012783          	lw	a5,128(sp)
   110ac:	04412283          	lw	t0,68(sp)
   110b0:	0057c663          	blt	a5,t0,110bc <_vfprintf_r+0xca8>
   110b4:	03fb9613          	slli	a2,s7,0x3f
   110b8:	84065ce3          	bgez	a2,10910 <_vfprintf_r+0x4fc>
   110bc:	05013283          	ld	t0,80(sp)
   110c0:	0a012783          	lw	a5,160(sp)
   110c4:	00700693          	li	a3,7
   110c8:	00e2873b          	addw	a4,t0,a4
   110cc:	03813283          	ld	t0,56(sp)
   110d0:	0017879b          	addiw	a5,a5,1
   110d4:	0ae12223          	sw	a4,164(sp)
   110d8:	0058b023          	sd	t0,0(a7)
   110dc:	05013283          	ld	t0,80(sp)
   110e0:	0af12023          	sw	a5,160(sp)
   110e4:	01088893          	addi	a7,a7,16
   110e8:	fe58bc23          	sd	t0,-8(a7)
   110ec:	0af6c6e3          	blt	a3,a5,11998 <_vfprintf_r+0x1584>
   110f0:	04412683          	lw	a3,68(sp)
   110f4:	fff6841b          	addiw	s0,a3,-1
   110f8:	80805ce3          	blez	s0,10910 <_vfprintf_r+0x4fc>
   110fc:	01000793          	li	a5,16
   11100:	6087dc63          	ble	s0,a5,11718 <_vfprintf_r+0x1304>
   11104:	01000c13          	li	s8,16
   11108:	0001a337          	lui	t1,0x1a
   1110c:	0a012783          	lw	a5,160(sp)
   11110:	7a030993          	addi	s3,t1,1952 # 1a7a0 <zeroes.3950>
   11114:	00700c93          	li	s9,7
   11118:	000c0d13          	mv	s10,s8
   1111c:	00c0006f          	j	11128 <_vfprintf_r+0xd14>
   11120:	ff04041b          	addiw	s0,s0,-16
   11124:	608d5063          	ble	s0,s10,11724 <_vfprintf_r+0x1310>
   11128:	0107071b          	addiw	a4,a4,16
   1112c:	0017879b          	addiw	a5,a5,1
   11130:	0138b023          	sd	s3,0(a7)
   11134:	0188b423          	sd	s8,8(a7)
   11138:	0ae12223          	sw	a4,164(sp)
   1113c:	0af12023          	sw	a5,160(sp)
   11140:	01088893          	addi	a7,a7,16
   11144:	fcfcdee3          	ble	a5,s9,11120 <_vfprintf_r+0xd0c>
   11148:	000a8513          	mv	a0,s5
   1114c:	00090593          	mv	a1,s2
   11150:	09810613          	addi	a2,sp,152
   11154:	1e4050ef          	jal	16338 <__sprint_r>
   11158:	a20512e3          	bnez	a0,10b7c <_vfprintf_r+0x768>
   1115c:	0a412703          	lw	a4,164(sp)
   11160:	0a012783          	lw	a5,160(sp)
   11164:	15010893          	addi	a7,sp,336
   11168:	fb9ff06f          	j	11120 <_vfprintf_r+0xd0c>
   1116c:	01c12283          	lw	t0,28(sp)
   11170:	02012683          	lw	a3,32(sp)
   11174:	40d28d3b          	subw	s10,t0,a3
   11178:	e9a05e63          	blez	s10,10814 <_vfprintf_r+0x400>
   1117c:	0001a337          	lui	t1,0x1a
   11180:	01000693          	li	a3,16
   11184:	7a030993          	addi	s3,t1,1952 # 1a7a0 <zeroes.3950>
   11188:	07a6d663          	ble	s10,a3,111f4 <_vfprintf_r+0xde0>
   1118c:	01000d93          	li	s11,16
   11190:	0001a337          	lui	t1,0x1a
   11194:	7a030993          	addi	s3,t1,1952 # 1a7a0 <zeroes.3950>
   11198:	00700c93          	li	s9,7
   1119c:	000d8493          	mv	s1,s11
   111a0:	00c0006f          	j	111ac <_vfprintf_r+0xd98>
   111a4:	ff0d0d1b          	addiw	s10,s10,-16
   111a8:	05a4d663          	ble	s10,s1,111f4 <_vfprintf_r+0xde0>
   111ac:	0107071b          	addiw	a4,a4,16
   111b0:	0017879b          	addiw	a5,a5,1
   111b4:	0138b023          	sd	s3,0(a7)
   111b8:	01b8b423          	sd	s11,8(a7)
   111bc:	0ae12223          	sw	a4,164(sp)
   111c0:	0af12023          	sw	a5,160(sp)
   111c4:	01088893          	addi	a7,a7,16
   111c8:	fcfcdee3          	ble	a5,s9,111a4 <_vfprintf_r+0xd90>
   111cc:	000a8513          	mv	a0,s5
   111d0:	00090593          	mv	a1,s2
   111d4:	09810613          	addi	a2,sp,152
   111d8:	160050ef          	jal	16338 <__sprint_r>
   111dc:	9a0510e3          	bnez	a0,10b7c <_vfprintf_r+0x768>
   111e0:	ff0d0d1b          	addiw	s10,s10,-16
   111e4:	0a412703          	lw	a4,164(sp)
   111e8:	0a012783          	lw	a5,160(sp)
   111ec:	15010893          	addi	a7,sp,336
   111f0:	fba4cee3          	blt	s1,s10,111ac <_vfprintf_r+0xd98>
   111f4:	01a7073b          	addw	a4,a4,s10
   111f8:	0017879b          	addiw	a5,a5,1
   111fc:	00700693          	li	a3,7
   11200:	0138b023          	sd	s3,0(a7)
   11204:	01a8b423          	sd	s10,8(a7)
   11208:	0ae12223          	sw	a4,164(sp)
   1120c:	0af12023          	sw	a5,160(sp)
   11210:	01088893          	addi	a7,a7,16
   11214:	e0f6d063          	ble	a5,a3,10814 <_vfprintf_r+0x400>
   11218:	000a8513          	mv	a0,s5
   1121c:	00090593          	mv	a1,s2
   11220:	09810613          	addi	a2,sp,152
   11224:	114050ef          	jal	16338 <__sprint_r>
   11228:	94051ae3          	bnez	a0,10b7c <_vfprintf_r+0x768>
   1122c:	0a412703          	lw	a4,164(sp)
   11230:	0a012783          	lw	a5,160(sp)
   11234:	15010893          	addi	a7,sp,336
   11238:	ddcff06f          	j	10814 <_vfprintf_r+0x400>
   1123c:	000a8513          	mv	a0,s5
   11240:	00090593          	mv	a1,s2
   11244:	09810613          	addi	a2,sp,152
   11248:	0f0050ef          	jal	16338 <__sprint_r>
   1124c:	fa050663          	beqz	a0,109f8 <_vfprintf_r+0x5e4>
   11250:	92dff06f          	j	10b7c <_vfprintf_r+0x768>
   11254:	04412803          	lw	a6,68(sp)
   11258:	00100693          	li	a3,1
   1125c:	0b06dc63          	ble	a6,a3,11314 <_vfprintf_r+0xf00>
   11260:	00100693          	li	a3,1
   11264:	00d8b423          	sd	a3,8(a7)
   11268:	0017071b          	addiw	a4,a4,1
   1126c:	0017879b          	addiw	a5,a5,1
   11270:	00700693          	li	a3,7
   11274:	0088b023          	sd	s0,0(a7)
   11278:	0ae12223          	sw	a4,164(sp)
   1127c:	0af12023          	sw	a5,160(sp)
   11280:	01088893          	addi	a7,a7,16
   11284:	2af6c663          	blt	a3,a5,11530 <_vfprintf_r+0x111c>
   11288:	05013283          	ld	t0,80(sp)
   1128c:	0017879b          	addiw	a5,a5,1
   11290:	00700693          	li	a3,7
   11294:	00e2873b          	addw	a4,t0,a4
   11298:	03813283          	ld	t0,56(sp)
   1129c:	0ae12223          	sw	a4,164(sp)
   112a0:	0af12023          	sw	a5,160(sp)
   112a4:	0058b023          	sd	t0,0(a7)
   112a8:	05013283          	ld	t0,80(sp)
   112ac:	01088893          	addi	a7,a7,16
   112b0:	fe58bc23          	sd	t0,-8(a7)
   112b4:	2af6c063          	blt	a3,a5,11554 <_vfprintf_r+0x1140>
   112b8:	05813087          	fld	ft1,88(sp)
   112bc:	f2000053          	fmv.d.x	ft0,zero
   112c0:	a200a653          	feq.d	a2,ft1,ft0
   112c4:	1e061663          	bnez	a2,114b0 <_vfprintf_r+0x109c>
   112c8:	04412283          	lw	t0,68(sp)
   112cc:	00140413          	addi	s0,s0,1
   112d0:	0017879b          	addiw	a5,a5,1
   112d4:	fff2869b          	addiw	a3,t0,-1
   112d8:	00068613          	mv	a2,a3
   112dc:	00d7073b          	addw	a4,a4,a3
   112e0:	00700693          	li	a3,7
   112e4:	0088b023          	sd	s0,0(a7)
   112e8:	00c8b423          	sd	a2,8(a7)
   112ec:	0ae12223          	sw	a4,164(sp)
   112f0:	0af12023          	sw	a5,160(sp)
   112f4:	04f6c663          	blt	a3,a5,11340 <_vfprintf_r+0xf2c>
   112f8:	01088893          	addi	a7,a7,16
   112fc:	06812683          	lw	a3,104(sp)
   11300:	08810613          	addi	a2,sp,136
   11304:	0017879b          	addiw	a5,a5,1
   11308:	00e6873b          	addw	a4,a3,a4
   1130c:	00c8b023          	sd	a2,0(a7)
   11310:	de8ff06f          	j	108f8 <_vfprintf_r+0x4e4>
   11314:	03fb9293          	slli	t0,s7,0x3f
   11318:	f402c4e3          	bltz	t0,11260 <_vfprintf_r+0xe4c>
   1131c:	0017071b          	addiw	a4,a4,1
   11320:	0017879b          	addiw	a5,a5,1
   11324:	0088b023          	sd	s0,0(a7)
   11328:	00100693          	li	a3,1
   1132c:	00d8b423          	sd	a3,8(a7)
   11330:	00700693          	li	a3,7
   11334:	0ae12223          	sw	a4,164(sp)
   11338:	0af12023          	sw	a5,160(sp)
   1133c:	faf6dee3          	ble	a5,a3,112f8 <_vfprintf_r+0xee4>
   11340:	000a8513          	mv	a0,s5
   11344:	00090593          	mv	a1,s2
   11348:	09810613          	addi	a2,sp,152
   1134c:	7ed040ef          	jal	16338 <__sprint_r>
   11350:	820516e3          	bnez	a0,10b7c <_vfprintf_r+0x768>
   11354:	0a412703          	lw	a4,164(sp)
   11358:	0a012783          	lw	a5,160(sp)
   1135c:	15010893          	addi	a7,sp,336
   11360:	f9dff06f          	j	112fc <_vfprintf_r+0xee8>
   11364:	08079863          	bnez	a5,113f4 <_vfprintf_r+0xfe0>
   11368:	03fb9613          	slli	a2,s7,0x3f
   1136c:	08065463          	bgez	a2,113f4 <_vfprintf_r+0xfe0>
   11370:	06c12283          	lw	t0,108(sp)
   11374:	03000793          	li	a5,48
   11378:	0cf107a3          	sb	a5,207(sp)
   1137c:	02512223          	sw	t0,36(sp)
   11380:	0cf10413          	addi	s0,sp,207
   11384:	b3cff06f          	j	106c0 <_vfprintf_r+0x2ac>
   11388:	000a8513          	mv	a0,s5
   1138c:	00090593          	mv	a1,s2
   11390:	09810613          	addi	a2,sp,152
   11394:	7a5040ef          	jal	16338 <__sprint_r>
   11398:	fe051263          	bnez	a0,10b7c <_vfprintf_r+0x768>
   1139c:	0a412703          	lw	a4,164(sp)
   113a0:	0a012783          	lw	a5,160(sp)
   113a4:	15010893          	addi	a7,sp,336
   113a8:	c60ff06f          	j	10808 <_vfprintf_r+0x3f4>
   113ac:	0d010413          	addi	s0,sp,208
   113b0:	00777793          	andi	a5,a4,7
   113b4:	fff40413          	addi	s0,s0,-1
   113b8:	0307879b          	addiw	a5,a5,48
   113bc:	00375713          	srli	a4,a4,0x3
   113c0:	00f40023          	sb	a5,0(s0)
   113c4:	fe0716e3          	bnez	a4,113b0 <_vfprintf_r+0xf9c>
   113c8:	03fb9693          	slli	a3,s7,0x3f
   113cc:	00040713          	mv	a4,s0
   113d0:	ae06d263          	bgez	a3,106b4 <_vfprintf_r+0x2a0>
   113d4:	03000693          	li	a3,48
   113d8:	acd78e63          	beq	a5,a3,106b4 <_vfprintf_r+0x2a0>
   113dc:	01013283          	ld	t0,16(sp)
   113e0:	fff40413          	addi	s0,s0,-1
   113e4:	fed70fa3          	sb	a3,-1(a4)
   113e8:	40828cb3          	sub	s9,t0,s0
   113ec:	03912223          	sw	s9,36(sp)
   113f0:	ad0ff06f          	j	106c0 <_vfprintf_r+0x2ac>
   113f4:	02012223          	sw	zero,36(sp)
   113f8:	0d010413          	addi	s0,sp,208
   113fc:	ac4ff06f          	j	106c0 <_vfprintf_r+0x2ac>
   11400:	08012c03          	lw	s8,128(sp)
   11404:	43805063          	blez	s8,11824 <_vfprintf_r+0x1410>
   11408:	04412283          	lw	t0,68(sp)
   1140c:	385c4063          	blt	s8,t0,1178c <_vfprintf_r+0x1378>
   11410:	00e2873b          	addw	a4,t0,a4
   11414:	0017879b          	addiw	a5,a5,1
   11418:	00700693          	li	a3,7
   1141c:	0088b023          	sd	s0,0(a7)
   11420:	0058b423          	sd	t0,8(a7)
   11424:	0ae12223          	sw	a4,164(sp)
   11428:	0af12023          	sw	a5,160(sp)
   1142c:	01088893          	addi	a7,a7,16
   11430:	6cf6cc63          	blt	a3,a5,11b08 <_vfprintf_r+0x16f4>
   11434:	04412683          	lw	a3,68(sp)
   11438:	40dc043b          	subw	s0,s8,a3
   1143c:	b88050e3          	blez	s0,10fbc <_vfprintf_r+0xba8>
   11440:	01000793          	li	a5,16
   11444:	b287d6e3          	ble	s0,a5,10f70 <_vfprintf_r+0xb5c>
   11448:	01000c13          	li	s8,16
   1144c:	0001a337          	lui	t1,0x1a
   11450:	0a012783          	lw	a5,160(sp)
   11454:	7a030993          	addi	s3,t1,1952 # 1a7a0 <zeroes.3950>
   11458:	00700c93          	li	s9,7
   1145c:	000c0d13          	mv	s10,s8
   11460:	00c0006f          	j	1146c <_vfprintf_r+0x1058>
   11464:	ff04041b          	addiw	s0,s0,-16
   11468:	b08d5ae3          	ble	s0,s10,10f7c <_vfprintf_r+0xb68>
   1146c:	0107071b          	addiw	a4,a4,16
   11470:	0017879b          	addiw	a5,a5,1
   11474:	0138b023          	sd	s3,0(a7)
   11478:	0188b423          	sd	s8,8(a7)
   1147c:	0ae12223          	sw	a4,164(sp)
   11480:	0af12023          	sw	a5,160(sp)
   11484:	01088893          	addi	a7,a7,16
   11488:	fcfcdee3          	ble	a5,s9,11464 <_vfprintf_r+0x1050>
   1148c:	000a8513          	mv	a0,s5
   11490:	00090593          	mv	a1,s2
   11494:	09810613          	addi	a2,sp,152
   11498:	6a1040ef          	jal	16338 <__sprint_r>
   1149c:	ee051063          	bnez	a0,10b7c <_vfprintf_r+0x768>
   114a0:	0a412703          	lw	a4,164(sp)
   114a4:	0a012783          	lw	a5,160(sp)
   114a8:	15010893          	addi	a7,sp,336
   114ac:	fb9ff06f          	j	11464 <_vfprintf_r+0x1050>
   114b0:	04412683          	lw	a3,68(sp)
   114b4:	fff6841b          	addiw	s0,a3,-1
   114b8:	e48052e3          	blez	s0,112fc <_vfprintf_r+0xee8>
   114bc:	0001a337          	lui	t1,0x1a
   114c0:	01000693          	li	a3,16
   114c4:	7a030993          	addi	s3,t1,1952 # 1a7a0 <zeroes.3950>
   114c8:	0a86d863          	ble	s0,a3,11578 <_vfprintf_r+0x1164>
   114cc:	01000c13          	li	s8,16
   114d0:	0001a337          	lui	t1,0x1a
   114d4:	7a030993          	addi	s3,t1,1952 # 1a7a0 <zeroes.3950>
   114d8:	00700d13          	li	s10,7
   114dc:	000c0d93          	mv	s11,s8
   114e0:	00c0006f          	j	114ec <_vfprintf_r+0x10d8>
   114e4:	ff04041b          	addiw	s0,s0,-16
   114e8:	088dd863          	ble	s0,s11,11578 <_vfprintf_r+0x1164>
   114ec:	0107071b          	addiw	a4,a4,16
   114f0:	0017879b          	addiw	a5,a5,1
   114f4:	0138b023          	sd	s3,0(a7)
   114f8:	0188b423          	sd	s8,8(a7)
   114fc:	0ae12223          	sw	a4,164(sp)
   11500:	0af12023          	sw	a5,160(sp)
   11504:	01088893          	addi	a7,a7,16
   11508:	fcfd5ee3          	ble	a5,s10,114e4 <_vfprintf_r+0x10d0>
   1150c:	000a8513          	mv	a0,s5
   11510:	00090593          	mv	a1,s2
   11514:	09810613          	addi	a2,sp,152
   11518:	621040ef          	jal	16338 <__sprint_r>
   1151c:	e6051063          	bnez	a0,10b7c <_vfprintf_r+0x768>
   11520:	0a412703          	lw	a4,164(sp)
   11524:	0a012783          	lw	a5,160(sp)
   11528:	15010893          	addi	a7,sp,336
   1152c:	fb9ff06f          	j	114e4 <_vfprintf_r+0x10d0>
   11530:	000a8513          	mv	a0,s5
   11534:	00090593          	mv	a1,s2
   11538:	09810613          	addi	a2,sp,152
   1153c:	5fd040ef          	jal	16338 <__sprint_r>
   11540:	e2051e63          	bnez	a0,10b7c <_vfprintf_r+0x768>
   11544:	0a412703          	lw	a4,164(sp)
   11548:	0a012783          	lw	a5,160(sp)
   1154c:	15010893          	addi	a7,sp,336
   11550:	d39ff06f          	j	11288 <_vfprintf_r+0xe74>
   11554:	000a8513          	mv	a0,s5
   11558:	00090593          	mv	a1,s2
   1155c:	09810613          	addi	a2,sp,152
   11560:	5d9040ef          	jal	16338 <__sprint_r>
   11564:	e0051c63          	bnez	a0,10b7c <_vfprintf_r+0x768>
   11568:	0a412703          	lw	a4,164(sp)
   1156c:	0a012783          	lw	a5,160(sp)
   11570:	15010893          	addi	a7,sp,336
   11574:	d45ff06f          	j	112b8 <_vfprintf_r+0xea4>
   11578:	00040693          	mv	a3,s0
   1157c:	0087073b          	addw	a4,a4,s0
   11580:	0017879b          	addiw	a5,a5,1
   11584:	0138b023          	sd	s3,0(a7)
   11588:	da5ff06f          	j	1132c <_vfprintf_r+0xf18>
   1158c:	0d010693          	addi	a3,sp,208
   11590:	ab5ff06f          	j	11044 <_vfprintf_r+0xc30>
   11594:	02d00793          	li	a5,45
   11598:	06f10ba3          	sb	a5,119(sp)
   1159c:	40e00733          	neg	a4,a4
   115a0:	05b12023          	sw	s11,64(sp)
   115a4:	02d00593          	li	a1,45
   115a8:	00100793          	li	a5,1
   115ac:	8c4ff06f          	j	10670 <_vfprintf_r+0x25c>
   115b0:	05813507          	fld	fa0,88(sp)
   115b4:	01113023          	sd	a7,0(sp)
   115b8:	0c9040ef          	jal	15e80 <__fpclassifyd>
   115bc:	00013883          	ld	a7,0(sp)
   115c0:	34050463          	beqz	a0,11908 <_vfprintf_r+0x14f4>
   115c4:	fff00793          	li	a5,-1
   115c8:	fdfc7c93          	andi	s9,s8,-33
   115cc:	72fd8a63          	beq	s11,a5,11d00 <_vfprintf_r+0x18ec>
   115d0:	04700793          	li	a5,71
   115d4:	70fc8a63          	beq	s9,a5,11ce8 <_vfprintf_r+0x18d4>
   115d8:	05813783          	ld	a5,88(sp)
   115dc:	100be293          	ori	t0,s7,256
   115e0:	02512423          	sw	t0,40(sp)
   115e4:	4207d793          	srai	a5,a5,0x20
   115e8:	05813407          	fld	fs0,88(sp)
   115ec:	00000493          	li	s1,0
   115f0:	7007c263          	bltz	a5,11cf4 <_vfprintf_r+0x18e0>
   115f4:	06600793          	li	a5,102
   115f8:	44fc0663          	beq	s8,a5,11a44 <_vfprintf_r+0x1630>
   115fc:	04600793          	li	a5,70
   11600:	44fc0263          	beq	s8,a5,11a44 <_vfprintf_r+0x1630>
   11604:	fbbc899b          	addiw	s3,s9,-69
   11608:	0019b993          	seqz	s3,s3
   1160c:	013d89bb          	addw	s3,s11,s3
   11610:	228405d3          	fmv.d	fa1,fs0
   11614:	08410793          	addi	a5,sp,132
   11618:	000a8513          	mv	a0,s5
   1161c:	00200613          	li	a2,2
   11620:	00098693          	mv	a3,s3
   11624:	08010713          	addi	a4,sp,128
   11628:	09010813          	addi	a6,sp,144
   1162c:	01113023          	sd	a7,0(sp)
   11630:	5d9000ef          	jal	12408 <_dtoa_r>
   11634:	06700793          	li	a5,103
   11638:	00050413          	mv	s0,a0
   1163c:	00013883          	ld	a7,0(sp)
   11640:	00fc0663          	beq	s8,a5,1164c <_vfprintf_r+0x1238>
   11644:	04700793          	li	a5,71
   11648:	42fc1663          	bne	s8,a5,11a74 <_vfprintf_r+0x1660>
   1164c:	03fb9693          	slli	a3,s7,0x3f
   11650:	01340633          	add	a2,s0,s3
   11654:	7006d063          	bgez	a3,11d54 <_vfprintf_r+0x1940>
   11658:	f2000053          	fmv.d.x	ft0,zero
   1165c:	00060793          	mv	a5,a2
   11660:	a2042753          	feq.d	a4,fs0,ft0
   11664:	02071263          	bnez	a4,11688 <_vfprintf_r+0x1274>
   11668:	09013783          	ld	a5,144(sp)
   1166c:	00c7fe63          	bleu	a2,a5,11688 <_vfprintf_r+0x1274>
   11670:	03000693          	li	a3,48
   11674:	00178713          	addi	a4,a5,1
   11678:	08e13823          	sd	a4,144(sp)
   1167c:	00d78023          	sb	a3,0(a5)
   11680:	09013783          	ld	a5,144(sp)
   11684:	fec7e8e3          	bltu	a5,a2,11674 <_vfprintf_r+0x1260>
   11688:	408787b3          	sub	a5,a5,s0
   1168c:	04f12223          	sw	a5,68(sp)
   11690:	04700793          	li	a5,71
   11694:	50fc8263          	beq	s9,a5,11b98 <_vfprintf_r+0x1784>
   11698:	06500793          	li	a5,101
   1169c:	7987d463          	ble	s8,a5,11e24 <_vfprintf_r+0x1a10>
   116a0:	06600793          	li	a5,102
   116a4:	68fc0863          	beq	s8,a5,11d34 <_vfprintf_r+0x1920>
   116a8:	08012283          	lw	t0,128(sp)
   116ac:	02512223          	sw	t0,36(sp)
   116b0:	04412683          	lw	a3,68(sp)
   116b4:	02412703          	lw	a4,36(sp)
   116b8:	64d74863          	blt	a4,a3,11d08 <_vfprintf_r+0x18f4>
   116bc:	03fb9793          	slli	a5,s7,0x3f
   116c0:	5007c663          	bltz	a5,11bcc <_vfprintf_r+0x17b8>
   116c4:	fff74993          	not	s3,a4
   116c8:	41f9d99b          	sraiw	s3,s3,0x1f
   116cc:	013779b3          	and	s3,a4,s3
   116d0:	03312023          	sw	s3,32(sp)
   116d4:	40048863          	beqz	s1,11ae4 <_vfprintf_r+0x16d0>
   116d8:	02d00793          	li	a5,45
   116dc:	02812b83          	lw	s7,40(sp)
   116e0:	06f10ba3          	sb	a5,119(sp)
   116e4:	03a13423          	sd	s10,40(sp)
   116e8:	04012023          	sw	zero,64(sp)
   116ec:	fe9fe06f          	j	106d4 <_vfprintf_r+0x2c0>
   116f0:	0007a703          	lw	a4,0(a5)
   116f4:	02813783          	ld	a5,40(sp)
   116f8:	00878793          	addi	a5,a5,8
   116fc:	02f13423          	sd	a5,40(sp)
   11700:	ddcff06f          	j	10cdc <_vfprintf_r+0x8c8>
   11704:	02813283          	ld	t0,40(sp)
   11708:	0007e703          	lwu	a4,0(a5)
   1170c:	00828293          	addi	t0,t0,8
   11710:	02513423          	sd	t0,40(sp)
   11714:	d84ff06f          	j	10c98 <_vfprintf_r+0x884>
   11718:	0a012783          	lw	a5,160(sp)
   1171c:	0001a337          	lui	t1,0x1a
   11720:	7a030993          	addi	s3,t1,1952 # 1a7a0 <zeroes.3950>
   11724:	00040693          	mv	a3,s0
   11728:	0087073b          	addw	a4,a4,s0
   1172c:	0017879b          	addiw	a5,a5,1
   11730:	0138b023          	sd	s3,0(a7)
   11734:	9c4ff06f          	j	108f8 <_vfprintf_r+0x4e4>
   11738:	02813283          	ld	t0,40(sp)
   1173c:	0007e703          	lwu	a4,0(a5)
   11740:	00100793          	li	a5,1
   11744:	00828293          	addi	t0,t0,8
   11748:	02513423          	sd	t0,40(sp)
   1174c:	f19fe06f          	j	10664 <_vfprintf_r+0x250>
   11750:	02813283          	ld	t0,40(sp)
   11754:	0007e703          	lwu	a4,0(a5)
   11758:	00000793          	li	a5,0
   1175c:	00828293          	addi	t0,t0,8
   11760:	02513423          	sd	t0,40(sp)
   11764:	f01fe06f          	j	10664 <_vfprintf_r+0x250>
   11768:	02813683          	ld	a3,40(sp)
   1176c:	039b9293          	slli	t0,s7,0x39
   11770:	0006b783          	ld	a5,0(a3)
   11774:	00868693          	addi	a3,a3,8
   11778:	02d13423          	sd	a3,40(sp)
   1177c:	1c02d263          	bgez	t0,11940 <_vfprintf_r+0x152c>
   11780:	03012283          	lw	t0,48(sp)
   11784:	00579023          	sh	t0,0(a5)
   11788:	da5fe06f          	j	1052c <_vfprintf_r+0x118>
   1178c:	00ec073b          	addw	a4,s8,a4
   11790:	0017879b          	addiw	a5,a5,1
   11794:	00700693          	li	a3,7
   11798:	0088b023          	sd	s0,0(a7)
   1179c:	0188b423          	sd	s8,8(a7)
   117a0:	0ae12223          	sw	a4,164(sp)
   117a4:	0af12023          	sw	a5,160(sp)
   117a8:	38f6c463          	blt	a3,a5,11b30 <_vfprintf_r+0x171c>
   117ac:	01088893          	addi	a7,a7,16
   117b0:	000c0693          	mv	a3,s8
   117b4:	05013283          	ld	t0,80(sp)
   117b8:	0017879b          	addiw	a5,a5,1
   117bc:	00d40433          	add	s0,s0,a3
   117c0:	00e2873b          	addw	a4,t0,a4
   117c4:	03813283          	ld	t0,56(sp)
   117c8:	00700693          	li	a3,7
   117cc:	0ae12223          	sw	a4,164(sp)
   117d0:	0058b023          	sd	t0,0(a7)
   117d4:	05013283          	ld	t0,80(sp)
   117d8:	0af12023          	sw	a5,160(sp)
   117dc:	01088893          	addi	a7,a7,16
   117e0:	fe58bc23          	sd	t0,-8(a7)
   117e4:	38f6c463          	blt	a3,a5,11b6c <_vfprintf_r+0x1758>
   117e8:	04412683          	lw	a3,68(sp)
   117ec:	0017879b          	addiw	a5,a5,1
   117f0:	0088b023          	sd	s0,0(a7)
   117f4:	41868c3b          	subw	s8,a3,s8
   117f8:	000c0693          	mv	a3,s8
   117fc:	00ec073b          	addw	a4,s8,a4
   11800:	8f8ff06f          	j	108f8 <_vfprintf_r+0x4e4>
   11804:	000a8513          	mv	a0,s5
   11808:	00090593          	mv	a1,s2
   1180c:	09810613          	addi	a2,sp,152
   11810:	329040ef          	jal	16338 <__sprint_r>
   11814:	b6051463          	bnez	a0,10b7c <_vfprintf_r+0x768>
   11818:	0a412703          	lw	a4,164(sp)
   1181c:	15010893          	addi	a7,sp,336
   11820:	889ff06f          	j	110a8 <_vfprintf_r+0xc94>
   11824:	0001b6b7          	lui	a3,0x1b
   11828:	c4868693          	addi	a3,a3,-952 # 1ac48 <__clz_tab+0x160>
   1182c:	00d8b023          	sd	a3,0(a7)
   11830:	00100693          	li	a3,1
   11834:	00d8b423          	sd	a3,8(a7)
   11838:	0017071b          	addiw	a4,a4,1
   1183c:	0017879b          	addiw	a5,a5,1
   11840:	00700693          	li	a3,7
   11844:	0ae12223          	sw	a4,164(sp)
   11848:	0af12023          	sw	a5,160(sp)
   1184c:	01088893          	addi	a7,a7,16
   11850:	12f6c063          	blt	a3,a5,11970 <_vfprintf_r+0x155c>
   11854:	100c0263          	beqz	s8,11958 <_vfprintf_r+0x1544>
   11858:	05013283          	ld	t0,80(sp)
   1185c:	0a012783          	lw	a5,160(sp)
   11860:	00700693          	li	a3,7
   11864:	00e2873b          	addw	a4,t0,a4
   11868:	03813283          	ld	t0,56(sp)
   1186c:	0017879b          	addiw	a5,a5,1
   11870:	0ae12223          	sw	a4,164(sp)
   11874:	0058b023          	sd	t0,0(a7)
   11878:	05013283          	ld	t0,80(sp)
   1187c:	0af12023          	sw	a5,160(sp)
   11880:	01088893          	addi	a7,a7,16
   11884:	fe58bc23          	sd	t0,-8(a7)
   11888:	42f6ca63          	blt	a3,a5,11cbc <_vfprintf_r+0x18a8>
   1188c:	41800c3b          	negw	s8,s8
   11890:	17805663          	blez	s8,119fc <_vfprintf_r+0x15e8>
   11894:	0001a337          	lui	t1,0x1a
   11898:	01000693          	li	a3,16
   1189c:	7a030993          	addi	s3,t1,1952 # 1a7a0 <zeroes.3950>
   118a0:	1186dc63          	ble	s8,a3,119b8 <_vfprintf_r+0x15a4>
   118a4:	01000c93          	li	s9,16
   118a8:	0001a337          	lui	t1,0x1a
   118ac:	7a030993          	addi	s3,t1,1952 # 1a7a0 <zeroes.3950>
   118b0:	00700d93          	li	s11,7
   118b4:	000c8d13          	mv	s10,s9
   118b8:	00c0006f          	j	118c4 <_vfprintf_r+0x14b0>
   118bc:	ff0c0c1b          	addiw	s8,s8,-16
   118c0:	0f8d5c63          	ble	s8,s10,119b8 <_vfprintf_r+0x15a4>
   118c4:	0107071b          	addiw	a4,a4,16
   118c8:	0017879b          	addiw	a5,a5,1
   118cc:	0138b023          	sd	s3,0(a7)
   118d0:	0198b423          	sd	s9,8(a7)
   118d4:	0ae12223          	sw	a4,164(sp)
   118d8:	0af12023          	sw	a5,160(sp)
   118dc:	01088893          	addi	a7,a7,16
   118e0:	fcfddee3          	ble	a5,s11,118bc <_vfprintf_r+0x14a8>
   118e4:	000a8513          	mv	a0,s5
   118e8:	00090593          	mv	a1,s2
   118ec:	09810613          	addi	a2,sp,152
   118f0:	249040ef          	jal	16338 <__sprint_r>
   118f4:	a8051463          	bnez	a0,10b7c <_vfprintf_r+0x768>
   118f8:	0a412703          	lw	a4,164(sp)
   118fc:	0a012783          	lw	a5,160(sp)
   11900:	15010893          	addi	a7,sp,336
   11904:	fb9ff06f          	j	118bc <_vfprintf_r+0x14a8>
   11908:	04700793          	li	a5,71
   1190c:	2587ca63          	blt	a5,s8,11b60 <_vfprintf_r+0x174c>
   11910:	0001b437          	lui	s0,0x1b
   11914:	c0040413          	addi	s0,s0,-1024 # 1ac00 <__clz_tab+0x118>
   11918:	00300693          	li	a3,3
   1191c:	02d12023          	sw	a3,32(sp)
   11920:	f7fbfb93          	andi	s7,s7,-129
   11924:	07714583          	lbu	a1,119(sp)
   11928:	03a13423          	sd	s10,40(sp)
   1192c:	02d12223          	sw	a3,36(sp)
   11930:	04012023          	sw	zero,64(sp)
   11934:	d9dfe06f          	j	106d0 <_vfprintf_r+0x2bc>
   11938:	03b12223          	sw	s11,36(sp)
   1193c:	d34ff06f          	j	10e70 <_vfprintf_r+0xa5c>
   11940:	03012283          	lw	t0,48(sp)
   11944:	0057a023          	sw	t0,0(a5)
   11948:	be5fe06f          	j	1052c <_vfprintf_r+0x118>
   1194c:	0001b437          	lui	s0,0x1b
   11950:	bf040413          	addi	s0,s0,-1040 # 1abf0 <__clz_tab+0x108>
   11954:	cbcff06f          	j	10e10 <_vfprintf_r+0x9fc>
   11958:	04412783          	lw	a5,68(sp)
   1195c:	ee079ee3          	bnez	a5,11858 <_vfprintf_r+0x1444>
   11960:	03fb9813          	slli	a6,s7,0x3f
   11964:	00084463          	bltz	a6,1196c <_vfprintf_r+0x1558>
   11968:	fa9fe06f          	j	10910 <_vfprintf_r+0x4fc>
   1196c:	eedff06f          	j	11858 <_vfprintf_r+0x1444>
   11970:	000a8513          	mv	a0,s5
   11974:	00090593          	mv	a1,s2
   11978:	09810613          	addi	a2,sp,152
   1197c:	1bd040ef          	jal	16338 <__sprint_r>
   11980:	9e051e63          	bnez	a0,10b7c <_vfprintf_r+0x768>
   11984:	08012c03          	lw	s8,128(sp)
   11988:	0a412703          	lw	a4,164(sp)
   1198c:	15010893          	addi	a7,sp,336
   11990:	ec0c14e3          	bnez	s8,11858 <_vfprintf_r+0x1444>
   11994:	fc5ff06f          	j	11958 <_vfprintf_r+0x1544>
   11998:	000a8513          	mv	a0,s5
   1199c:	00090593          	mv	a1,s2
   119a0:	09810613          	addi	a2,sp,152
   119a4:	195040ef          	jal	16338 <__sprint_r>
   119a8:	9c051a63          	bnez	a0,10b7c <_vfprintf_r+0x768>
   119ac:	0a412703          	lw	a4,164(sp)
   119b0:	15010893          	addi	a7,sp,336
   119b4:	f3cff06f          	j	110f0 <_vfprintf_r+0xcdc>
   119b8:	0187073b          	addw	a4,a4,s8
   119bc:	0017879b          	addiw	a5,a5,1
   119c0:	00700693          	li	a3,7
   119c4:	0138b023          	sd	s3,0(a7)
   119c8:	0188b423          	sd	s8,8(a7)
   119cc:	0ae12223          	sw	a4,164(sp)
   119d0:	0af12023          	sw	a5,160(sp)
   119d4:	01088893          	addi	a7,a7,16
   119d8:	02f6d263          	ble	a5,a3,119fc <_vfprintf_r+0x15e8>
   119dc:	000a8513          	mv	a0,s5
   119e0:	00090593          	mv	a1,s2
   119e4:	09810613          	addi	a2,sp,152
   119e8:	151040ef          	jal	16338 <__sprint_r>
   119ec:	98051863          	bnez	a0,10b7c <_vfprintf_r+0x768>
   119f0:	0a412703          	lw	a4,164(sp)
   119f4:	0a012783          	lw	a5,160(sp)
   119f8:	15010893          	addi	a7,sp,336
   119fc:	04412683          	lw	a3,68(sp)
   11a00:	0017879b          	addiw	a5,a5,1
   11a04:	0088b023          	sd	s0,0(a7)
   11a08:	00e6873b          	addw	a4,a3,a4
   11a0c:	eedfe06f          	j	108f8 <_vfprintf_r+0x4e4>
   11a10:	01113023          	sd	a7,0(sp)
   11a14:	76c040ef          	jal	16180 <strlen>
   11a18:	02a12223          	sw	a0,36(sp)
   11a1c:	02412283          	lw	t0,36(sp)
   11a20:	07714583          	lbu	a1,119(sp)
   11a24:	03a13423          	sd	s10,40(sp)
   11a28:	fff2c993          	not	s3,t0
   11a2c:	41f9d99b          	sraiw	s3,s3,0x1f
   11a30:	0132f9b3          	and	s3,t0,s3
   11a34:	03312023          	sw	s3,32(sp)
   11a38:	04012023          	sw	zero,64(sp)
   11a3c:	00013883          	ld	a7,0(sp)
   11a40:	c91fe06f          	j	106d0 <_vfprintf_r+0x2bc>
   11a44:	228405d3          	fmv.d	fa1,fs0
   11a48:	000a8513          	mv	a0,s5
   11a4c:	00300613          	li	a2,3
   11a50:	000d8693          	mv	a3,s11
   11a54:	08010713          	addi	a4,sp,128
   11a58:	08410793          	addi	a5,sp,132
   11a5c:	09010813          	addi	a6,sp,144
   11a60:	01113023          	sd	a7,0(sp)
   11a64:	1a5000ef          	jal	12408 <_dtoa_r>
   11a68:	00013883          	ld	a7,0(sp)
   11a6c:	00050413          	mv	s0,a0
   11a70:	000d8993          	mv	s3,s11
   11a74:	04600793          	li	a5,70
   11a78:	01340633          	add	a2,s0,s3
   11a7c:	bcfc9ee3          	bne	s9,a5,11658 <_vfprintf_r+0x1244>
   11a80:	00044703          	lbu	a4,0(s0)
   11a84:	03000793          	li	a5,48
   11a88:	2cf70a63          	beq	a4,a5,11d5c <_vfprintf_r+0x1948>
   11a8c:	08012983          	lw	s3,128(sp)
   11a90:	01360633          	add	a2,a2,s3
   11a94:	bc5ff06f          	j	11658 <_vfprintf_r+0x1244>
   11a98:	0a012783          	lw	a5,160(sp)
   11a9c:	05613423          	sd	s6,72(sp)
   11aa0:	ce9fe06f          	j	10788 <_vfprintf_r+0x374>
   11aa4:	00600713          	li	a4,6
   11aa8:	000d8793          	mv	a5,s11
   11aac:	01b77463          	bleu	s11,a4,11ab4 <_vfprintf_r+0x16a0>
   11ab0:	00070793          	mv	a5,a4
   11ab4:	fff7c993          	not	s3,a5
   11ab8:	41f9d99b          	sraiw	s3,s3,0x1f
   11abc:	0137f9b3          	and	s3,a5,s3
   11ac0:	0001b437          	lui	s0,0x1b
   11ac4:	02f12223          	sw	a5,36(sp)
   11ac8:	03312023          	sw	s3,32(sp)
   11acc:	03a13423          	sd	s10,40(sp)
   11ad0:	c4040413          	addi	s0,s0,-960 # 1ac40 <__clz_tab+0x158>
   11ad4:	938ff06f          	j	10c0c <_vfprintf_r+0x7f8>
   11ad8:	0a012783          	lw	a5,160(sp)
   11adc:	05613423          	sd	s6,72(sp)
   11ae0:	ebdfe06f          	j	1099c <_vfprintf_r+0x588>
   11ae4:	02812b83          	lw	s7,40(sp)
   11ae8:	07714583          	lbu	a1,119(sp)
   11aec:	03a13423          	sd	s10,40(sp)
   11af0:	04012023          	sw	zero,64(sp)
   11af4:	bddfe06f          	j	106d0 <_vfprintf_r+0x2bc>
   11af8:	02d00793          	li	a5,45
   11afc:	06f10ba3          	sb	a5,119(sp)
   11b00:	02d00593          	li	a1,45
   11b04:	afcff06f          	j	10e00 <_vfprintf_r+0x9ec>
   11b08:	000a8513          	mv	a0,s5
   11b0c:	00090593          	mv	a1,s2
   11b10:	09810613          	addi	a2,sp,152
   11b14:	025040ef          	jal	16338 <__sprint_r>
   11b18:	00050463          	beqz	a0,11b20 <_vfprintf_r+0x170c>
   11b1c:	860ff06f          	j	10b7c <_vfprintf_r+0x768>
   11b20:	08012c03          	lw	s8,128(sp)
   11b24:	0a412703          	lw	a4,164(sp)
   11b28:	15010893          	addi	a7,sp,336
   11b2c:	909ff06f          	j	11434 <_vfprintf_r+0x1020>
   11b30:	000a8513          	mv	a0,s5
   11b34:	00090593          	mv	a1,s2
   11b38:	09810613          	addi	a2,sp,152
   11b3c:	7fc040ef          	jal	16338 <__sprint_r>
   11b40:	00050463          	beqz	a0,11b48 <_vfprintf_r+0x1734>
   11b44:	838ff06f          	j	10b7c <_vfprintf_r+0x768>
   11b48:	08012c03          	lw	s8,128(sp)
   11b4c:	0a412703          	lw	a4,164(sp)
   11b50:	0a012783          	lw	a5,160(sp)
   11b54:	000c0693          	mv	a3,s8
   11b58:	15010893          	addi	a7,sp,336
   11b5c:	c59ff06f          	j	117b4 <_vfprintf_r+0x13a0>
   11b60:	0001b437          	lui	s0,0x1b
   11b64:	c0840413          	addi	s0,s0,-1016 # 1ac08 <__clz_tab+0x120>
   11b68:	db1ff06f          	j	11918 <_vfprintf_r+0x1504>
   11b6c:	000a8513          	mv	a0,s5
   11b70:	00090593          	mv	a1,s2
   11b74:	09810613          	addi	a2,sp,152
   11b78:	7c0040ef          	jal	16338 <__sprint_r>
   11b7c:	00050463          	beqz	a0,11b84 <_vfprintf_r+0x1770>
   11b80:	ffdfe06f          	j	10b7c <_vfprintf_r+0x768>
   11b84:	08012c03          	lw	s8,128(sp)
   11b88:	0a412703          	lw	a4,164(sp)
   11b8c:	0a012783          	lw	a5,160(sp)
   11b90:	15010893          	addi	a7,sp,336
   11b94:	c55ff06f          	j	117e8 <_vfprintf_r+0x13d4>
   11b98:	08012c83          	lw	s9,128(sp)
   11b9c:	ffd00793          	li	a5,-3
   11ba0:	04fcc663          	blt	s9,a5,11bec <_vfprintf_r+0x17d8>
   11ba4:	059dc463          	blt	s11,s9,11bec <_vfprintf_r+0x17d8>
   11ba8:	03912223          	sw	s9,36(sp)
   11bac:	06700c13          	li	s8,103
   11bb0:	b01ff06f          	j	116b0 <_vfprintf_r+0x129c>
   11bb4:	03b12023          	sw	s11,32(sp)
   11bb8:	07714583          	lbu	a1,119(sp)
   11bbc:	03b12223          	sw	s11,36(sp)
   11bc0:	03a13423          	sd	s10,40(sp)
   11bc4:	04012023          	sw	zero,64(sp)
   11bc8:	b09fe06f          	j	106d0 <_vfprintf_r+0x2bc>
   11bcc:	02412803          	lw	a6,36(sp)
   11bd0:	0018081b          	addiw	a6,a6,1
   11bd4:	fff84993          	not	s3,a6
   11bd8:	41f9d99b          	sraiw	s3,s3,0x1f
   11bdc:	013879b3          	and	s3,a6,s3
   11be0:	03012223          	sw	a6,36(sp)
   11be4:	03312023          	sw	s3,32(sp)
   11be8:	aedff06f          	j	116d4 <_vfprintf_r+0x12c0>
   11bec:	ffec0c1b          	addiw	s8,s8,-2
   11bf0:	fffc8c9b          	addiw	s9,s9,-1
   11bf4:	09912023          	sw	s9,128(sp)
   11bf8:	09810423          	sb	s8,136(sp)
   11bfc:	200cc263          	bltz	s9,11e00 <_vfprintf_r+0x19ec>
   11c00:	02b00793          	li	a5,43
   11c04:	08f104a3          	sb	a5,137(sp)
   11c08:	00900693          	li	a3,9
   11c0c:	1796d863          	ble	s9,a3,11d7c <_vfprintf_r+0x1968>
   11c10:	09710613          	addi	a2,sp,151
   11c14:	00060793          	mv	a5,a2
   11c18:	00a00593          	li	a1,10
   11c1c:	02bce73b          	remw	a4,s9,a1
   11c20:	fff78793          	addi	a5,a5,-1
   11c24:	02bcccbb          	divw	s9,s9,a1
   11c28:	0307071b          	addiw	a4,a4,48
   11c2c:	00e78023          	sb	a4,0(a5)
   11c30:	ff96c6e3          	blt	a3,s9,11c1c <_vfprintf_r+0x1808>
   11c34:	030c8c9b          	addiw	s9,s9,48
   11c38:	0ffcfc93          	andi	s9,s9,255
   11c3c:	fff78713          	addi	a4,a5,-1
   11c40:	ff978fa3          	sb	s9,-1(a5)
   11c44:	1cc77c63          	bleu	a2,a4,11e1c <_vfprintf_r+0x1a08>
   11c48:	08a10693          	addi	a3,sp,138
   11c4c:	0080006f          	j	11c54 <_vfprintf_r+0x1840>
   11c50:	00074c83          	lbu	s9,0(a4)
   11c54:	00168693          	addi	a3,a3,1
   11c58:	00170713          	addi	a4,a4,1
   11c5c:	ff968fa3          	sb	s9,-1(a3)
   11c60:	fec718e3          	bne	a4,a2,11c50 <_vfprintf_r+0x183c>
   11c64:	09810713          	addi	a4,sp,152
   11c68:	40f707b3          	sub	a5,a4,a5
   11c6c:	08a10613          	addi	a2,sp,138
   11c70:	00f607b3          	add	a5,a2,a5
   11c74:	08810713          	addi	a4,sp,136
   11c78:	40e787b3          	sub	a5,a5,a4
   11c7c:	06f12423          	sw	a5,104(sp)
   11c80:	04412683          	lw	a3,68(sp)
   11c84:	06812283          	lw	t0,104(sp)
   11c88:	00100793          	li	a5,1
   11c8c:	005686bb          	addw	a3,a3,t0
   11c90:	02d12223          	sw	a3,36(sp)
   11c94:	04412683          	lw	a3,68(sp)
   11c98:	f2d7cae3          	blt	a5,a3,11bcc <_vfprintf_r+0x17b8>
   11c9c:	03fb9713          	slli	a4,s7,0x3f
   11ca0:	f20746e3          	bltz	a4,11bcc <_vfprintf_r+0x17b8>
   11ca4:	02412783          	lw	a5,36(sp)
   11ca8:	fff7c993          	not	s3,a5
   11cac:	41f9d99b          	sraiw	s3,s3,0x1f
   11cb0:	0137f9b3          	and	s3,a5,s3
   11cb4:	03312023          	sw	s3,32(sp)
   11cb8:	a1dff06f          	j	116d4 <_vfprintf_r+0x12c0>
   11cbc:	000a8513          	mv	a0,s5
   11cc0:	00090593          	mv	a1,s2
   11cc4:	09810613          	addi	a2,sp,152
   11cc8:	670040ef          	jal	16338 <__sprint_r>
   11ccc:	00050463          	beqz	a0,11cd4 <_vfprintf_r+0x18c0>
   11cd0:	eadfe06f          	j	10b7c <_vfprintf_r+0x768>
   11cd4:	08012c03          	lw	s8,128(sp)
   11cd8:	0a412703          	lw	a4,164(sp)
   11cdc:	0a012783          	lw	a5,160(sp)
   11ce0:	15010893          	addi	a7,sp,336
   11ce4:	ba9ff06f          	j	1188c <_vfprintf_r+0x1478>
   11ce8:	8e0d98e3          	bnez	s11,115d8 <_vfprintf_r+0x11c4>
   11cec:	00040d93          	mv	s11,s0
   11cf0:	8e9ff06f          	j	115d8 <_vfprintf_r+0x11c4>
   11cf4:	22841453          	fneg.d	fs0,fs0
   11cf8:	02d00493          	li	s1,45
   11cfc:	8f9ff06f          	j	115f4 <_vfprintf_r+0x11e0>
   11d00:	00600d93          	li	s11,6
   11d04:	8d5ff06f          	j	115d8 <_vfprintf_r+0x11c4>
   11d08:	02412283          	lw	t0,36(sp)
   11d0c:	00100793          	li	a5,1
   11d10:	10505063          	blez	t0,11e10 <_vfprintf_r+0x19fc>
   11d14:	04412683          	lw	a3,68(sp)
   11d18:	00d787bb          	addw	a5,a5,a3
   11d1c:	fff7c993          	not	s3,a5
   11d20:	41f9d99b          	sraiw	s3,s3,0x1f
   11d24:	0137f9b3          	and	s3,a5,s3
   11d28:	02f12223          	sw	a5,36(sp)
   11d2c:	03312023          	sw	s3,32(sp)
   11d30:	9a5ff06f          	j	116d4 <_vfprintf_r+0x12c0>
   11d34:	08012683          	lw	a3,128(sp)
   11d38:	02d12223          	sw	a3,36(sp)
   11d3c:	06d05863          	blez	a3,11dac <_vfprintf_r+0x1998>
   11d40:	040d9a63          	bnez	s11,11d94 <_vfprintf_r+0x1980>
   11d44:	03fb9713          	slli	a4,s7,0x3f
   11d48:	04074663          	bltz	a4,11d94 <_vfprintf_r+0x1980>
   11d4c:	02d12023          	sw	a3,32(sp)
   11d50:	985ff06f          	j	116d4 <_vfprintf_r+0x12c0>
   11d54:	09013783          	ld	a5,144(sp)
   11d58:	931ff06f          	j	11688 <_vfprintf_r+0x1274>
   11d5c:	f2000053          	fmv.d.x	ft0,zero
   11d60:	a20427d3          	feq.d	a5,fs0,ft0
   11d64:	d20794e3          	bnez	a5,11a8c <_vfprintf_r+0x1678>
   11d68:	00100793          	li	a5,1
   11d6c:	413789bb          	subw	s3,a5,s3
   11d70:	09312023          	sw	s3,128(sp)
   11d74:	01360633          	add	a2,a2,s3
   11d78:	8e1ff06f          	j	11658 <_vfprintf_r+0x1244>
   11d7c:	03000793          	li	a5,48
   11d80:	030c8c9b          	addiw	s9,s9,48
   11d84:	08f10523          	sb	a5,138(sp)
   11d88:	099105a3          	sb	s9,139(sp)
   11d8c:	08c10793          	addi	a5,sp,140
   11d90:	ee5ff06f          	j	11c74 <_vfprintf_r+0x1860>
   11d94:	02412803          	lw	a6,36(sp)
   11d98:	001d879b          	addiw	a5,s11,1
   11d9c:	00f8083b          	addw	a6,a6,a5
   11da0:	e35ff06f          	j	11bd4 <_vfprintf_r+0x17c0>
   11da4:	fff00413          	li	s0,-1
   11da8:	d3dfe06f          	j	10ae4 <_vfprintf_r+0x6d0>
   11dac:	000d9c63          	bnez	s11,11dc4 <_vfprintf_r+0x19b0>
   11db0:	00100293          	li	t0,1
   11db4:	03fb9613          	slli	a2,s7,0x3f
   11db8:	02512023          	sw	t0,32(sp)
   11dbc:	02512223          	sw	t0,36(sp)
   11dc0:	90065ae3          	bgez	a2,116d4 <_vfprintf_r+0x12c0>
   11dc4:	002d8d9b          	addiw	s11,s11,2
   11dc8:	fffdc993          	not	s3,s11
   11dcc:	41f9d99b          	sraiw	s3,s3,0x1f
   11dd0:	013df9b3          	and	s3,s11,s3
   11dd4:	03b12223          	sw	s11,36(sp)
   11dd8:	03312023          	sw	s3,32(sp)
   11ddc:	8f9ff06f          	j	116d4 <_vfprintf_r+0x12c0>
   11de0:	02813283          	ld	t0,40(sp)
   11de4:	0002ad83          	lw	s11,0(t0)
   11de8:	00828293          	addi	t0,t0,8
   11dec:	02513423          	sd	t0,40(sp)
   11df0:	000dc463          	bltz	s11,11df8 <_vfprintf_r+0x19e4>
   11df4:	fd0fe06f          	j	105c4 <_vfprintf_r+0x1b0>
   11df8:	fff00d93          	li	s11,-1
   11dfc:	fc8fe06f          	j	105c4 <_vfprintf_r+0x1b0>
   11e00:	02d00793          	li	a5,45
   11e04:	41900cbb          	negw	s9,s9
   11e08:	08f104a3          	sb	a5,137(sp)
   11e0c:	dfdff06f          	j	11c08 <_vfprintf_r+0x17f4>
   11e10:	00200793          	li	a5,2
   11e14:	405787bb          	subw	a5,a5,t0
   11e18:	efdff06f          	j	11d14 <_vfprintf_r+0x1900>
   11e1c:	08a10793          	addi	a5,sp,138
   11e20:	e55ff06f          	j	11c74 <_vfprintf_r+0x1860>
   11e24:	08012c83          	lw	s9,128(sp)
   11e28:	dc9ff06f          	j	11bf0 <_vfprintf_r+0x17dc>

0000000000011e2c <vfprintf>:
   11e2c:	00050713          	mv	a4,a0
   11e30:	8101b503          	ld	a0,-2032(gp) # 1d070 <_impure_ptr>
   11e34:	00058793          	mv	a5,a1
   11e38:	00060693          	mv	a3,a2
   11e3c:	00070593          	mv	a1,a4
   11e40:	00078613          	mv	a2,a5
   11e44:	dd0fe06f          	j	10414 <_vfprintf_r>

0000000000011e48 <__swsetup_r>:
   11e48:	8101b783          	ld	a5,-2032(gp) # 1d070 <_impure_ptr>
   11e4c:	fe010113          	addi	sp,sp,-32
   11e50:	00813823          	sd	s0,16(sp)
   11e54:	00913423          	sd	s1,8(sp)
   11e58:	00113c23          	sd	ra,24(sp)
   11e5c:	00050493          	mv	s1,a0
   11e60:	00058413          	mv	s0,a1
   11e64:	00078663          	beqz	a5,11e70 <__swsetup_r+0x28>
   11e68:	0507a703          	lw	a4,80(a5)
   11e6c:	0c070c63          	beqz	a4,11f44 <__swsetup_r+0xfc>
   11e70:	01041703          	lh	a4,16(s0)
   11e74:	03071793          	slli	a5,a4,0x30
   11e78:	0307d793          	srli	a5,a5,0x30
   11e7c:	0087f693          	andi	a3,a5,8
   11e80:	04068263          	beqz	a3,11ec4 <__swsetup_r+0x7c>
   11e84:	01843683          	ld	a3,24(s0)
   11e88:	06068663          	beqz	a3,11ef4 <__swsetup_r+0xac>
   11e8c:	03f79713          	slli	a4,a5,0x3f
   11e90:	08074463          	bltz	a4,11f18 <__swsetup_r+0xd0>
   11e94:	0027f793          	andi	a5,a5,2
   11e98:	00000713          	li	a4,0
   11e9c:	00079463          	bnez	a5,11ea4 <__swsetup_r+0x5c>
   11ea0:	02042703          	lw	a4,32(s0)
   11ea4:	00e42623          	sw	a4,12(s0)
   11ea8:	00000513          	li	a0,0
   11eac:	08068263          	beqz	a3,11f30 <__swsetup_r+0xe8>
   11eb0:	01813083          	ld	ra,24(sp)
   11eb4:	01013403          	ld	s0,16(sp)
   11eb8:	00813483          	ld	s1,8(sp)
   11ebc:	02010113          	addi	sp,sp,32
   11ec0:	00008067          	ret
   11ec4:	0107f693          	andi	a3,a5,16
   11ec8:	06068a63          	beqz	a3,11f3c <__swsetup_r+0xf4>
   11ecc:	0047f793          	andi	a5,a5,4
   11ed0:	08079063          	bnez	a5,11f50 <__swsetup_r+0x108>
   11ed4:	01843683          	ld	a3,24(s0)
   11ed8:	00876793          	ori	a5,a4,8
   11edc:	0107979b          	slliw	a5,a5,0x10
   11ee0:	4107d79b          	sraiw	a5,a5,0x10
   11ee4:	00f41823          	sh	a5,16(s0)
   11ee8:	03079793          	slli	a5,a5,0x30
   11eec:	0307d793          	srli	a5,a5,0x30
   11ef0:	f8069ee3          	bnez	a3,11e8c <__swsetup_r+0x44>
   11ef4:	2807f613          	andi	a2,a5,640
   11ef8:	20000713          	li	a4,512
   11efc:	f8e608e3          	beq	a2,a4,11e8c <__swsetup_r+0x44>
   11f00:	00048513          	mv	a0,s1
   11f04:	00040593          	mv	a1,s0
   11f08:	2b4020ef          	jal	141bc <__smakebuf_r>
   11f0c:	01045783          	lhu	a5,16(s0)
   11f10:	01843683          	ld	a3,24(s0)
   11f14:	f79ff06f          	j	11e8c <__swsetup_r+0x44>
   11f18:	02042783          	lw	a5,32(s0)
   11f1c:	00042623          	sw	zero,12(s0)
   11f20:	00000513          	li	a0,0
   11f24:	40f007bb          	negw	a5,a5
   11f28:	02f42423          	sw	a5,40(s0)
   11f2c:	f80692e3          	bnez	a3,11eb0 <__swsetup_r+0x68>
   11f30:	01045783          	lhu	a5,16(s0)
   11f34:	0807f793          	andi	a5,a5,128
   11f38:	f6078ce3          	beqz	a5,11eb0 <__swsetup_r+0x68>
   11f3c:	fff00513          	li	a0,-1
   11f40:	f71ff06f          	j	11eb0 <__swsetup_r+0x68>
   11f44:	00078513          	mv	a0,a5
   11f48:	3e1010ef          	jal	13b28 <__sinit>
   11f4c:	f25ff06f          	j	11e70 <__swsetup_r+0x28>
   11f50:	05843583          	ld	a1,88(s0)
   11f54:	00058e63          	beqz	a1,11f70 <__swsetup_r+0x128>
   11f58:	07440793          	addi	a5,s0,116
   11f5c:	00f58863          	beq	a1,a5,11f6c <__swsetup_r+0x124>
   11f60:	00048513          	mv	a0,s1
   11f64:	51d010ef          	jal	13c80 <_free_r>
   11f68:	01041703          	lh	a4,16(s0)
   11f6c:	04043c23          	sd	zero,88(s0)
   11f70:	01843683          	ld	a3,24(s0)
   11f74:	fdb77713          	andi	a4,a4,-37
   11f78:	0107171b          	slliw	a4,a4,0x10
   11f7c:	4107571b          	sraiw	a4,a4,0x10
   11f80:	00042423          	sw	zero,8(s0)
   11f84:	00d43023          	sd	a3,0(s0)
   11f88:	f51ff06f          	j	11ed8 <__swsetup_r+0x90>

0000000000011f8c <__register_exitproc>:
   11f8c:	fc010113          	addi	sp,sp,-64
   11f90:	02813823          	sd	s0,48(sp)
   11f94:	8081b403          	ld	s0,-2040(gp) # 1d068 <_global_impure_ptr>
   11f98:	02913423          	sd	s1,40(sp)
   11f9c:	02113c23          	sd	ra,56(sp)
   11fa0:	1f843783          	ld	a5,504(s0)
   11fa4:	00050493          	mv	s1,a0
   11fa8:	0c078a63          	beqz	a5,1207c <__register_exitproc+0xf0>
   11fac:	0087a803          	lw	a6,8(a5)
   11fb0:	01f00713          	li	a4,31
   11fb4:	0018089b          	addiw	a7,a6,1
   11fb8:	05075a63          	ble	a6,a4,1200c <__register_exitproc+0x80>
   11fbc:	00000793          	li	a5,0
   11fc0:	0c078463          	beqz	a5,12088 <__register_exitproc+0xfc>
   11fc4:	31800513          	li	a0,792
   11fc8:	00b13c23          	sd	a1,24(sp)
   11fcc:	00c13823          	sd	a2,16(sp)
   11fd0:	00d13423          	sd	a3,8(sp)
   11fd4:	82cee0ef          	jal	0 <_ftext-0x10000>
   11fd8:	00050793          	mv	a5,a0
   11fdc:	01813583          	ld	a1,24(sp)
   11fe0:	01013603          	ld	a2,16(sp)
   11fe4:	00813683          	ld	a3,8(sp)
   11fe8:	0a050063          	beqz	a0,12088 <__register_exitproc+0xfc>
   11fec:	1f843703          	ld	a4,504(s0)
   11ff0:	00100893          	li	a7,1
   11ff4:	00052423          	sw	zero,8(a0)
   11ff8:	00e53023          	sd	a4,0(a0)
   11ffc:	00000813          	li	a6,0
   12000:	1ea43c23          	sd	a0,504(s0)
   12004:	30052823          	sw	zero,784(a0)
   12008:	30052a23          	sw	zero,788(a0)
   1200c:	00080713          	mv	a4,a6
   12010:	02049863          	bnez	s1,12040 <__register_exitproc+0xb4>
   12014:	00270713          	addi	a4,a4,2
   12018:	00371713          	slli	a4,a4,0x3
   1201c:	00e78733          	add	a4,a5,a4
   12020:	0117a423          	sw	a7,8(a5)
   12024:	00000513          	li	a0,0
   12028:	00b73023          	sd	a1,0(a4)
   1202c:	03813083          	ld	ra,56(sp)
   12030:	03013403          	ld	s0,48(sp)
   12034:	02813483          	ld	s1,40(sp)
   12038:	04010113          	addi	sp,sp,64
   1203c:	00008067          	ret
   12040:	00381513          	slli	a0,a6,0x3
   12044:	00a78533          	add	a0,a5,a0
   12048:	10c53823          	sd	a2,272(a0)
   1204c:	3107a283          	lw	t0,784(a5)
   12050:	00100613          	li	a2,1
   12054:	0106183b          	sllw	a6,a2,a6
   12058:	0102e633          	or	a2,t0,a6
   1205c:	30c7a823          	sw	a2,784(a5)
   12060:	20d53823          	sd	a3,528(a0)
   12064:	00200693          	li	a3,2
   12068:	fad496e3          	bne	s1,a3,12014 <__register_exitproc+0x88>
   1206c:	3147a683          	lw	a3,788(a5)
   12070:	0106e833          	or	a6,a3,a6
   12074:	3107aa23          	sw	a6,788(a5)
   12078:	f9dff06f          	j	12014 <__register_exitproc+0x88>
   1207c:	20040793          	addi	a5,s0,512
   12080:	1ef43c23          	sd	a5,504(s0)
   12084:	f29ff06f          	j	11fac <__register_exitproc+0x20>
   12088:	fff00513          	li	a0,-1
   1208c:	fa1ff06f          	j	1202c <__register_exitproc+0xa0>

0000000000012090 <__call_exitprocs>:
   12090:	fa010113          	addi	sp,sp,-96
   12094:	03313c23          	sd	s3,56(sp)
   12098:	8081b983          	ld	s3,-2040(gp) # 1d068 <_global_impure_ptr>
   1209c:	05213023          	sd	s2,64(sp)
   120a0:	04913423          	sd	s1,72(sp)
   120a4:	03413823          	sd	s4,48(sp)
   120a8:	03513423          	sd	s5,40(sp)
   120ac:	01713c23          	sd	s7,24(sp)
   120b0:	01813823          	sd	s8,16(sp)
   120b4:	04113c23          	sd	ra,88(sp)
   120b8:	04813823          	sd	s0,80(sp)
   120bc:	03613023          	sd	s6,32(sp)
   120c0:	01913423          	sd	s9,8(sp)
   120c4:	01a13023          	sd	s10,0(sp)
   120c8:	00050493          	mv	s1,a0
   120cc:	00058b93          	mv	s7,a1
   120d0:	1f898a13          	addi	s4,s3,504
   120d4:	00100a93          	li	s5,1
   120d8:	fff00c13          	li	s8,-1
   120dc:	00000913          	li	s2,0
   120e0:	1f89bb03          	ld	s6,504(s3)
   120e4:	0a0b0a63          	beqz	s6,12198 <__call_exitprocs+0x108>
   120e8:	000a0d13          	mv	s10,s4
   120ec:	008b2403          	lw	s0,8(s6)
   120f0:	fff4041b          	addiw	s0,s0,-1
   120f4:	02045263          	bgez	s0,12118 <__call_exitprocs+0x88>
   120f8:	0780006f          	j	12170 <__call_exitprocs+0xe0>
   120fc:	02040793          	addi	a5,s0,32
   12100:	00379793          	slli	a5,a5,0x3
   12104:	00fb07b3          	add	a5,s6,a5
   12108:	1107b783          	ld	a5,272(a5)
   1210c:	01778a63          	beq	a5,s7,12120 <__call_exitprocs+0x90>
   12110:	fff4041b          	addiw	s0,s0,-1
   12114:	05840e63          	beq	s0,s8,12170 <__call_exitprocs+0xe0>
   12118:	00040713          	mv	a4,s0
   1211c:	fe0b90e3          	bnez	s7,120fc <__call_exitprocs+0x6c>
   12120:	008b2783          	lw	a5,8(s6)
   12124:	00371713          	slli	a4,a4,0x3
   12128:	00eb0733          	add	a4,s6,a4
   1212c:	fff7879b          	addiw	a5,a5,-1
   12130:	01073683          	ld	a3,16(a4)
   12134:	0a878c63          	beq	a5,s0,121ec <__call_exitprocs+0x15c>
   12138:	00073823          	sd	zero,16(a4)
   1213c:	fc068ae3          	beqz	a3,12110 <__call_exitprocs+0x80>
   12140:	310b2783          	lw	a5,784(s6)
   12144:	008a963b          	sllw	a2,s5,s0
   12148:	008b2c83          	lw	s9,8(s6)
   1214c:	00f677b3          	and	a5,a2,a5
   12150:	08079063          	bnez	a5,121d0 <__call_exitprocs+0x140>
   12154:	000680e7          	jalr	a3
   12158:	008b2783          	lw	a5,8(s6)
   1215c:	f99792e3          	bne	a5,s9,120e0 <__call_exitprocs+0x50>
   12160:	000d3783          	ld	a5,0(s10)
   12164:	f7679ee3          	bne	a5,s6,120e0 <__call_exitprocs+0x50>
   12168:	fff4041b          	addiw	s0,s0,-1
   1216c:	fb8416e3          	bne	s0,s8,12118 <__call_exitprocs+0x88>
   12170:	02090463          	beqz	s2,12198 <__call_exitprocs+0x108>
   12174:	008b2783          	lw	a5,8(s6)
   12178:	08079463          	bnez	a5,12200 <__call_exitprocs+0x170>
   1217c:	000b3783          	ld	a5,0(s6)
   12180:	08078a63          	beqz	a5,12214 <__call_exitprocs+0x184>
   12184:	000b0513          	mv	a0,s6
   12188:	00fd3023          	sd	a5,0(s10)
   1218c:	e75ed0ef          	jal	0 <_ftext-0x10000>
   12190:	000d3b03          	ld	s6,0(s10)
   12194:	f40b1ce3          	bnez	s6,120ec <__call_exitprocs+0x5c>
   12198:	05813083          	ld	ra,88(sp)
   1219c:	05013403          	ld	s0,80(sp)
   121a0:	04813483          	ld	s1,72(sp)
   121a4:	04013903          	ld	s2,64(sp)
   121a8:	03813983          	ld	s3,56(sp)
   121ac:	03013a03          	ld	s4,48(sp)
   121b0:	02813a83          	ld	s5,40(sp)
   121b4:	02013b03          	ld	s6,32(sp)
   121b8:	01813b83          	ld	s7,24(sp)
   121bc:	01013c03          	ld	s8,16(sp)
   121c0:	00813c83          	ld	s9,8(sp)
   121c4:	00013d03          	ld	s10,0(sp)
   121c8:	06010113          	addi	sp,sp,96
   121cc:	00008067          	ret
   121d0:	314b2783          	lw	a5,788(s6)
   121d4:	00f677b3          	and	a5,a2,a5
   121d8:	00079e63          	bnez	a5,121f4 <__call_exitprocs+0x164>
   121dc:	11073583          	ld	a1,272(a4)
   121e0:	00048513          	mv	a0,s1
   121e4:	000680e7          	jalr	a3
   121e8:	f71ff06f          	j	12158 <__call_exitprocs+0xc8>
   121ec:	008b2423          	sw	s0,8(s6)
   121f0:	f4dff06f          	j	1213c <__call_exitprocs+0xac>
   121f4:	11073503          	ld	a0,272(a4)
   121f8:	000680e7          	jalr	a3
   121fc:	f5dff06f          	j	12158 <__call_exitprocs+0xc8>
   12200:	000b3783          	ld	a5,0(s6)
   12204:	000b0d13          	mv	s10,s6
   12208:	00078b13          	mv	s6,a5
   1220c:	ee0b10e3          	bnez	s6,120ec <__call_exitprocs+0x5c>
   12210:	f89ff06f          	j	12198 <__call_exitprocs+0x108>
   12214:	00000793          	li	a5,0
   12218:	fedff06f          	j	12204 <__call_exitprocs+0x174>

000000000001221c <quorem>:
   1221c:	fc010113          	addi	sp,sp,-64
   12220:	03213023          	sd	s2,32(sp)
   12224:	01452783          	lw	a5,20(a0)
   12228:	0145a903          	lw	s2,20(a1)
   1222c:	02113c23          	sd	ra,56(sp)
   12230:	02813823          	sd	s0,48(sp)
   12234:	02913423          	sd	s1,40(sp)
   12238:	01313c23          	sd	s3,24(sp)
   1223c:	01413823          	sd	s4,16(sp)
   12240:	01513423          	sd	s5,8(sp)
   12244:	1b27ce63          	blt	a5,s2,12400 <quorem+0x1e4>
   12248:	fff9091b          	addiw	s2,s2,-1
   1224c:	00090e13          	mv	t3,s2
   12250:	002e1e13          	slli	t3,t3,0x2
   12254:	01858413          	addi	s0,a1,24
   12258:	01c409b3          	add	s3,s0,t3
   1225c:	01850a13          	addi	s4,a0,24
   12260:	01ca0e33          	add	t3,s4,t3
   12264:	0009a783          	lw	a5,0(s3)
   12268:	000e2483          	lw	s1,0(t3)
   1226c:	0017879b          	addiw	a5,a5,1
   12270:	02f4d4bb          	divuw	s1,s1,a5
   12274:	0a048e63          	beqz	s1,12330 <quorem+0x114>
   12278:	000102b7          	lui	t0,0x10
   1227c:	00040393          	mv	t2,s0
   12280:	000a0313          	mv	t1,s4
   12284:	00000813          	li	a6,0
   12288:	00000793          	li	a5,0
   1228c:	fff2829b          	addiw	t0,t0,-1
   12290:	00438393          	addi	t2,t2,4
   12294:	ffc3a883          	lw	a7,-4(t2)
   12298:	00032703          	lw	a4,0(t1)
   1229c:	00430313          	addi	t1,t1,4
   122a0:	0058f633          	and	a2,a7,t0
   122a4:	02c4863b          	mulw	a2,s1,a2
   122a8:	0108d89b          	srliw	a7,a7,0x10
   122ac:	00577eb3          	and	t4,a4,t0
   122b0:	0107571b          	srliw	a4,a4,0x10
   122b4:	031488bb          	mulw	a7,s1,a7
   122b8:	00c8063b          	addw	a2,a6,a2
   122bc:	005676b3          	and	a3,a2,t0
   122c0:	0106581b          	srliw	a6,a2,0x10
   122c4:	40d787bb          	subw	a5,a5,a3
   122c8:	01d786bb          	addw	a3,a5,t4
   122cc:	4106de9b          	sraiw	t4,a3,0x10
   122d0:	0056f6b3          	and	a3,a3,t0
   122d4:	0118063b          	addw	a2,a6,a7
   122d8:	005677b3          	and	a5,a2,t0
   122dc:	40f7073b          	subw	a4,a4,a5
   122e0:	01d707bb          	addw	a5,a4,t4
   122e4:	0107971b          	slliw	a4,a5,0x10
   122e8:	00d766b3          	or	a3,a4,a3
   122ec:	0106581b          	srliw	a6,a2,0x10
   122f0:	4107d79b          	sraiw	a5,a5,0x10
   122f4:	fed32e23          	sw	a3,-4(t1)
   122f8:	f879fce3          	bleu	t2,s3,12290 <quorem+0x74>
   122fc:	000e2783          	lw	a5,0(t3)
   12300:	02079863          	bnez	a5,12330 <quorem+0x114>
   12304:	ffce0793          	addi	a5,t3,-4
   12308:	02fa7263          	bleu	a5,s4,1232c <quorem+0x110>
   1230c:	ffce2703          	lw	a4,-4(t3)
   12310:	00070863          	beqz	a4,12320 <quorem+0x104>
   12314:	0180006f          	j	1232c <quorem+0x110>
   12318:	0007a703          	lw	a4,0(a5)
   1231c:	00071863          	bnez	a4,1232c <quorem+0x110>
   12320:	ffc78793          	addi	a5,a5,-4
   12324:	fff9091b          	addiw	s2,s2,-1
   12328:	fefa68e3          	bltu	s4,a5,12318 <quorem+0xfc>
   1232c:	01252a23          	sw	s2,20(a0)
   12330:	00050a93          	mv	s5,a0
   12334:	420030ef          	jal	15754 <__mcmp>
   12338:	0a054063          	bltz	a0,123d8 <quorem+0x1bc>
   1233c:	00010837          	lui	a6,0x10
   12340:	0014849b          	addiw	s1,s1,1
   12344:	000a0593          	mv	a1,s4
   12348:	00000793          	li	a5,0
   1234c:	fff8081b          	addiw	a6,a6,-1
   12350:	00440413          	addi	s0,s0,4
   12354:	ffc42603          	lw	a2,-4(s0)
   12358:	0005a703          	lw	a4,0(a1)
   1235c:	00458593          	addi	a1,a1,4
   12360:	010676b3          	and	a3,a2,a6
   12364:	40d787bb          	subw	a5,a5,a3
   12368:	010776b3          	and	a3,a4,a6
   1236c:	00d786bb          	addw	a3,a5,a3
   12370:	0107571b          	srliw	a4,a4,0x10
   12374:	0106579b          	srliw	a5,a2,0x10
   12378:	40f7073b          	subw	a4,a4,a5
   1237c:	4106d79b          	sraiw	a5,a3,0x10
   12380:	00f707bb          	addw	a5,a4,a5
   12384:	0107971b          	slliw	a4,a5,0x10
   12388:	0106f6b3          	and	a3,a3,a6
   1238c:	00d766b3          	or	a3,a4,a3
   12390:	4107d79b          	sraiw	a5,a5,0x10
   12394:	fed5ae23          	sw	a3,-4(a1)
   12398:	fa89fce3          	bleu	s0,s3,12350 <quorem+0x134>
   1239c:	00291713          	slli	a4,s2,0x2
   123a0:	00ea0733          	add	a4,s4,a4
   123a4:	00072783          	lw	a5,0(a4)
   123a8:	02079863          	bnez	a5,123d8 <quorem+0x1bc>
   123ac:	ffc70793          	addi	a5,a4,-4
   123b0:	02fa7263          	bleu	a5,s4,123d4 <quorem+0x1b8>
   123b4:	ffc72703          	lw	a4,-4(a4)
   123b8:	00070863          	beqz	a4,123c8 <quorem+0x1ac>
   123bc:	0180006f          	j	123d4 <quorem+0x1b8>
   123c0:	0007a703          	lw	a4,0(a5)
   123c4:	00071863          	bnez	a4,123d4 <quorem+0x1b8>
   123c8:	ffc78793          	addi	a5,a5,-4
   123cc:	fff9091b          	addiw	s2,s2,-1
   123d0:	fefa68e3          	bltu	s4,a5,123c0 <quorem+0x1a4>
   123d4:	012aaa23          	sw	s2,20(s5)
   123d8:	00048513          	mv	a0,s1
   123dc:	03813083          	ld	ra,56(sp)
   123e0:	03013403          	ld	s0,48(sp)
   123e4:	02813483          	ld	s1,40(sp)
   123e8:	02013903          	ld	s2,32(sp)
   123ec:	01813983          	ld	s3,24(sp)
   123f0:	01013a03          	ld	s4,16(sp)
   123f4:	00813a83          	ld	s5,8(sp)
   123f8:	04010113          	addi	sp,sp,64
   123fc:	00008067          	ret
   12400:	00000513          	li	a0,0
   12404:	fd9ff06f          	j	123dc <quorem+0x1c0>

0000000000012408 <_dtoa_r>:
   12408:	06053883          	ld	a7,96(a0)
   1240c:	f1010113          	addi	sp,sp,-240
   12410:	00b13c27          	fsd	fa1,24(sp)
   12414:	0e813023          	sd	s0,224(sp)
   12418:	0c913c23          	sd	s1,216(sp)
   1241c:	0d413023          	sd	s4,192(sp)
   12420:	0b613823          	sd	s6,176(sp)
   12424:	0b713423          	sd	s7,168(sp)
   12428:	0e113423          	sd	ra,232(sp)
   1242c:	0d213823          	sd	s2,208(sp)
   12430:	0d313423          	sd	s3,200(sp)
   12434:	0b513c23          	sd	s5,184(sp)
   12438:	0b813023          	sd	s8,160(sp)
   1243c:	09913c23          	sd	s9,152(sp)
   12440:	09a13823          	sd	s10,144(sp)
   12444:	09b13423          	sd	s11,136(sp)
   12448:	06813c27          	fsd	fs0,120(sp)
   1244c:	06913827          	fsd	fs1,112(sp)
   12450:	07213427          	fsd	fs2,104(sp)
   12454:	07313027          	fsd	fs3,96(sp)
   12458:	00050413          	mv	s0,a0
   1245c:	00060a13          	mv	s4,a2
   12460:	00068493          	mv	s1,a3
   12464:	02e13823          	sd	a4,48(sp)
   12468:	00080b93          	mv	s7,a6
   1246c:	01813b03          	ld	s6,24(sp)
   12470:	02088663          	beqz	a7,1249c <_dtoa_r+0x94>
   12474:	06852683          	lw	a3,104(a0)
   12478:	00100713          	li	a4,1
   1247c:	00088593          	mv	a1,a7
   12480:	00d7173b          	sllw	a4,a4,a3
   12484:	00d8a423          	sw	a3,8(a7)
   12488:	00e8a623          	sw	a4,12(a7)
   1248c:	00f13423          	sd	a5,8(sp)
   12490:	26d020ef          	jal	14efc <_Bfree>
   12494:	00813783          	ld	a5,8(sp)
   12498:	06043023          	sd	zero,96(s0)
   1249c:	420b5913          	srai	s2,s6,0x20
   124a0:	0c094c63          	bltz	s2,12578 <_dtoa_r+0x170>
   124a4:	0007a023          	sw	zero,0(a5)
   124a8:	7ff007b7          	lui	a5,0x7ff00
   124ac:	00f97733          	and	a4,s2,a5
   124b0:	08f70463          	beq	a4,a5,12538 <_dtoa_r+0x130>
   124b4:	f2000053          	fmv.d.x	ft0,zero
   124b8:	f20b00d3          	fmv.d.x	ft1,s6
   124bc:	01613c23          	sd	s6,24(sp)
   124c0:	a200a7d3          	feq.d	a5,ft1,ft0
   124c4:	0c078e63          	beqz	a5,125a0 <_dtoa_r+0x198>
   124c8:	03013703          	ld	a4,48(sp)
   124cc:	00100793          	li	a5,1
   124d0:	00f72023          	sw	a5,0(a4)
   124d4:	260b8c63          	beqz	s7,1274c <_dtoa_r+0x344>
   124d8:	0001b7b7          	lui	a5,0x1b
   124dc:	c4978793          	addi	a5,a5,-951 # 1ac49 <__clz_tab+0x161>
   124e0:	0001b937          	lui	s2,0x1b
   124e4:	00fbb023          	sd	a5,0(s7)
   124e8:	c4890513          	addi	a0,s2,-952 # 1ac48 <__clz_tab+0x160>
   124ec:	0e813083          	ld	ra,232(sp)
   124f0:	0e013403          	ld	s0,224(sp)
   124f4:	0d813483          	ld	s1,216(sp)
   124f8:	0d013903          	ld	s2,208(sp)
   124fc:	0c813983          	ld	s3,200(sp)
   12500:	0c013a03          	ld	s4,192(sp)
   12504:	0b813a83          	ld	s5,184(sp)
   12508:	0b013b03          	ld	s6,176(sp)
   1250c:	0a813b83          	ld	s7,168(sp)
   12510:	0a013c03          	ld	s8,160(sp)
   12514:	09813c83          	ld	s9,152(sp)
   12518:	09013d03          	ld	s10,144(sp)
   1251c:	08813d83          	ld	s11,136(sp)
   12520:	07813407          	fld	fs0,120(sp)
   12524:	07013487          	fld	fs1,112(sp)
   12528:	06813907          	fld	fs2,104(sp)
   1252c:	06013987          	fld	fs3,96(sp)
   12530:	0f010113          	addi	sp,sp,240
   12534:	00008067          	ret
   12538:	03013703          	ld	a4,48(sp)
   1253c:	000027b7          	lui	a5,0x2
   12540:	70f7879b          	addiw	a5,a5,1807
   12544:	00f72023          	sw	a5,0(a4)
   12548:	00cb1793          	slli	a5,s6,0xc
   1254c:	1c079063          	bnez	a5,1270c <_dtoa_r+0x304>
   12550:	0001b537          	lui	a0,0x1b
   12554:	c5050913          	addi	s2,a0,-944 # 1ac50 <__clz_tab+0x168>
   12558:	480b84e3          	beqz	s7,131e0 <_dtoa_r+0xdd8>
   1255c:	00394703          	lbu	a4,3(s2)
   12560:	00390793          	addi	a5,s2,3
   12564:	00070463          	beqz	a4,1256c <_dtoa_r+0x164>
   12568:	00890793          	addi	a5,s2,8
   1256c:	00fbb023          	sd	a5,0(s7)
   12570:	00090513          	mv	a0,s2
   12574:	f79ff06f          	j	124ec <_dtoa_r+0xe4>
   12578:	80000737          	lui	a4,0x80000
   1257c:	fff74713          	not	a4,a4
   12580:	00e97933          	and	s2,s2,a4
   12584:	020b1b13          	slli	s6,s6,0x20
   12588:	02091713          	slli	a4,s2,0x20
   1258c:	020b5b13          	srli	s6,s6,0x20
   12590:	00100693          	li	a3,1
   12594:	00d7a023          	sw	a3,0(a5) # 2000 <_ftext-0xe000>
   12598:	00eb6b33          	or	s6,s6,a4
   1259c:	f0dff06f          	j	124a8 <_dtoa_r+0xa0>
   125a0:	01813587          	fld	fa1,24(sp)
   125a4:	00040513          	mv	a0,s0
   125a8:	05c10613          	addi	a2,sp,92
   125ac:	05810693          	addi	a3,sp,88
   125b0:	5ac030ef          	jal	15b5c <__d2b>
   125b4:	0149571b          	srliw	a4,s2,0x14
   125b8:	00050993          	mv	s3,a0
   125bc:	14071e63          	bnez	a4,12718 <_dtoa_r+0x310>
   125c0:	05812803          	lw	a6,88(sp)
   125c4:	05c12703          	lw	a4,92(sp)
   125c8:	bef00793          	li	a5,-1041
   125cc:	00e806bb          	addw	a3,a6,a4
   125d0:	0cf6cce3          	blt	a3,a5,12ea8 <_dtoa_r+0xaa0>
   125d4:	c0e00613          	li	a2,-1010
   125d8:	40d6063b          	subw	a2,a2,a3
   125dc:	000b071b          	sext.w	a4,s6
   125e0:	4126879b          	addiw	a5,a3,1042
   125e4:	00c9193b          	sllw	s2,s2,a2
   125e8:	00f757bb          	srlw	a5,a4,a5
   125ec:	00f967b3          	or	a5,s2,a5
   125f0:	d2178053          	fcvt.d.wu	ft0,a5
   125f4:	e20007d3          	fmv.x.d	a5,ft0
   125f8:	fe100637          	lui	a2,0xfe100
   125fc:	4207d713          	srai	a4,a5,0x20
   12600:	00c7073b          	addw	a4,a4,a2
   12604:	02079793          	slli	a5,a5,0x20
   12608:	02071713          	slli	a4,a4,0x20
   1260c:	0207d793          	srli	a5,a5,0x20
   12610:	00e7e7b3          	or	a5,a5,a4
   12614:	00100a93          	li	s5,1
   12618:	fff6871b          	addiw	a4,a3,-1
   1261c:	8401b007          	fld	ft0,-1984(gp) # 1d0a0 <__wctomb+0x10>
   12620:	f2078153          	fmv.d.x	ft2,a5
   12624:	0a0170d3          	fsub.d	ft1,ft2,ft0
   12628:	8501b007          	fld	ft0,-1968(gp) # 1d0b0 <__wctomb+0x20>
   1262c:	8481b107          	fld	ft2,-1976(gp) # 1d0a8 <__wctomb+0x18>
   12630:	0220f043          	fmadd.d	ft0,ft1,ft2,ft0
   12634:	8581b107          	fld	ft2,-1960(gp) # 1d0b8 <__wctomb+0x28>
   12638:	d20700d3          	fcvt.d.w	ft1,a4
   1263c:	0220f043          	fmadd.d	ft0,ft1,ft2,ft0
   12640:	f20000d3          	fmv.d.x	ft1,zero
   12644:	a21017d3          	flt.d	a5,ft0,ft1
   12648:	c2001953          	fcvt.w.d	s2,ft0,rtz
   1264c:	62079663          	bnez	a5,12c78 <_dtoa_r+0x870>
   12650:	00100693          	li	a3,1
   12654:	01600793          	li	a5,22
   12658:	04d12423          	sw	a3,72(sp)
   1265c:	0327e663          	bltu	a5,s2,12688 <_dtoa_r+0x280>
   12660:	0001b7b7          	lui	a5,0x1b
   12664:	00391693          	slli	a3,s2,0x3
   12668:	82078793          	addi	a5,a5,-2016 # 1a820 <__mprec_tens>
   1266c:	00f687b3          	add	a5,a3,a5
   12670:	0007b007          	fld	ft0,0(a5)
   12674:	f20b00d3          	fmv.d.x	ft1,s6
   12678:	a20097d3          	flt.d	a5,ft1,ft0
   1267c:	040780e3          	beqz	a5,12ebc <_dtoa_r+0xab4>
   12680:	fff9091b          	addiw	s2,s2,-1
   12684:	04012423          	sw	zero,72(sp)
   12688:	40e8083b          	subw	a6,a6,a4
   1268c:	fff80d1b          	addiw	s10,a6,-1
   12690:	02012c23          	sw	zero,56(sp)
   12694:	0c0d4263          	bltz	s10,12758 <_dtoa_r+0x350>
   12698:	5e094a63          	bltz	s2,12c8c <_dtoa_r+0x884>
   1269c:	012d0d3b          	addw	s10,s10,s2
   126a0:	03212e23          	sw	s2,60(sp)
   126a4:	00000c13          	li	s8,0
   126a8:	00900793          	li	a5,9
   126ac:	5947ec63          	bltu	a5,s4,12c44 <_dtoa_r+0x83c>
   126b0:	00500793          	li	a5,5
   126b4:	00100893          	li	a7,1
   126b8:	0147d663          	ble	s4,a5,126c4 <_dtoa_r+0x2bc>
   126bc:	ffca0a1b          	addiw	s4,s4,-4
   126c0:	00000893          	li	a7,0
   126c4:	00300793          	li	a5,3
   126c8:	3afa02e3          	beq	s4,a5,1326c <_dtoa_r+0xe64>
   126cc:	2f47d463          	ble	s4,a5,129b4 <_dtoa_r+0x5ac>
   126d0:	00100713          	li	a4,1
   126d4:	00400793          	li	a5,4
   126d8:	02e12023          	sw	a4,32(sp)
   126dc:	08fa0663          	beq	s4,a5,12768 <_dtoa_r+0x360>
   126e0:	00500793          	li	a5,5
   126e4:	2cfa1e63          	bne	s4,a5,129c0 <_dtoa_r+0x5b8>
   126e8:	012487bb          	addw	a5,s1,s2
   126ec:	00178c9b          	addiw	s9,a5,1
   126f0:	04f12623          	sw	a5,76(sp)
   126f4:	000c8613          	mv	a2,s9
   126f8:	000c8d93          	mv	s11,s9
   126fc:	09904063          	bgtz	s9,1277c <_dtoa_r+0x374>
   12700:	06042423          	sw	zero,104(s0)
   12704:	00000593          	li	a1,0
   12708:	0a80006f          	j	127b0 <_dtoa_r+0x3a8>
   1270c:	0001b537          	lui	a0,0x1b
   12710:	c6050913          	addi	s2,a0,-928 # 1ac60 <__clz_tab+0x178>
   12714:	e45ff06f          	j	12558 <_dtoa_r+0x150>
   12718:	01813783          	ld	a5,24(sp)
   1271c:	c017071b          	addiw	a4,a4,-1023
   12720:	05812803          	lw	a6,88(sp)
   12724:	00c79693          	slli	a3,a5,0xc
   12728:	02c6d613          	srli	a2,a3,0x2c
   1272c:	3ff006b7          	lui	a3,0x3ff00
   12730:	00d666b3          	or	a3,a2,a3
   12734:	02079793          	slli	a5,a5,0x20
   12738:	02069693          	slli	a3,a3,0x20
   1273c:	0207d793          	srli	a5,a5,0x20
   12740:	00d7e7b3          	or	a5,a5,a3
   12744:	00000a93          	li	s5,0
   12748:	ed5ff06f          	j	1261c <_dtoa_r+0x214>
   1274c:	0001b937          	lui	s2,0x1b
   12750:	c4890513          	addi	a0,s2,-952 # 1ac48 <__clz_tab+0x160>
   12754:	d99ff06f          	j	124ec <_dtoa_r+0xe4>
   12758:	41a00d3b          	negw	s10,s10
   1275c:	03a12c23          	sw	s10,56(sp)
   12760:	00000d13          	li	s10,0
   12764:	f35ff06f          	j	12698 <_dtoa_r+0x290>
   12768:	329054e3          	blez	s1,13290 <_dtoa_r+0xe88>
   1276c:	00048613          	mv	a2,s1
   12770:	00048d93          	mv	s11,s1
   12774:	04912623          	sw	s1,76(sp)
   12778:	00048c93          	mv	s9,s1
   1277c:	01f00793          	li	a5,31
   12780:	06042423          	sw	zero,104(s0)
   12784:	00000593          	li	a1,0
   12788:	02c7f463          	bleu	a2,a5,127b0 <_dtoa_r+0x3a8>
   1278c:	00100693          	li	a3,1
   12790:	00400713          	li	a4,4
   12794:	0017171b          	slliw	a4,a4,0x1
   12798:	00070793          	mv	a5,a4
   1279c:	01c78793          	addi	a5,a5,28
   127a0:	00068593          	mv	a1,a3
   127a4:	0016869b          	addiw	a3,a3,1
   127a8:	fef676e3          	bleu	a5,a2,12794 <_dtoa_r+0x38c>
   127ac:	06b42423          	sw	a1,104(s0)
   127b0:	00040513          	mv	a0,s0
   127b4:	01113823          	sd	a7,16(sp)
   127b8:	698020ef          	jal	14e50 <_Balloc>
   127bc:	00e00793          	li	a5,14
   127c0:	00a13c23          	sd	a0,24(sp)
   127c4:	06a43023          	sd	a0,96(s0)
   127c8:	01013883          	ld	a7,16(sp)
   127cc:	23b7e063          	bltu	a5,s11,129ec <_dtoa_r+0x5e4>
   127d0:	20088e63          	beqz	a7,129ec <_dtoa_r+0x5e4>
   127d4:	05613023          	sd	s6,64(sp)
   127d8:	0b2054e3          	blez	s2,13080 <_dtoa_r+0xc78>
   127dc:	00f97793          	andi	a5,s2,15
   127e0:	00379713          	slli	a4,a5,0x3
   127e4:	0001b7b7          	lui	a5,0x1b
   127e8:	82078793          	addi	a5,a5,-2016 # 1a820 <__mprec_tens>
   127ec:	40495b1b          	sraiw	s6,s2,0x4
   127f0:	00f707b3          	add	a5,a4,a5
   127f4:	03bb1693          	slli	a3,s6,0x3b
   127f8:	0007b407          	fld	fs0,0(a5)
   127fc:	04013507          	fld	fa0,64(sp)
   12800:	00200d93          	li	s11,2
   12804:	0006dc63          	bgez	a3,1281c <_dtoa_r+0x414>
   12808:	0001b7b7          	lui	a5,0x1b
   1280c:	9307b587          	fld	fa1,-1744(a5) # 1a930 <__mprec_bigtens+0x20>
   12810:	00fb7b13          	andi	s6,s6,15
   12814:	00300d93          	li	s11,3
   12818:	129060ef          	jal	19140 <__divdf3>
   1281c:	020b0663          	beqz	s6,12848 <_dtoa_r+0x440>
   12820:	0001b7b7          	lui	a5,0x1b
   12824:	91078793          	addi	a5,a5,-1776 # 1a910 <__mprec_bigtens>
   12828:	03fb1713          	slli	a4,s6,0x3f
   1282c:	00075863          	bgez	a4,1283c <_dtoa_r+0x434>
   12830:	0007b007          	fld	ft0,0(a5)
   12834:	001d8d9b          	addiw	s11,s11,1
   12838:	12047453          	fmul.d	fs0,fs0,ft0
   1283c:	401b5b1b          	sraiw	s6,s6,0x1
   12840:	00878793          	addi	a5,a5,8
   12844:	fe0b12e3          	bnez	s6,12828 <_dtoa_r+0x420>
   12848:	228405d3          	fmv.d	fa1,fs0
   1284c:	0f5060ef          	jal	19140 <__divdf3>
   12850:	22a50453          	fmv.d	fs0,fa0
   12854:	04812703          	lw	a4,72(sp)
   12858:	00070863          	beqz	a4,12868 <_dtoa_r+0x460>
   1285c:	8601b007          	fld	ft0,-1952(gp) # 1d0c0 <__wctomb+0x30>
   12860:	a20417d3          	flt.d	a5,fs0,ft0
   12864:	3a079ee3          	bnez	a5,13420 <_dtoa_r+0x1018>
   12868:	8701b007          	fld	ft0,-1936(gp) # 1d0d0 <__wctomb+0x40>
   1286c:	d20d80d3          	fcvt.d.w	ft1,s11
   12870:	fcc00737          	lui	a4,0xfcc00
   12874:	0280f043          	fmadd.d	ft0,ft1,fs0,ft0
   12878:	e2000dd3          	fmv.x.d	s11,ft0
   1287c:	420dd793          	srai	a5,s11,0x20
   12880:	00e787bb          	addw	a5,a5,a4
   12884:	020d9d93          	slli	s11,s11,0x20
   12888:	02079793          	slli	a5,a5,0x20
   1288c:	020ddd93          	srli	s11,s11,0x20
   12890:	00fdedb3          	or	s11,s11,a5
   12894:	180c8ae3          	beqz	s9,13228 <_dtoa_r+0xe20>
   12898:	00090693          	mv	a3,s2
   1289c:	000c8613          	mv	a2,s9
   128a0:	02012703          	lw	a4,32(sp)
   128a4:	fff6079b          	addiw	a5,a2,-1
   128a8:	280704e3          	beqz	a4,13330 <_dtoa_r+0xf28>
   128ac:	00379713          	slli	a4,a5,0x3
   128b0:	0001b7b7          	lui	a5,0x1b
   128b4:	82078793          	addi	a5,a5,-2016 # 1a820 <__mprec_tens>
   128b8:	00f707b3          	add	a5,a4,a5
   128bc:	8801b507          	fld	fa0,-1920(gp) # 1d0e0 <__wctomb+0x50>
   128c0:	0007b587          	fld	fa1,0(a5)
   128c4:	01813783          	ld	a5,24(sp)
   128c8:	00c13423          	sd	a2,8(sp)
   128cc:	00d13823          	sd	a3,16(sp)
   128d0:	00178b13          	addi	s6,a5,1
   128d4:	06d060ef          	jal	19140 <__divdf3>
   128d8:	c20417d3          	fcvt.w.d	a5,fs0,rtz
   128dc:	f20d80d3          	fmv.d.x	ft1,s11
   128e0:	d2078053          	fcvt.d.w	ft0,a5
   128e4:	0a157553          	fsub.d	fa0,fa0,ft1
   128e8:	0a047053          	fsub.d	ft0,fs0,ft0
   128ec:	01813703          	ld	a4,24(sp)
   128f0:	0307879b          	addiw	a5,a5,48
   128f4:	0ff7f793          	andi	a5,a5,255
   128f8:	00f70023          	sb	a5,0(a4) # fffffffffcc00000 <_gp+0xfffffffffcbe27a0>
   128fc:	a2a01753          	flt.d	a4,ft0,fa0
   12900:	00813603          	ld	a2,8(sp)
   12904:	01013683          	ld	a3,16(sp)
   12908:	06071c63          	bnez	a4,12980 <_dtoa_r+0x578>
   1290c:	8601b187          	fld	ft3,-1952(gp) # 1d0c0 <__wctomb+0x30>
   12910:	0a01f0d3          	fsub.d	ft1,ft3,ft0
   12914:	a2a09753          	flt.d	a4,ft1,fa0
   12918:	3a0712e3          	bnez	a4,134bc <_dtoa_r+0x10b4>
   1291c:	00100793          	li	a5,1
   12920:	1ac7d6e3          	ble	a2,a5,132cc <_dtoa_r+0xec4>
   12924:	ffe6061b          	addiw	a2,a2,-2
   12928:	02061613          	slli	a2,a2,0x20
   1292c:	01813703          	ld	a4,24(sp)
   12930:	02065613          	srli	a2,a2,0x20
   12934:	00260613          	addi	a2,a2,2 # fffffffffe100002 <_gp+0xfffffffffe0e27a2>
   12938:	00c70633          	add	a2,a4,a2
   1293c:	8681b107          	fld	ft2,-1944(gp) # 1d0c8 <__wctomb+0x38>
   12940:	0140006f          	j	12954 <_dtoa_r+0x54c>
   12944:	0a01f0d3          	fsub.d	ft1,ft3,ft0
   12948:	a2a09753          	flt.d	a4,ft1,fa0
   1294c:	360718e3          	bnez	a4,134bc <_dtoa_r+0x10b4>
   12950:	16cb0ee3          	beq	s6,a2,132cc <_dtoa_r+0xec4>
   12954:	12207053          	fmul.d	ft0,ft0,ft2
   12958:	12257553          	fmul.d	fa0,fa0,ft2
   1295c:	001b0b13          	addi	s6,s6,1
   12960:	c20017d3          	fcvt.w.d	a5,ft0,rtz
   12964:	d20780d3          	fcvt.d.w	ft1,a5
   12968:	0a107053          	fsub.d	ft0,ft0,ft1
   1296c:	0307879b          	addiw	a5,a5,48
   12970:	0ff7f793          	andi	a5,a5,255
   12974:	fefb0fa3          	sb	a5,-1(s6)
   12978:	a2a01753          	flt.d	a4,ft0,fa0
   1297c:	fc0704e3          	beqz	a4,12944 <_dtoa_r+0x53c>
   12980:	000b0493          	mv	s1,s6
   12984:	00068913          	mv	s2,a3
   12988:	00040513          	mv	a0,s0
   1298c:	00098593          	mv	a1,s3
   12990:	56c020ef          	jal	14efc <_Bfree>
   12994:	03013703          	ld	a4,48(sp)
   12998:	0019079b          	addiw	a5,s2,1
   1299c:	00048023          	sb	zero,0(s1)
   129a0:	00f72023          	sw	a5,0(a4)
   129a4:	7c0b8e63          	beqz	s7,13180 <_dtoa_r+0xd78>
   129a8:	009bb023          	sd	s1,0(s7)
   129ac:	01813503          	ld	a0,24(sp)
   129b0:	b3dff06f          	j	124ec <_dtoa_r+0xe4>
   129b4:	00200793          	li	a5,2
   129b8:	02012023          	sw	zero,32(sp)
   129bc:	dafa06e3          	beq	s4,a5,12768 <_dtoa_r+0x360>
   129c0:	06042423          	sw	zero,104(s0)
   129c4:	00040513          	mv	a0,s0
   129c8:	00000593          	li	a1,0
   129cc:	484020ef          	jal	14e50 <_Balloc>
   129d0:	fff00c93          	li	s9,-1
   129d4:	00100793          	li	a5,1
   129d8:	00a13c23          	sd	a0,24(sp)
   129dc:	06a43023          	sd	a0,96(s0)
   129e0:	02f12023          	sw	a5,32(sp)
   129e4:	05912623          	sw	s9,76(sp)
   129e8:	00000493          	li	s1,0
   129ec:	05c12783          	lw	a5,92(sp)
   129f0:	1207c063          	bltz	a5,12b10 <_dtoa_r+0x708>
   129f4:	00e00713          	li	a4,14
   129f8:	11274c63          	blt	a4,s2,12b10 <_dtoa_r+0x708>
   129fc:	0001b7b7          	lui	a5,0x1b
   12a00:	00391713          	slli	a4,s2,0x3
   12a04:	82078793          	addi	a5,a5,-2016 # 1a820 <__mprec_tens>
   12a08:	00f707b3          	add	a5,a4,a5
   12a0c:	0007b487          	fld	fs1,0(a5)
   12a10:	5c04c863          	bltz	s1,12fe0 <_dtoa_r+0xbd8>
   12a14:	01813703          	ld	a4,24(sp)
   12a18:	229485d3          	fmv.d	fa1,fs1
   12a1c:	f20b0553          	fmv.d.x	fa0,s6
   12a20:	00170493          	addi	s1,a4,1
   12a24:	71c060ef          	jal	19140 <__divdf3>
   12a28:	c20517d3          	fcvt.w.d	a5,fa0,rtz
   12a2c:	01813683          	ld	a3,24(sp)
   12a30:	d2078053          	fcvt.d.w	ft0,a5
   12a34:	0307871b          	addiw	a4,a5,48
   12a38:	f20b0453          	fmv.d.x	fs0,s6
   12a3c:	22001053          	fneg.d	ft0,ft0
   12a40:	00e68023          	sb	a4,0(a3) # 3ff00000 <_gp+0x3fee27a0>
   12a44:	00100713          	li	a4,1
   12a48:	42907443          	fmadd.d	fs0,ft0,fs1,fs0
   12a4c:	28ec84e3          	beq	s9,a4,134d4 <_dtoa_r+0x10cc>
   12a50:	8681b987          	fld	fs3,-1944(gp) # 1d0c8 <__wctomb+0x38>
   12a54:	f2000953          	fmv.d.x	fs2,zero
   12a58:	13347453          	fmul.d	fs0,fs0,fs3
   12a5c:	a32427d3          	feq.d	a5,fs0,fs2
   12a60:	f20794e3          	bnez	a5,12988 <_dtoa_r+0x580>
   12a64:	ffec8b1b          	addiw	s6,s9,-2
   12a68:	020b1b13          	slli	s6,s6,0x20
   12a6c:	01813703          	ld	a4,24(sp)
   12a70:	020b5b13          	srli	s6,s6,0x20
   12a74:	002b0b13          	addi	s6,s6,2
   12a78:	01670b33          	add	s6,a4,s6
   12a7c:	0100006f          	j	12a8c <_dtoa_r+0x684>
   12a80:	13347453          	fmul.d	fs0,fs0,fs3
   12a84:	a32427d3          	feq.d	a5,fs0,fs2
   12a88:	f00790e3          	bnez	a5,12988 <_dtoa_r+0x580>
   12a8c:	22840553          	fmv.d	fa0,fs0
   12a90:	229485d3          	fmv.d	fa1,fs1
   12a94:	00148493          	addi	s1,s1,1
   12a98:	6a8060ef          	jal	19140 <__divdf3>
   12a9c:	c20517d3          	fcvt.w.d	a5,fa0,rtz
   12aa0:	d2078053          	fcvt.d.w	ft0,a5
   12aa4:	22001053          	fneg.d	ft0,ft0
   12aa8:	0307871b          	addiw	a4,a5,48
   12aac:	42907443          	fmadd.d	fs0,ft0,fs1,fs0
   12ab0:	fee48fa3          	sb	a4,-1(s1)
   12ab4:	fd6496e3          	bne	s1,s6,12a80 <_dtoa_r+0x678>
   12ab8:	02847453          	fadd.d	fs0,fs0,fs0
   12abc:	a2849753          	flt.d	a4,fs1,fs0
   12ac0:	00071c63          	bnez	a4,12ad8 <_dtoa_r+0x6d0>
   12ac4:	a284a753          	feq.d	a4,fs1,fs0
   12ac8:	000b0493          	mv	s1,s6
   12acc:	ea070ee3          	beqz	a4,12988 <_dtoa_r+0x580>
   12ad0:	03f79693          	slli	a3,a5,0x3f
   12ad4:	ea06dae3          	bgez	a3,12988 <_dtoa_r+0x580>
   12ad8:	fffb4783          	lbu	a5,-1(s6)
   12adc:	03900693          	li	a3,57
   12ae0:	0140006f          	j	12af4 <_dtoa_r+0x6ec>
   12ae4:	01813783          	ld	a5,24(sp)
   12ae8:	7ee78663          	beq	a5,a4,132d4 <_dtoa_r+0xecc>
   12aec:	fff74783          	lbu	a5,-1(a4)
   12af0:	00070b13          	mv	s6,a4
   12af4:	fffb0713          	addi	a4,s6,-1
   12af8:	fed786e3          	beq	a5,a3,12ae4 <_dtoa_r+0x6dc>
   12afc:	0017879b          	addiw	a5,a5,1
   12b00:	000b0493          	mv	s1,s6
   12b04:	0ff7f793          	andi	a5,a5,255
   12b08:	00f70023          	sb	a5,0(a4)
   12b0c:	e7dff06f          	j	12988 <_dtoa_r+0x580>
   12b10:	02012703          	lw	a4,32(sp)
   12b14:	18070863          	beqz	a4,12ca4 <_dtoa_r+0x89c>
   12b18:	00100713          	li	a4,1
   12b1c:	55475863          	ble	s4,a4,1306c <_dtoa_r+0xc64>
   12b20:	fffc871b          	addiw	a4,s9,-1
   12b24:	74ec4863          	blt	s8,a4,13274 <_dtoa_r+0xe6c>
   12b28:	40ec073b          	subw	a4,s8,a4
   12b2c:	03812d83          	lw	s11,56(sp)
   12b30:	000c8793          	mv	a5,s9
   12b34:	0c0cc4e3          	bltz	s9,133fc <_dtoa_r+0xff4>
   12b38:	03812683          	lw	a3,56(sp)
   12b3c:	00040513          	mv	a0,s0
   12b40:	00100593          	li	a1,1
   12b44:	00f686bb          	addw	a3,a3,a5
   12b48:	00e13823          	sd	a4,16(sp)
   12b4c:	02d12c23          	sw	a3,56(sp)
   12b50:	00fd0d3b          	addw	s10,s10,a5
   12b54:	738020ef          	jal	1528c <__i2b>
   12b58:	01013703          	ld	a4,16(sp)
   12b5c:	00050a93          	mv	s5,a0
   12b60:	020d8263          	beqz	s11,12b84 <_dtoa_r+0x77c>
   12b64:	03a05063          	blez	s10,12b84 <_dtoa_r+0x77c>
   12b68:	000d0793          	mv	a5,s10
   12b6c:	47adc663          	blt	s11,s10,12fd8 <_dtoa_r+0xbd0>
   12b70:	03812683          	lw	a3,56(sp)
   12b74:	40fd8dbb          	subw	s11,s11,a5
   12b78:	40fd0d3b          	subw	s10,s10,a5
   12b7c:	40f686bb          	subw	a3,a3,a5
   12b80:	02d12c23          	sw	a3,56(sp)
   12b84:	07805063          	blez	s8,12be4 <_dtoa_r+0x7dc>
   12b88:	02012783          	lw	a5,32(sp)
   12b8c:	6c078463          	beqz	a5,13254 <_dtoa_r+0xe4c>
   12b90:	04e05663          	blez	a4,12bdc <_dtoa_r+0x7d4>
   12b94:	00070613          	mv	a2,a4
   12b98:	000a8593          	mv	a1,s5
   12b9c:	00040513          	mv	a0,s0
   12ba0:	00e13823          	sd	a4,16(sp)
   12ba4:	115020ef          	jal	154b8 <__pow5mult>
   12ba8:	00050a93          	mv	s5,a0
   12bac:	00098613          	mv	a2,s3
   12bb0:	000a8593          	mv	a1,s5
   12bb4:	00040513          	mv	a0,s0
   12bb8:	708020ef          	jal	152c0 <__multiply>
   12bbc:	00050793          	mv	a5,a0
   12bc0:	00098593          	mv	a1,s3
   12bc4:	00040513          	mv	a0,s0
   12bc8:	00f13423          	sd	a5,8(sp)
   12bcc:	330020ef          	jal	14efc <_Bfree>
   12bd0:	00813783          	ld	a5,8(sp)
   12bd4:	01013703          	ld	a4,16(sp)
   12bd8:	00078993          	mv	s3,a5
   12bdc:	40ec063b          	subw	a2,s8,a4
   12be0:	44061063          	bnez	a2,13020 <_dtoa_r+0xc18>
   12be4:	00040513          	mv	a0,s0
   12be8:	00100593          	li	a1,1
   12bec:	6a0020ef          	jal	1528c <__i2b>
   12bf0:	03c12683          	lw	a3,60(sp)
   12bf4:	00050c13          	mv	s8,a0
   12bf8:	0ad05e63          	blez	a3,12cb4 <_dtoa_r+0x8ac>
   12bfc:	000c0593          	mv	a1,s8
   12c00:	00040513          	mv	a0,s0
   12c04:	00068613          	mv	a2,a3
   12c08:	0b1020ef          	jal	154b8 <__pow5mult>
   12c0c:	00100793          	li	a5,1
   12c10:	00050c13          	mv	s8,a0
   12c14:	4347d063          	ble	s4,a5,13034 <_dtoa_r+0xc2c>
   12c18:	04012023          	sw	zero,64(sp)
   12c1c:	014c2783          	lw	a5,20(s8)
   12c20:	fff7879b          	addiw	a5,a5,-1
   12c24:	00478793          	addi	a5,a5,4
   12c28:	00279793          	slli	a5,a5,0x2
   12c2c:	00fc07b3          	add	a5,s8,a5
   12c30:	0087a503          	lw	a0,8(a5)
   12c34:	530020ef          	jal	15164 <__hi0bits>
   12c38:	02000793          	li	a5,32
   12c3c:	40a7853b          	subw	a0,a5,a0
   12c40:	08c0006f          	j	12ccc <_dtoa_r+0x8c4>
   12c44:	06042423          	sw	zero,104(s0)
   12c48:	00040513          	mv	a0,s0
   12c4c:	00000593          	li	a1,0
   12c50:	200020ef          	jal	14e50 <_Balloc>
   12c54:	fff00c93          	li	s9,-1
   12c58:	00100713          	li	a4,1
   12c5c:	00a13c23          	sd	a0,24(sp)
   12c60:	06a43023          	sd	a0,96(s0)
   12c64:	02e12023          	sw	a4,32(sp)
   12c68:	00000a13          	li	s4,0
   12c6c:	05912623          	sw	s9,76(sp)
   12c70:	00000493          	li	s1,0
   12c74:	d79ff06f          	j	129ec <_dtoa_r+0x5e4>
   12c78:	d20900d3          	fcvt.d.w	ft1,s2
   12c7c:	a200a7d3          	feq.d	a5,ft1,ft0
   12c80:	0017b793          	seqz	a5,a5
   12c84:	40f9093b          	subw	s2,s2,a5
   12c88:	9c9ff06f          	j	12650 <_dtoa_r+0x248>
   12c8c:	03812683          	lw	a3,56(sp)
   12c90:	41200c3b          	negw	s8,s2
   12c94:	02012e23          	sw	zero,60(sp)
   12c98:	412686bb          	subw	a3,a3,s2
   12c9c:	02d12c23          	sw	a3,56(sp)
   12ca0:	a09ff06f          	j	126a8 <_dtoa_r+0x2a0>
   12ca4:	000c0713          	mv	a4,s8
   12ca8:	03812d83          	lw	s11,56(sp)
   12cac:	00000a93          	li	s5,0
   12cb0:	eb1ff06f          	j	12b60 <_dtoa_r+0x758>
   12cb4:	00100793          	li	a5,1
   12cb8:	04012023          	sw	zero,64(sp)
   12cbc:	4d47d663          	ble	s4,a5,13188 <_dtoa_r+0xd80>
   12cc0:	03c12783          	lw	a5,60(sp)
   12cc4:	00100513          	li	a0,1
   12cc8:	f4079ae3          	bnez	a5,12c1c <_dtoa_r+0x814>
   12ccc:	01a5053b          	addw	a0,a0,s10
   12cd0:	01f57513          	andi	a0,a0,31
   12cd4:	1a050c63          	beqz	a0,12e8c <_dtoa_r+0xa84>
   12cd8:	02000793          	li	a5,32
   12cdc:	40a787bb          	subw	a5,a5,a0
   12ce0:	00400713          	li	a4,4
   12ce4:	04f752e3          	ble	a5,a4,13528 <_dtoa_r+0x1120>
   12ce8:	03812683          	lw	a3,56(sp)
   12cec:	01c00793          	li	a5,28
   12cf0:	40a7853b          	subw	a0,a5,a0
   12cf4:	00a686bb          	addw	a3,a3,a0
   12cf8:	02d12c23          	sw	a3,56(sp)
   12cfc:	00ad8dbb          	addw	s11,s11,a0
   12d00:	00ad0d3b          	addw	s10,s10,a0
   12d04:	03812783          	lw	a5,56(sp)
   12d08:	00f05c63          	blez	a5,12d20 <_dtoa_r+0x918>
   12d0c:	00098593          	mv	a1,s3
   12d10:	00040513          	mv	a0,s0
   12d14:	00078613          	mv	a2,a5
   12d18:	0d9020ef          	jal	155f0 <__lshift>
   12d1c:	00050993          	mv	s3,a0
   12d20:	01a05c63          	blez	s10,12d38 <_dtoa_r+0x930>
   12d24:	000c0593          	mv	a1,s8
   12d28:	00040513          	mv	a0,s0
   12d2c:	000d0613          	mv	a2,s10
   12d30:	0c1020ef          	jal	155f0 <__lshift>
   12d34:	00050c13          	mv	s8,a0
   12d38:	04812683          	lw	a3,72(sp)
   12d3c:	18069463          	bnez	a3,12ec4 <_dtoa_r+0xabc>
   12d40:	45905a63          	blez	s9,13194 <_dtoa_r+0xd8c>
   12d44:	02012783          	lw	a5,32(sp)
   12d48:	1c078463          	beqz	a5,12f10 <_dtoa_r+0xb08>
   12d4c:	01b05c63          	blez	s11,12d64 <_dtoa_r+0x95c>
   12d50:	000a8593          	mv	a1,s5
   12d54:	00040513          	mv	a0,s0
   12d58:	000d8613          	mv	a2,s11
   12d5c:	095020ef          	jal	155f0 <__lshift>
   12d60:	00050a93          	mv	s5,a0
   12d64:	04012703          	lw	a4,64(sp)
   12d68:	000a8d93          	mv	s11,s5
   12d6c:	58071263          	bnez	a4,132f0 <_dtoa_r+0xee8>
   12d70:	fffc849b          	addiw	s1,s9,-1
   12d74:	01813783          	ld	a5,24(sp)
   12d78:	02049493          	slli	s1,s1,0x20
   12d7c:	0204d493          	srli	s1,s1,0x20
   12d80:	00148493          	addi	s1,s1,1
   12d84:	001b7b13          	andi	s6,s6,1
   12d88:	009784b3          	add	s1,a5,s1
   12d8c:	00078c93          	mv	s9,a5
   12d90:	03612023          	sw	s6,32(sp)
   12d94:	000c0593          	mv	a1,s8
   12d98:	00098513          	mv	a0,s3
   12d9c:	c80ff0ef          	jal	1221c <quorem>
   12da0:	02a12c23          	sw	a0,56(sp)
   12da4:	000a8593          	mv	a1,s5
   12da8:	00098513          	mv	a0,s3
   12dac:	1a9020ef          	jal	15754 <__mcmp>
   12db0:	00050b13          	mv	s6,a0
   12db4:	000c0593          	mv	a1,s8
   12db8:	00040513          	mv	a0,s0
   12dbc:	000d8613          	mv	a2,s11
   12dc0:	1f5020ef          	jal	157b4 <__mdiff>
   12dc4:	01052683          	lw	a3,16(a0)
   12dc8:	03812703          	lw	a4,56(sp)
   12dcc:	00050793          	mv	a5,a0
   12dd0:	03070d1b          	addiw	s10,a4,48
   12dd4:	00100713          	li	a4,1
   12dd8:	00069e63          	bnez	a3,12df4 <_dtoa_r+0x9ec>
   12ddc:	00078593          	mv	a1,a5
   12de0:	00098513          	mv	a0,s3
   12de4:	00f13423          	sd	a5,8(sp)
   12de8:	16d020ef          	jal	15754 <__mcmp>
   12dec:	00813783          	ld	a5,8(sp)
   12df0:	00050713          	mv	a4,a0
   12df4:	00078593          	mv	a1,a5
   12df8:	00040513          	mv	a0,s0
   12dfc:	00e13823          	sd	a4,16(sp)
   12e00:	0fc020ef          	jal	14efc <_Bfree>
   12e04:	01013703          	ld	a4,16(sp)
   12e08:	014767b3          	or	a5,a4,s4
   12e0c:	00079663          	bnez	a5,12e18 <_dtoa_r+0xa10>
   12e10:	02012783          	lw	a5,32(sp)
   12e14:	2c078663          	beqz	a5,130e0 <_dtoa_r+0xcd8>
   12e18:	2e0b4863          	bltz	s6,13108 <_dtoa_r+0xd00>
   12e1c:	014b6b33          	or	s6,s6,s4
   12e20:	000b1663          	bnez	s6,12e2c <_dtoa_r+0xa24>
   12e24:	02012783          	lw	a5,32(sp)
   12e28:	2e078063          	beqz	a5,13108 <_dtoa_r+0xd00>
   12e2c:	5ae04a63          	bgtz	a4,133e0 <_dtoa_r+0xfd8>
   12e30:	001c8c93          	addi	s9,s9,1
   12e34:	ffac8fa3          	sb	s10,-1(s9)
   12e38:	5a9c8c63          	beq	s9,s1,133f0 <_dtoa_r+0xfe8>
   12e3c:	00098593          	mv	a1,s3
   12e40:	00040513          	mv	a0,s0
   12e44:	00a00613          	li	a2,10
   12e48:	00000693          	li	a3,0
   12e4c:	0d4020ef          	jal	14f20 <__multadd>
   12e50:	00050993          	mv	s3,a0
   12e54:	31ba8663          	beq	s5,s11,13160 <_dtoa_r+0xd58>
   12e58:	000a8593          	mv	a1,s5
   12e5c:	00a00613          	li	a2,10
   12e60:	00000693          	li	a3,0
   12e64:	00040513          	mv	a0,s0
   12e68:	0b8020ef          	jal	14f20 <__multadd>
   12e6c:	00050a93          	mv	s5,a0
   12e70:	000d8593          	mv	a1,s11
   12e74:	00040513          	mv	a0,s0
   12e78:	00a00613          	li	a2,10
   12e7c:	00000693          	li	a3,0
   12e80:	0a0020ef          	jal	14f20 <__multadd>
   12e84:	00050d93          	mv	s11,a0
   12e88:	f0dff06f          	j	12d94 <_dtoa_r+0x98c>
   12e8c:	01c00513          	li	a0,28
   12e90:	03812703          	lw	a4,56(sp)
   12e94:	00ad8dbb          	addw	s11,s11,a0
   12e98:	00ad0d3b          	addw	s10,s10,a0
   12e9c:	00a7073b          	addw	a4,a4,a0
   12ea0:	02e12c23          	sw	a4,56(sp)
   12ea4:	e61ff06f          	j	12d04 <_dtoa_r+0x8fc>
   12ea8:	bee00713          	li	a4,-1042
   12eac:	000b079b          	sext.w	a5,s6
   12eb0:	40d7073b          	subw	a4,a4,a3
   12eb4:	00e797bb          	sllw	a5,a5,a4
   12eb8:	f38ff06f          	j	125f0 <_dtoa_r+0x1e8>
   12ebc:	04012423          	sw	zero,72(sp)
   12ec0:	fc8ff06f          	j	12688 <_dtoa_r+0x280>
   12ec4:	00098513          	mv	a0,s3
   12ec8:	000c0593          	mv	a1,s8
   12ecc:	089020ef          	jal	15754 <__mcmp>
   12ed0:	e60558e3          	bgez	a0,12d40 <_dtoa_r+0x938>
   12ed4:	00098593          	mv	a1,s3
   12ed8:	00040513          	mv	a0,s0
   12edc:	00a00613          	li	a2,10
   12ee0:	00000693          	li	a3,0
   12ee4:	03c020ef          	jal	14f20 <__multadd>
   12ee8:	02012703          	lw	a4,32(sp)
   12eec:	00050993          	mv	s3,a0
   12ef0:	fff9091b          	addiw	s2,s2,-1
   12ef4:	5e071c63          	bnez	a4,134ec <_dtoa_r+0x10e4>
   12ef8:	04c12783          	lw	a5,76(sp)
   12efc:	00078c93          	mv	s9,a5
   12f00:	00f04863          	bgtz	a5,12f10 <_dtoa_r+0xb08>
   12f04:	00200793          	li	a5,2
   12f08:	6147cc63          	blt	a5,s4,13520 <_dtoa_r+0x1118>
   12f0c:	04c12c83          	lw	s9,76(sp)
   12f10:	01813483          	ld	s1,24(sp)
   12f14:	00100a13          	li	s4,1
   12f18:	0100006f          	j	12f28 <_dtoa_r+0xb20>
   12f1c:	004020ef          	jal	14f20 <__multadd>
   12f20:	00050993          	mv	s3,a0
   12f24:	001a0a1b          	addiw	s4,s4,1
   12f28:	000c0593          	mv	a1,s8
   12f2c:	00098513          	mv	a0,s3
   12f30:	aecff0ef          	jal	1221c <quorem>
   12f34:	03050d1b          	addiw	s10,a0,48
   12f38:	00148493          	addi	s1,s1,1
   12f3c:	00040513          	mv	a0,s0
   12f40:	00098593          	mv	a1,s3
   12f44:	00a00613          	li	a2,10
   12f48:	00000693          	li	a3,0
   12f4c:	ffa48fa3          	sb	s10,-1(s1)
   12f50:	fd9a46e3          	blt	s4,s9,12f1c <_dtoa_r+0xb14>
   12f54:	00000a13          	li	s4,0
   12f58:	00098593          	mv	a1,s3
   12f5c:	00100613          	li	a2,1
   12f60:	00040513          	mv	a0,s0
   12f64:	68c020ef          	jal	155f0 <__lshift>
   12f68:	000c0593          	mv	a1,s8
   12f6c:	00050993          	mv	s3,a0
   12f70:	7e4020ef          	jal	15754 <__mcmp>
   12f74:	32a05863          	blez	a0,132a4 <_dtoa_r+0xe9c>
   12f78:	fff4c703          	lbu	a4,-1(s1)
   12f7c:	03900693          	li	a3,57
   12f80:	0140006f          	j	12f94 <_dtoa_r+0xb8c>
   12f84:	01813703          	ld	a4,24(sp)
   12f88:	26f70063          	beq	a4,a5,131e8 <_dtoa_r+0xde0>
   12f8c:	fff7c703          	lbu	a4,-1(a5)
   12f90:	00078493          	mv	s1,a5
   12f94:	fff48793          	addi	a5,s1,-1
   12f98:	fed706e3          	beq	a4,a3,12f84 <_dtoa_r+0xb7c>
   12f9c:	0017071b          	addiw	a4,a4,1
   12fa0:	00e78023          	sb	a4,0(a5)
   12fa4:	00040513          	mv	a0,s0
   12fa8:	000c0593          	mv	a1,s8
   12fac:	751010ef          	jal	14efc <_Bfree>
   12fb0:	9c0a8ce3          	beqz	s5,12988 <_dtoa_r+0x580>
   12fb4:	000a0a63          	beqz	s4,12fc8 <_dtoa_r+0xbc0>
   12fb8:	015a0863          	beq	s4,s5,12fc8 <_dtoa_r+0xbc0>
   12fbc:	00040513          	mv	a0,s0
   12fc0:	000a0593          	mv	a1,s4
   12fc4:	739010ef          	jal	14efc <_Bfree>
   12fc8:	00040513          	mv	a0,s0
   12fcc:	000a8593          	mv	a1,s5
   12fd0:	72d010ef          	jal	14efc <_Bfree>
   12fd4:	9b5ff06f          	j	12988 <_dtoa_r+0x580>
   12fd8:	000d8793          	mv	a5,s11
   12fdc:	b95ff06f          	j	12b70 <_dtoa_r+0x768>
   12fe0:	a3904ae3          	bgtz	s9,12a14 <_dtoa_r+0x60c>
   12fe4:	260c9263          	bnez	s9,13248 <_dtoa_r+0xe40>
   12fe8:	8781b007          	fld	ft0,-1928(gp) # 1d0d8 <__wctomb+0x48>
   12fec:	00000c13          	li	s8,0
   12ff0:	00000a93          	li	s5,0
   12ff4:	1204f4d3          	fmul.d	fs1,fs1,ft0
   12ff8:	f20b0053          	fmv.d.x	ft0,s6
   12ffc:	a2900b53          	fle.d	s6,ft0,fs1
   13000:	1c0b0463          	beqz	s6,131c8 <_dtoa_r+0xdc0>
   13004:	fff4c913          	not	s2,s1
   13008:	01813483          	ld	s1,24(sp)
   1300c:	00040513          	mv	a0,s0
   13010:	000c0593          	mv	a1,s8
   13014:	6e9010ef          	jal	14efc <_Bfree>
   13018:	fa0a98e3          	bnez	s5,12fc8 <_dtoa_r+0xbc0>
   1301c:	96dff06f          	j	12988 <_dtoa_r+0x580>
   13020:	00098593          	mv	a1,s3
   13024:	00040513          	mv	a0,s0
   13028:	490020ef          	jal	154b8 <__pow5mult>
   1302c:	00050993          	mv	s3,a0
   13030:	bb5ff06f          	j	12be4 <_dtoa_r+0x7dc>
   13034:	00cb1793          	slli	a5,s6,0xc
   13038:	be0790e3          	bnez	a5,12c18 <_dtoa_r+0x810>
   1303c:	420b5713          	srai	a4,s6,0x20
   13040:	7ff007b7          	lui	a5,0x7ff00
   13044:	00f777b3          	and	a5,a4,a5
   13048:	04012023          	sw	zero,64(sp)
   1304c:	c6078ae3          	beqz	a5,12cc0 <_dtoa_r+0x8b8>
   13050:	03812783          	lw	a5,56(sp)
   13054:	00100713          	li	a4,1
   13058:	001d0d1b          	addiw	s10,s10,1
   1305c:	0017879b          	addiw	a5,a5,1
   13060:	02f12c23          	sw	a5,56(sp)
   13064:	04e12023          	sw	a4,64(sp)
   13068:	c59ff06f          	j	12cc0 <_dtoa_r+0x8b8>
   1306c:	380a8e63          	beqz	s5,13408 <_dtoa_r+0x1000>
   13070:	4337879b          	addiw	a5,a5,1075
   13074:	000c0713          	mv	a4,s8
   13078:	03812d83          	lw	s11,56(sp)
   1307c:	abdff06f          	j	12b38 <_dtoa_r+0x730>
   13080:	412007bb          	negw	a5,s2
   13084:	04013407          	fld	fs0,64(sp)
   13088:	00200d93          	li	s11,2
   1308c:	fc078463          	beqz	a5,12854 <_dtoa_r+0x44c>
   13090:	00f7f713          	andi	a4,a5,15
   13094:	00371693          	slli	a3,a4,0x3
   13098:	0001b737          	lui	a4,0x1b
   1309c:	82070713          	addi	a4,a4,-2016 # 1a820 <__mprec_tens>
   130a0:	00e68733          	add	a4,a3,a4
   130a4:	00073007          	fld	ft0,0(a4)
   130a8:	4047d79b          	sraiw	a5,a5,0x4
   130ac:	12047453          	fmul.d	fs0,fs0,ft0
   130b0:	fa078263          	beqz	a5,12854 <_dtoa_r+0x44c>
   130b4:	0001b737          	lui	a4,0x1b
   130b8:	91070713          	addi	a4,a4,-1776 # 1a910 <__mprec_bigtens>
   130bc:	03f79693          	slli	a3,a5,0x3f
   130c0:	0006d863          	bgez	a3,130d0 <_dtoa_r+0xcc8>
   130c4:	00073007          	fld	ft0,0(a4)
   130c8:	001d8d9b          	addiw	s11,s11,1
   130cc:	12047453          	fmul.d	fs0,fs0,ft0
   130d0:	4017d79b          	sraiw	a5,a5,0x1
   130d4:	00870713          	addi	a4,a4,8
   130d8:	fe0792e3          	bnez	a5,130bc <_dtoa_r+0xcb4>
   130dc:	f78ff06f          	j	12854 <_dtoa_r+0x44c>
   130e0:	03900793          	li	a5,57
   130e4:	3afd0e63          	beq	s10,a5,134a0 <_dtoa_r+0x1098>
   130e8:	01605663          	blez	s6,130f4 <_dtoa_r+0xcec>
   130ec:	03812683          	lw	a3,56(sp)
   130f0:	03168d1b          	addiw	s10,a3,49
   130f4:	000a8a13          	mv	s4,s5
   130f8:	001c8493          	addi	s1,s9,1
   130fc:	01ac8023          	sb	s10,0(s9)
   13100:	000d8a93          	mv	s5,s11
   13104:	ea1ff06f          	j	12fa4 <_dtoa_r+0xb9c>
   13108:	000d0793          	mv	a5,s10
   1310c:	00098b13          	mv	s6,s3
   13110:	02e05c63          	blez	a4,13148 <_dtoa_r+0xd40>
   13114:	00100613          	li	a2,1
   13118:	00098593          	mv	a1,s3
   1311c:	00040513          	mv	a0,s0
   13120:	00f13423          	sd	a5,8(sp)
   13124:	4cc020ef          	jal	155f0 <__lshift>
   13128:	000c0593          	mv	a1,s8
   1312c:	00050b13          	mv	s6,a0
   13130:	624020ef          	jal	15754 <__mcmp>
   13134:	00813783          	ld	a5,8(sp)
   13138:	38a05663          	blez	a0,134c4 <_dtoa_r+0x10bc>
   1313c:	03900793          	li	a5,57
   13140:	38fd0e63          	beq	s10,a5,134dc <_dtoa_r+0x10d4>
   13144:	001d079b          	addiw	a5,s10,1
   13148:	000a8a13          	mv	s4,s5
   1314c:	001c8493          	addi	s1,s9,1
   13150:	00fc8023          	sb	a5,0(s9)
   13154:	000d8a93          	mv	s5,s11
   13158:	000b0993          	mv	s3,s6
   1315c:	e49ff06f          	j	12fa4 <_dtoa_r+0xb9c>
   13160:	000a8593          	mv	a1,s5
   13164:	00040513          	mv	a0,s0
   13168:	00a00613          	li	a2,10
   1316c:	00000693          	li	a3,0
   13170:	5b1010ef          	jal	14f20 <__multadd>
   13174:	00050a93          	mv	s5,a0
   13178:	00050d93          	mv	s11,a0
   1317c:	c19ff06f          	j	12d94 <_dtoa_r+0x98c>
   13180:	01813503          	ld	a0,24(sp)
   13184:	b68ff06f          	j	124ec <_dtoa_r+0xe4>
   13188:	00cb1713          	slli	a4,s6,0xc
   1318c:	b2071ae3          	bnez	a4,12cc0 <_dtoa_r+0x8b8>
   13190:	eadff06f          	j	1303c <_dtoa_r+0xc34>
   13194:	00200793          	li	a5,2
   13198:	bb47d6e3          	ble	s4,a5,12d44 <_dtoa_r+0x93c>
   1319c:	e60c94e3          	bnez	s9,13004 <_dtoa_r+0xbfc>
   131a0:	000c0593          	mv	a1,s8
   131a4:	00040513          	mv	a0,s0
   131a8:	00500613          	li	a2,5
   131ac:	00000693          	li	a3,0
   131b0:	571010ef          	jal	14f20 <__multadd>
   131b4:	00050c13          	mv	s8,a0
   131b8:	000c0593          	mv	a1,s8
   131bc:	00098513          	mv	a0,s3
   131c0:	594020ef          	jal	15754 <__mcmp>
   131c4:	e4a050e3          	blez	a0,13004 <_dtoa_r+0xbfc>
   131c8:	01813703          	ld	a4,24(sp)
   131cc:	03100793          	li	a5,49
   131d0:	0019091b          	addiw	s2,s2,1
   131d4:	00170493          	addi	s1,a4,1
   131d8:	00f70023          	sb	a5,0(a4)
   131dc:	e31ff06f          	j	1300c <_dtoa_r+0xc04>
   131e0:	00090513          	mv	a0,s2
   131e4:	b08ff06f          	j	124ec <_dtoa_r+0xe4>
   131e8:	01813703          	ld	a4,24(sp)
   131ec:	03100793          	li	a5,49
   131f0:	0019091b          	addiw	s2,s2,1
   131f4:	00f70023          	sb	a5,0(a4)
   131f8:	dadff06f          	j	12fa4 <_dtoa_r+0xb9c>
   131fc:	8701b087          	fld	ft1,-1936(gp) # 1d0d0 <__wctomb+0x40>
   13200:	d20d8053          	fcvt.d.w	ft0,s11
   13204:	fcc00737          	lui	a4,0xfcc00
   13208:	0a0470c3          	fmadd.d	ft1,fs0,ft0,ft1
   1320c:	e2008dd3          	fmv.x.d	s11,ft1
   13210:	420dd793          	srai	a5,s11,0x20
   13214:	00e787bb          	addw	a5,a5,a4
   13218:	020d9d93          	slli	s11,s11,0x20
   1321c:	02079793          	slli	a5,a5,0x20
   13220:	020ddd93          	srli	s11,s11,0x20
   13224:	00fdedb3          	or	s11,s11,a5
   13228:	8781b007          	fld	ft0,-1928(gp) # 1d0d8 <__wctomb+0x48>
   1322c:	f20d80d3          	fmv.d.x	ft1,s11
   13230:	0a047053          	fsub.d	ft0,fs0,ft0
   13234:	a20097d3          	flt.d	a5,ft1,ft0
   13238:	18079e63          	bnez	a5,133d4 <_dtoa_r+0xfcc>
   1323c:	221090d3          	fneg.d	ft1,ft1
   13240:	a21017d3          	flt.d	a5,ft0,ft1
   13244:	08078463          	beqz	a5,132cc <_dtoa_r+0xec4>
   13248:	00000c13          	li	s8,0
   1324c:	00000a93          	li	s5,0
   13250:	db5ff06f          	j	13004 <_dtoa_r+0xbfc>
   13254:	00098593          	mv	a1,s3
   13258:	00040513          	mv	a0,s0
   1325c:	000c0613          	mv	a2,s8
   13260:	258020ef          	jal	154b8 <__pow5mult>
   13264:	00050993          	mv	s3,a0
   13268:	97dff06f          	j	12be4 <_dtoa_r+0x7dc>
   1326c:	02012023          	sw	zero,32(sp)
   13270:	c78ff06f          	j	126e8 <_dtoa_r+0x2e0>
   13274:	03c12783          	lw	a5,60(sp)
   13278:	41870c3b          	subw	s8,a4,s8
   1327c:	018787bb          	addw	a5,a5,s8
   13280:	02f12e23          	sw	a5,60(sp)
   13284:	00070c13          	mv	s8,a4
   13288:	00000713          	li	a4,0
   1328c:	8a1ff06f          	j	12b2c <_dtoa_r+0x724>
   13290:	00100d93          	li	s11,1
   13294:	05b12623          	sw	s11,76(sp)
   13298:	000d8c93          	mv	s9,s11
   1329c:	000d8493          	mv	s1,s11
   132a0:	c60ff06f          	j	12700 <_dtoa_r+0x2f8>
   132a4:	00051663          	bnez	a0,132b0 <_dtoa_r+0xea8>
   132a8:	03fd1713          	slli	a4,s10,0x3f
   132ac:	cc0746e3          	bltz	a4,12f78 <_dtoa_r+0xb70>
   132b0:	03000693          	li	a3,48
   132b4:	0080006f          	j	132bc <_dtoa_r+0xeb4>
   132b8:	00070493          	mv	s1,a4
   132bc:	fff4c783          	lbu	a5,-1(s1)
   132c0:	fff48713          	addi	a4,s1,-1
   132c4:	fed78ae3          	beq	a5,a3,132b8 <_dtoa_r+0xeb0>
   132c8:	cddff06f          	j	12fa4 <_dtoa_r+0xb9c>
   132cc:	04013b03          	ld	s6,64(sp)
   132d0:	f1cff06f          	j	129ec <_dtoa_r+0x5e4>
   132d4:	01813703          	ld	a4,24(sp)
   132d8:	03000793          	li	a5,48
   132dc:	000b0493          	mv	s1,s6
   132e0:	00f70023          	sb	a5,0(a4) # fffffffffcc00000 <_gp+0xfffffffffcbe27a0>
   132e4:	0019091b          	addiw	s2,s2,1
   132e8:	03100793          	li	a5,49
   132ec:	81dff06f          	j	12b08 <_dtoa_r+0x700>
   132f0:	008aa583          	lw	a1,8(s5)
   132f4:	00040513          	mv	a0,s0
   132f8:	359010ef          	jal	14e50 <_Balloc>
   132fc:	014aa603          	lw	a2,20(s5)
   13300:	00050493          	mv	s1,a0
   13304:	010a8593          	addi	a1,s5,16
   13308:	00260613          	addi	a2,a2,2
   1330c:	00261613          	slli	a2,a2,0x2
   13310:	01050513          	addi	a0,a0,16
   13314:	125010ef          	jal	14c38 <memcpy>
   13318:	00040513          	mv	a0,s0
   1331c:	00048593          	mv	a1,s1
   13320:	00100613          	li	a2,1
   13324:	2cc020ef          	jal	155f0 <__lshift>
   13328:	00050d93          	mv	s11,a0
   1332c:	a45ff06f          	j	12d70 <_dtoa_r+0x968>
   13330:	00379713          	slli	a4,a5,0x3
   13334:	0001b7b7          	lui	a5,0x1b
   13338:	82078793          	addi	a5,a5,-2016 # 1a820 <__mprec_tens>
   1333c:	00f707b3          	add	a5,a4,a5
   13340:	01813703          	ld	a4,24(sp)
   13344:	0007b187          	fld	ft3,0(a5)
   13348:	c20417d3          	fcvt.w.d	a5,fs0,rtz
   1334c:	d2078053          	fcvt.d.w	ft0,a5
   13350:	f20d80d3          	fmv.d.x	ft1,s11
   13354:	0307879b          	addiw	a5,a5,48
   13358:	00f70023          	sb	a5,0(a4)
   1335c:	00100793          	li	a5,1
   13360:	1211f1d3          	fmul.d	ft3,ft3,ft1
   13364:	0a047053          	fsub.d	ft0,fs0,ft0
   13368:	00170b13          	addi	s6,a4,1
   1336c:	04f60663          	beq	a2,a5,133b8 <_dtoa_r+0xfb0>
   13370:	ffe6061b          	addiw	a2,a2,-2
   13374:	02061613          	slli	a2,a2,0x20
   13378:	8681b107          	fld	ft2,-1944(gp) # 1d0c8 <__wctomb+0x38>
   1337c:	01813783          	ld	a5,24(sp)
   13380:	02065613          	srli	a2,a2,0x20
   13384:	00260593          	addi	a1,a2,2
   13388:	00b785b3          	add	a1,a5,a1
   1338c:	000b0713          	mv	a4,s6
   13390:	12207053          	fmul.d	ft0,ft0,ft2
   13394:	00170713          	addi	a4,a4,1
   13398:	c20017d3          	fcvt.w.d	a5,ft0,rtz
   1339c:	d20780d3          	fcvt.d.w	ft1,a5
   133a0:	0307879b          	addiw	a5,a5,48
   133a4:	0a107053          	fsub.d	ft0,ft0,ft1
   133a8:	fef70fa3          	sb	a5,-1(a4)
   133ac:	feb712e3          	bne	a4,a1,13390 <_dtoa_r+0xf88>
   133b0:	00160613          	addi	a2,a2,1
   133b4:	00cb0b33          	add	s6,s6,a2
   133b8:	8801b087          	fld	ft1,-1920(gp) # 1d0e0 <__wctomb+0x50>
   133bc:	0211f153          	fadd.d	ft2,ft3,ft1
   133c0:	a20117d3          	flt.d	a5,ft2,ft0
   133c4:	0a078663          	beqz	a5,13470 <_dtoa_r+0x1068>
   133c8:	fffb4783          	lbu	a5,-1(s6)
   133cc:	00068913          	mv	s2,a3
   133d0:	f0cff06f          	j	12adc <_dtoa_r+0x6d4>
   133d4:	00000c13          	li	s8,0
   133d8:	00000a93          	li	s5,0
   133dc:	dedff06f          	j	131c8 <_dtoa_r+0xdc0>
   133e0:	03900793          	li	a5,57
   133e4:	0afd0e63          	beq	s10,a5,134a0 <_dtoa_r+0x1098>
   133e8:	001d0d1b          	addiw	s10,s10,1
   133ec:	d09ff06f          	j	130f4 <_dtoa_r+0xcec>
   133f0:	000a8a13          	mv	s4,s5
   133f4:	000d8a93          	mv	s5,s11
   133f8:	b61ff06f          	j	12f58 <_dtoa_r+0xb50>
   133fc:	419d8dbb          	subw	s11,s11,s9
   13400:	00000793          	li	a5,0
   13404:	f34ff06f          	j	12b38 <_dtoa_r+0x730>
   13408:	05812683          	lw	a3,88(sp)
   1340c:	03600793          	li	a5,54
   13410:	000c0713          	mv	a4,s8
   13414:	40d787bb          	subw	a5,a5,a3
   13418:	03812d83          	lw	s11,56(sp)
   1341c:	f1cff06f          	j	12b38 <_dtoa_r+0x730>
   13420:	dc0c8ee3          	beqz	s9,131fc <_dtoa_r+0xdf4>
   13424:	04c12783          	lw	a5,76(sp)
   13428:	eaf052e3          	blez	a5,132cc <_dtoa_r+0xec4>
   1342c:	8681b007          	fld	ft0,-1944(gp) # 1d0c8 <__wctomb+0x38>
   13430:	8701b087          	fld	ft1,-1936(gp) # 1d0d0 <__wctomb+0x40>
   13434:	12047453          	fmul.d	fs0,fs0,ft0
   13438:	001d8d9b          	addiw	s11,s11,1
   1343c:	d20d8053          	fcvt.d.w	ft0,s11
   13440:	fcc00737          	lui	a4,0xfcc00
   13444:	fff9069b          	addiw	a3,s2,-1
   13448:	04c12603          	lw	a2,76(sp)
   1344c:	0a0470c3          	fmadd.d	ft1,fs0,ft0,ft1
   13450:	e2008dd3          	fmv.x.d	s11,ft1
   13454:	420dd793          	srai	a5,s11,0x20
   13458:	00e787bb          	addw	a5,a5,a4
   1345c:	020d9d93          	slli	s11,s11,0x20
   13460:	02079793          	slli	a5,a5,0x20
   13464:	020ddd93          	srli	s11,s11,0x20
   13468:	00fdedb3          	or	s11,s11,a5
   1346c:	c34ff06f          	j	128a0 <_dtoa_r+0x498>
   13470:	0a30f1d3          	fsub.d	ft3,ft1,ft3
   13474:	a23017d3          	flt.d	a5,ft0,ft3
   13478:	e4078ae3          	beqz	a5,132cc <_dtoa_r+0xec4>
   1347c:	000b0493          	mv	s1,s6
   13480:	03000613          	li	a2,48
   13484:	0080006f          	j	1348c <_dtoa_r+0x1084>
   13488:	00070493          	mv	s1,a4
   1348c:	fff4c783          	lbu	a5,-1(s1)
   13490:	fff48713          	addi	a4,s1,-1
   13494:	fec78ae3          	beq	a5,a2,13488 <_dtoa_r+0x1080>
   13498:	00068913          	mv	s2,a3
   1349c:	cecff06f          	j	12988 <_dtoa_r+0x580>
   134a0:	000a8a13          	mv	s4,s5
   134a4:	000d8a93          	mv	s5,s11
   134a8:	03900793          	li	a5,57
   134ac:	001c8493          	addi	s1,s9,1
   134b0:	00fc8023          	sb	a5,0(s9)
   134b4:	03900713          	li	a4,57
   134b8:	ac5ff06f          	j	12f7c <_dtoa_r+0xb74>
   134bc:	00068913          	mv	s2,a3
   134c0:	e1cff06f          	j	12adc <_dtoa_r+0x6d4>
   134c4:	c80512e3          	bnez	a0,13148 <_dtoa_r+0xd40>
   134c8:	03fd1693          	slli	a3,s10,0x3f
   134cc:	c606dee3          	bgez	a3,13148 <_dtoa_r+0xd40>
   134d0:	c6dff06f          	j	1313c <_dtoa_r+0xd34>
   134d4:	00048b13          	mv	s6,s1
   134d8:	de0ff06f          	j	12ab8 <_dtoa_r+0x6b0>
   134dc:	000a8a13          	mv	s4,s5
   134e0:	000b0993          	mv	s3,s6
   134e4:	000d8a93          	mv	s5,s11
   134e8:	fc1ff06f          	j	134a8 <_dtoa_r+0x10a0>
   134ec:	000a8593          	mv	a1,s5
   134f0:	00040513          	mv	a0,s0
   134f4:	00a00613          	li	a2,10
   134f8:	00000693          	li	a3,0
   134fc:	225010ef          	jal	14f20 <__multadd>
   13500:	04c12783          	lw	a5,76(sp)
   13504:	00050a93          	mv	s5,a0
   13508:	00078c93          	mv	s9,a5
   1350c:	84f040e3          	bgtz	a5,12d4c <_dtoa_r+0x944>
   13510:	00200793          	li	a5,2
   13514:	0147c663          	blt	a5,s4,13520 <_dtoa_r+0x1118>
   13518:	04c12c83          	lw	s9,76(sp)
   1351c:	831ff06f          	j	12d4c <_dtoa_r+0x944>
   13520:	04c12c83          	lw	s9,76(sp)
   13524:	c79ff06f          	j	1319c <_dtoa_r+0xd94>
   13528:	fce78e63          	beq	a5,a4,12d04 <_dtoa_r+0x8fc>
   1352c:	03c00793          	li	a5,60
   13530:	40a7853b          	subw	a0,a5,a0
   13534:	95dff06f          	j	12e90 <_dtoa_r+0xa88>

0000000000013538 <_fflush_r>:
   13538:	fd010113          	addi	sp,sp,-48
   1353c:	02813023          	sd	s0,32(sp)
   13540:	01313423          	sd	s3,8(sp)
   13544:	02113423          	sd	ra,40(sp)
   13548:	00913c23          	sd	s1,24(sp)
   1354c:	01213823          	sd	s2,16(sp)
   13550:	00050993          	mv	s3,a0
   13554:	00058413          	mv	s0,a1
   13558:	00050663          	beqz	a0,13564 <_fflush_r+0x2c>
   1355c:	05052783          	lw	a5,80(a0)
   13560:	18078463          	beqz	a5,136e8 <_fflush_r+0x1b0>
   13564:	01041703          	lh	a4,16(s0)
   13568:	0c070e63          	beqz	a4,13644 <_fflush_r+0x10c>
   1356c:	00877793          	andi	a5,a4,8
   13570:	0e079a63          	bnez	a5,13664 <_fflush_r+0x12c>
   13574:	000017b7          	lui	a5,0x1
   13578:	8007879b          	addiw	a5,a5,-2048
   1357c:	00f767b3          	or	a5,a4,a5
   13580:	00842683          	lw	a3,8(s0)
   13584:	0107979b          	slliw	a5,a5,0x10
   13588:	4107d79b          	sraiw	a5,a5,0x10
   1358c:	00f41823          	sh	a5,16(s0)
   13590:	18d05a63          	blez	a3,13724 <_fflush_r+0x1ec>
   13594:	04843703          	ld	a4,72(s0)
   13598:	0a070663          	beqz	a4,13644 <_fflush_r+0x10c>
   1359c:	03079793          	slli	a5,a5,0x30
   135a0:	0307d793          	srli	a5,a5,0x30
   135a4:	03379693          	slli	a3,a5,0x33
   135a8:	0009a483          	lw	s1,0(s3)
   135ac:	0009a023          	sw	zero,0(s3)
   135b0:	1406d463          	bgez	a3,136f8 <_fflush_r+0x1c0>
   135b4:	08c42603          	lw	a2,140(s0)
   135b8:	0047f793          	andi	a5,a5,4
   135bc:	00078e63          	beqz	a5,135d8 <_fflush_r+0xa0>
   135c0:	00842683          	lw	a3,8(s0)
   135c4:	05843783          	ld	a5,88(s0)
   135c8:	40d60633          	sub	a2,a2,a3
   135cc:	00078663          	beqz	a5,135d8 <_fflush_r+0xa0>
   135d0:	07042783          	lw	a5,112(s0)
   135d4:	40f60633          	sub	a2,a2,a5
   135d8:	03043583          	ld	a1,48(s0)
   135dc:	00098513          	mv	a0,s3
   135e0:	00000693          	li	a3,0
   135e4:	000700e7          	jalr	a4
   135e8:	fff00793          	li	a5,-1
   135ec:	14f50263          	beq	a0,a5,13730 <_fflush_r+0x1f8>
   135f0:	01045683          	lhu	a3,16(s0)
   135f4:	fffff7b7          	lui	a5,0xfffff
   135f8:	7ff7879b          	addiw	a5,a5,2047
   135fc:	01843703          	ld	a4,24(s0)
   13600:	00f6f7b3          	and	a5,a3,a5
   13604:	0107979b          	slliw	a5,a5,0x10
   13608:	4107d79b          	sraiw	a5,a5,0x10
   1360c:	00e43023          	sd	a4,0(s0)
   13610:	03379713          	slli	a4,a5,0x33
   13614:	00f41823          	sh	a5,16(s0)
   13618:	00042423          	sw	zero,8(s0)
   1361c:	00075463          	bgez	a4,13624 <_fflush_r+0xec>
   13620:	08a42623          	sw	a0,140(s0)
   13624:	05843583          	ld	a1,88(s0)
   13628:	0099a023          	sw	s1,0(s3)
   1362c:	00058c63          	beqz	a1,13644 <_fflush_r+0x10c>
   13630:	07440793          	addi	a5,s0,116
   13634:	00f58663          	beq	a1,a5,13640 <_fflush_r+0x108>
   13638:	00098513          	mv	a0,s3
   1363c:	644000ef          	jal	13c80 <_free_r>
   13640:	04043c23          	sd	zero,88(s0)
   13644:	00000513          	li	a0,0
   13648:	02813083          	ld	ra,40(sp)
   1364c:	02013403          	ld	s0,32(sp)
   13650:	01813483          	ld	s1,24(sp)
   13654:	01013903          	ld	s2,16(sp)
   13658:	00813983          	ld	s3,8(sp)
   1365c:	03010113          	addi	sp,sp,48
   13660:	00008067          	ret
   13664:	01843903          	ld	s2,24(s0)
   13668:	fc090ee3          	beqz	s2,13644 <_fflush_r+0x10c>
   1366c:	00043483          	ld	s1,0(s0)
   13670:	03e71693          	slli	a3,a4,0x3e
   13674:	00000793          	li	a5,0
   13678:	01243023          	sd	s2,0(s0)
   1367c:	412484bb          	subw	s1,s1,s2
   13680:	06068863          	beqz	a3,136f0 <_fflush_r+0x1b8>
   13684:	00f42623          	sw	a5,12(s0)
   13688:	00904863          	bgtz	s1,13698 <_fflush_r+0x160>
   1368c:	fb9ff06f          	j	13644 <_fflush_r+0x10c>
   13690:	00f90933          	add	s2,s2,a5
   13694:	fa9058e3          	blez	s1,13644 <_fflush_r+0x10c>
   13698:	04043783          	ld	a5,64(s0)
   1369c:	03043583          	ld	a1,48(s0)
   136a0:	00048693          	mv	a3,s1
   136a4:	00090613          	mv	a2,s2
   136a8:	00098513          	mv	a0,s3
   136ac:	000780e7          	jalr	a5
   136b0:	00050793          	mv	a5,a0
   136b4:	40a484bb          	subw	s1,s1,a0
   136b8:	fca04ce3          	bgtz	a0,13690 <_fflush_r+0x158>
   136bc:	01045783          	lhu	a5,16(s0)
   136c0:	02813083          	ld	ra,40(sp)
   136c4:	fff00513          	li	a0,-1
   136c8:	0407e793          	ori	a5,a5,64
   136cc:	00f41823          	sh	a5,16(s0)
   136d0:	01813483          	ld	s1,24(sp)
   136d4:	02013403          	ld	s0,32(sp)
   136d8:	01013903          	ld	s2,16(sp)
   136dc:	00813983          	ld	s3,8(sp)
   136e0:	03010113          	addi	sp,sp,48
   136e4:	00008067          	ret
   136e8:	440000ef          	jal	13b28 <__sinit>
   136ec:	e79ff06f          	j	13564 <_fflush_r+0x2c>
   136f0:	02042783          	lw	a5,32(s0)
   136f4:	f91ff06f          	j	13684 <_fflush_r+0x14c>
   136f8:	03043583          	ld	a1,48(s0)
   136fc:	00000613          	li	a2,0
   13700:	00098513          	mv	a0,s3
   13704:	00100693          	li	a3,1
   13708:	000700e7          	jalr	a4
   1370c:	fff00793          	li	a5,-1
   13710:	00050613          	mv	a2,a0
   13714:	08f50663          	beq	a0,a5,137a0 <_fflush_r+0x268>
   13718:	01045783          	lhu	a5,16(s0)
   1371c:	04843703          	ld	a4,72(s0)
   13720:	e99ff06f          	j	135b8 <_fflush_r+0x80>
   13724:	07042703          	lw	a4,112(s0)
   13728:	e6e046e3          	bgtz	a4,13594 <_fflush_r+0x5c>
   1372c:	f19ff06f          	j	13644 <_fflush_r+0x10c>
   13730:	0009a783          	lw	a5,0(s3)
   13734:	02078c63          	beqz	a5,1376c <_fflush_r+0x234>
   13738:	01d00713          	li	a4,29
   1373c:	00e78663          	beq	a5,a4,13748 <_fflush_r+0x210>
   13740:	01600713          	li	a4,22
   13744:	08e79063          	bne	a5,a4,137c4 <_fflush_r+0x28c>
   13748:	01045683          	lhu	a3,16(s0)
   1374c:	01843703          	ld	a4,24(s0)
   13750:	fffff7b7          	lui	a5,0xfffff
   13754:	7ff7879b          	addiw	a5,a5,2047
   13758:	00f6f7b3          	and	a5,a3,a5
   1375c:	00f41823          	sh	a5,16(s0)
   13760:	00042423          	sw	zero,8(s0)
   13764:	00e43023          	sd	a4,0(s0)
   13768:	ebdff06f          	j	13624 <_fflush_r+0xec>
   1376c:	01045683          	lhu	a3,16(s0)
   13770:	fffff7b7          	lui	a5,0xfffff
   13774:	7ff7879b          	addiw	a5,a5,2047
   13778:	00f6f7b3          	and	a5,a3,a5
   1377c:	01843703          	ld	a4,24(s0)
   13780:	0107979b          	slliw	a5,a5,0x10
   13784:	4107d79b          	sraiw	a5,a5,0x10
   13788:	03379693          	slli	a3,a5,0x33
   1378c:	00f41823          	sh	a5,16(s0)
   13790:	00042423          	sw	zero,8(s0)
   13794:	00e43023          	sd	a4,0(s0)
   13798:	e806c4e3          	bltz	a3,13620 <_fflush_r+0xe8>
   1379c:	e89ff06f          	j	13624 <_fflush_r+0xec>
   137a0:	0009a783          	lw	a5,0(s3)
   137a4:	f6078ae3          	beqz	a5,13718 <_fflush_r+0x1e0>
   137a8:	01d00713          	li	a4,29
   137ac:	00e78663          	beq	a5,a4,137b8 <_fflush_r+0x280>
   137b0:	01600713          	li	a4,22
   137b4:	f0e794e3          	bne	a5,a4,136bc <_fflush_r+0x184>
   137b8:	0099a023          	sw	s1,0(s3)
   137bc:	00000513          	li	a0,0
   137c0:	e89ff06f          	j	13648 <_fflush_r+0x110>
   137c4:	01045783          	lhu	a5,16(s0)
   137c8:	0407e793          	ori	a5,a5,64
   137cc:	00f41823          	sh	a5,16(s0)
   137d0:	e79ff06f          	j	13648 <_fflush_r+0x110>

00000000000137d4 <fflush>:
   137d4:	00050593          	mv	a1,a0
   137d8:	00050663          	beqz	a0,137e4 <fflush+0x10>
   137dc:	8101b503          	ld	a0,-2032(gp) # 1d070 <_impure_ptr>
   137e0:	d59ff06f          	j	13538 <_fflush_r>
   137e4:	8081b503          	ld	a0,-2040(gp) # 1d068 <_global_impure_ptr>
   137e8:	000135b7          	lui	a1,0x13
   137ec:	53858593          	addi	a1,a1,1336 # 13538 <_fflush_r>
   137f0:	0550006f          	j	14044 <_fwalk_reent>

00000000000137f4 <__fp_lock>:
   137f4:	00000513          	li	a0,0
   137f8:	00008067          	ret

00000000000137fc <__fp_unlock>:
   137fc:	00000513          	li	a0,0
   13800:	00008067          	ret

0000000000013804 <_cleanup_r>:
   13804:	000175b7          	lui	a1,0x17
   13808:	59c58593          	addi	a1,a1,1436 # 1759c <fclose>
   1380c:	7940006f          	j	13fa0 <_fwalk>

0000000000013810 <__sinit.part.1>:
   13810:	fb010113          	addi	sp,sp,-80
   13814:	000147b7          	lui	a5,0x14
   13818:	04813023          	sd	s0,64(sp)
   1381c:	80478793          	addi	a5,a5,-2044 # 13804 <_cleanup_r>
   13820:	00853403          	ld	s0,8(a0)
   13824:	04113423          	sd	ra,72(sp)
   13828:	02913c23          	sd	s1,56(sp)
   1382c:	03213823          	sd	s2,48(sp)
   13830:	03313423          	sd	s3,40(sp)
   13834:	03413023          	sd	s4,32(sp)
   13838:	01513c23          	sd	s5,24(sp)
   1383c:	01613823          	sd	s6,16(sp)
   13840:	01713423          	sd	s7,8(sp)
   13844:	04f53c23          	sd	a5,88(a0)
   13848:	00300793          	li	a5,3
   1384c:	52f52423          	sw	a5,1320(a0)
   13850:	53850713          	addi	a4,a0,1336
   13854:	00100b93          	li	s7,1
   13858:	00400793          	li	a5,4
   1385c:	52e53823          	sd	a4,1328(a0)
   13860:	05752823          	sw	s7,80(a0)
   13864:	52053023          	sd	zero,1312(a0)
   13868:	00050913          	mv	s2,a0
   1386c:	00f41823          	sh	a5,16(s0)
   13870:	00000593          	li	a1,0
   13874:	00800613          	li	a2,8
   13878:	00043023          	sd	zero,0(s0)
   1387c:	00042423          	sw	zero,8(s0)
   13880:	00042623          	sw	zero,12(s0)
   13884:	0a042223          	sw	zero,164(s0)
   13888:	00041923          	sh	zero,18(s0)
   1388c:	00043c23          	sd	zero,24(s0)
   13890:	02042023          	sw	zero,32(s0)
   13894:	02042423          	sw	zero,40(s0)
   13898:	09c40513          	addi	a0,s0,156
   1389c:	4d0010ef          	jal	14d6c <memset>
   138a0:	01093483          	ld	s1,16(s2)
   138a4:	00016b37          	lui	s6,0x16
   138a8:	00016ab7          	lui	s5,0x16
   138ac:	00016a37          	lui	s4,0x16
   138b0:	000169b7          	lui	s3,0x16
   138b4:	f04b0b13          	addi	s6,s6,-252 # 15f04 <__sread>
   138b8:	f70a8a93          	addi	s5,s5,-144 # 15f70 <__swrite>
   138bc:	fe0a0a13          	addi	s4,s4,-32 # 15fe0 <__sseek>
   138c0:	04c98993          	addi	s3,s3,76 # 1604c <__sclose>
   138c4:	00900793          	li	a5,9
   138c8:	03643c23          	sd	s6,56(s0)
   138cc:	05543023          	sd	s5,64(s0)
   138d0:	05443423          	sd	s4,72(s0)
   138d4:	05343823          	sd	s3,80(s0)
   138d8:	02843823          	sd	s0,48(s0)
   138dc:	00000593          	li	a1,0
   138e0:	00f49823          	sh	a5,16(s1)
   138e4:	01749923          	sh	s7,18(s1)
   138e8:	00800613          	li	a2,8
   138ec:	0004b023          	sd	zero,0(s1)
   138f0:	0004a423          	sw	zero,8(s1)
   138f4:	0004a623          	sw	zero,12(s1)
   138f8:	0a04a223          	sw	zero,164(s1)
   138fc:	0004bc23          	sd	zero,24(s1)
   13900:	0204a023          	sw	zero,32(s1)
   13904:	0204a423          	sw	zero,40(s1)
   13908:	09c48513          	addi	a0,s1,156
   1390c:	460010ef          	jal	14d6c <memset>
   13910:	01893403          	ld	s0,24(s2)
   13914:	01200793          	li	a5,18
   13918:	0364bc23          	sd	s6,56(s1)
   1391c:	0554b023          	sd	s5,64(s1)
   13920:	0544b423          	sd	s4,72(s1)
   13924:	0534b823          	sd	s3,80(s1)
   13928:	0294b823          	sd	s1,48(s1)
   1392c:	00f41823          	sh	a5,16(s0)
   13930:	00200793          	li	a5,2
   13934:	09c40513          	addi	a0,s0,156
   13938:	00043023          	sd	zero,0(s0)
   1393c:	00042423          	sw	zero,8(s0)
   13940:	00042623          	sw	zero,12(s0)
   13944:	0a042223          	sw	zero,164(s0)
   13948:	00f41923          	sh	a5,18(s0)
   1394c:	00043c23          	sd	zero,24(s0)
   13950:	02042023          	sw	zero,32(s0)
   13954:	02042423          	sw	zero,40(s0)
   13958:	00000593          	li	a1,0
   1395c:	00800613          	li	a2,8
   13960:	40c010ef          	jal	14d6c <memset>
   13964:	04813083          	ld	ra,72(sp)
   13968:	03643c23          	sd	s6,56(s0)
   1396c:	05543023          	sd	s5,64(s0)
   13970:	05443423          	sd	s4,72(s0)
   13974:	05343823          	sd	s3,80(s0)
   13978:	02843823          	sd	s0,48(s0)
   1397c:	03813483          	ld	s1,56(sp)
   13980:	04013403          	ld	s0,64(sp)
   13984:	03013903          	ld	s2,48(sp)
   13988:	02813983          	ld	s3,40(sp)
   1398c:	02013a03          	ld	s4,32(sp)
   13990:	01813a83          	ld	s5,24(sp)
   13994:	01013b03          	ld	s6,16(sp)
   13998:	00813b83          	ld	s7,8(sp)
   1399c:	05010113          	addi	sp,sp,80
   139a0:	00008067          	ret

00000000000139a4 <__sfmoreglue>:
   139a4:	fe010113          	addi	sp,sp,-32
   139a8:	01213023          	sd	s2,0(sp)
   139ac:	00058913          	mv	s2,a1
   139b0:	00913423          	sd	s1,8(sp)
   139b4:	00090793          	mv	a5,s2
   139b8:	0a800493          	li	s1,168
   139bc:	029784b3          	mul	s1,a5,s1
   139c0:	00813823          	sd	s0,16(sp)
   139c4:	00113c23          	sd	ra,24(sp)
   139c8:	01848593          	addi	a1,s1,24
   139cc:	1a1000ef          	jal	1436c <_malloc_r>
   139d0:	00050413          	mv	s0,a0
   139d4:	02050063          	beqz	a0,139f4 <__sfmoreglue+0x50>
   139d8:	01850513          	addi	a0,a0,24
   139dc:	00043023          	sd	zero,0(s0)
   139e0:	01242423          	sw	s2,8(s0)
   139e4:	00a43823          	sd	a0,16(s0)
   139e8:	00000593          	li	a1,0
   139ec:	00048613          	mv	a2,s1
   139f0:	37c010ef          	jal	14d6c <memset>
   139f4:	01813083          	ld	ra,24(sp)
   139f8:	00040513          	mv	a0,s0
   139fc:	00813483          	ld	s1,8(sp)
   13a00:	01013403          	ld	s0,16(sp)
   13a04:	00013903          	ld	s2,0(sp)
   13a08:	02010113          	addi	sp,sp,32
   13a0c:	00008067          	ret

0000000000013a10 <__sfp>:
   13a10:	fd010113          	addi	sp,sp,-48
   13a14:	01213823          	sd	s2,16(sp)
   13a18:	8081b903          	ld	s2,-2040(gp) # 1d068 <_global_impure_ptr>
   13a1c:	01313423          	sd	s3,8(sp)
   13a20:	02113423          	sd	ra,40(sp)
   13a24:	05092783          	lw	a5,80(s2)
   13a28:	02813023          	sd	s0,32(sp)
   13a2c:	00913c23          	sd	s1,24(sp)
   13a30:	00050993          	mv	s3,a0
   13a34:	00079663          	bnez	a5,13a40 <__sfp+0x30>
   13a38:	00090513          	mv	a0,s2
   13a3c:	dd5ff0ef          	jal	13810 <__sinit.part.1>
   13a40:	52090913          	addi	s2,s2,1312
   13a44:	fff00493          	li	s1,-1
   13a48:	00892783          	lw	a5,8(s2)
   13a4c:	01093403          	ld	s0,16(s2)
   13a50:	fff7879b          	addiw	a5,a5,-1
   13a54:	0007da63          	bgez	a5,13a68 <__sfp+0x58>
   13a58:	0840006f          	j	13adc <__sfp+0xcc>
   13a5c:	fff7879b          	addiw	a5,a5,-1
   13a60:	0a840413          	addi	s0,s0,168
   13a64:	06978c63          	beq	a5,s1,13adc <__sfp+0xcc>
   13a68:	01041703          	lh	a4,16(s0)
   13a6c:	fe0718e3          	bnez	a4,13a5c <__sfp+0x4c>
   13a70:	fff00793          	li	a5,-1
   13a74:	00f41923          	sh	a5,18(s0)
   13a78:	00100793          	li	a5,1
   13a7c:	00f41823          	sh	a5,16(s0)
   13a80:	0a042223          	sw	zero,164(s0)
   13a84:	00043023          	sd	zero,0(s0)
   13a88:	00042623          	sw	zero,12(s0)
   13a8c:	00042423          	sw	zero,8(s0)
   13a90:	00043c23          	sd	zero,24(s0)
   13a94:	02042023          	sw	zero,32(s0)
   13a98:	02042423          	sw	zero,40(s0)
   13a9c:	09c40513          	addi	a0,s0,156
   13aa0:	00000593          	li	a1,0
   13aa4:	00800613          	li	a2,8
   13aa8:	2c4010ef          	jal	14d6c <memset>
   13aac:	04043c23          	sd	zero,88(s0)
   13ab0:	06042023          	sw	zero,96(s0)
   13ab4:	06043c23          	sd	zero,120(s0)
   13ab8:	08042023          	sw	zero,128(s0)
   13abc:	00040513          	mv	a0,s0
   13ac0:	02813083          	ld	ra,40(sp)
   13ac4:	02013403          	ld	s0,32(sp)
   13ac8:	01813483          	ld	s1,24(sp)
   13acc:	01013903          	ld	s2,16(sp)
   13ad0:	00813983          	ld	s3,8(sp)
   13ad4:	03010113          	addi	sp,sp,48
   13ad8:	00008067          	ret
   13adc:	00093783          	ld	a5,0(s2)
   13ae0:	00078663          	beqz	a5,13aec <__sfp+0xdc>
   13ae4:	00078913          	mv	s2,a5
   13ae8:	f61ff06f          	j	13a48 <__sfp+0x38>
   13aec:	00098513          	mv	a0,s3
   13af0:	00400593          	li	a1,4
   13af4:	eb1ff0ef          	jal	139a4 <__sfmoreglue>
   13af8:	00a93023          	sd	a0,0(s2)
   13afc:	00050663          	beqz	a0,13b08 <__sfp+0xf8>
   13b00:	00050913          	mv	s2,a0
   13b04:	f45ff06f          	j	13a48 <__sfp+0x38>
   13b08:	00c00793          	li	a5,12
   13b0c:	00f9a023          	sw	a5,0(s3)
   13b10:	00000513          	li	a0,0
   13b14:	fadff06f          	j	13ac0 <__sfp+0xb0>

0000000000013b18 <_cleanup>:
   13b18:	8081b503          	ld	a0,-2040(gp) # 1d068 <_global_impure_ptr>
   13b1c:	000175b7          	lui	a1,0x17
   13b20:	59c58593          	addi	a1,a1,1436 # 1759c <fclose>
   13b24:	47c0006f          	j	13fa0 <_fwalk>

0000000000013b28 <__sinit>:
   13b28:	05052783          	lw	a5,80(a0)
   13b2c:	00078463          	beqz	a5,13b34 <__sinit+0xc>
   13b30:	00008067          	ret
   13b34:	cddff06f          	j	13810 <__sinit.part.1>

0000000000013b38 <__sfp_lock_acquire>:
   13b38:	00008067          	ret

0000000000013b3c <__sfp_lock_release>:
   13b3c:	00008067          	ret

0000000000013b40 <__sinit_lock_acquire>:
   13b40:	00008067          	ret

0000000000013b44 <__sinit_lock_release>:
   13b44:	00008067          	ret

0000000000013b48 <__fp_lock_all>:
   13b48:	8101b503          	ld	a0,-2032(gp) # 1d070 <_impure_ptr>
   13b4c:	000135b7          	lui	a1,0x13
   13b50:	7f458593          	addi	a1,a1,2036 # 137f4 <__fp_lock>
   13b54:	44c0006f          	j	13fa0 <_fwalk>

0000000000013b58 <__fp_unlock_all>:
   13b58:	8101b503          	ld	a0,-2032(gp) # 1d070 <_impure_ptr>
   13b5c:	000135b7          	lui	a1,0x13
   13b60:	7fc58593          	addi	a1,a1,2044 # 137fc <__fp_unlock>
   13b64:	43c0006f          	j	13fa0 <_fwalk>

0000000000013b68 <_malloc_trim_r>:
   13b68:	fd010113          	addi	sp,sp,-48
   13b6c:	01213823          	sd	s2,16(sp)
   13b70:	0001d937          	lui	s2,0x1d
   13b74:	85090913          	addi	s2,s2,-1968 # 1c850 <__malloc_av_>
   13b78:	02813023          	sd	s0,32(sp)
   13b7c:	00913c23          	sd	s1,24(sp)
   13b80:	00058413          	mv	s0,a1
   13b84:	01313423          	sd	s3,8(sp)
   13b88:	02113423          	sd	ra,40(sp)
   13b8c:	00050993          	mv	s3,a0
   13b90:	2b8010ef          	jal	14e48 <__malloc_lock>
   13b94:	01093703          	ld	a4,16(s2)
   13b98:	000017b7          	lui	a5,0x1
   13b9c:	fdf78593          	addi	a1,a5,-33 # fdf <_ftext-0xf021>
   13ba0:	00873483          	ld	s1,8(a4) # fffffffffcc00008 <_gp+0xfffffffffcbe27a8>
   13ba4:	ffc4f493          	andi	s1,s1,-4
   13ba8:	40848433          	sub	s0,s1,s0
   13bac:	00b40433          	add	s0,s0,a1
   13bb0:	00c45413          	srli	s0,s0,0xc
   13bb4:	fff40413          	addi	s0,s0,-1
   13bb8:	00c41413          	slli	s0,s0,0xc
   13bbc:	00f44c63          	blt	s0,a5,13bd4 <_malloc_trim_r+0x6c>
   13bc0:	00000513          	li	a0,0
   13bc4:	66d040ef          	jal	18a30 <sbrk>
   13bc8:	01093783          	ld	a5,16(s2)
   13bcc:	009787b3          	add	a5,a5,s1
   13bd0:	02f50663          	beq	a0,a5,13bfc <_malloc_trim_r+0x94>
   13bd4:	00098513          	mv	a0,s3
   13bd8:	274010ef          	jal	14e4c <__malloc_unlock>
   13bdc:	02813083          	ld	ra,40(sp)
   13be0:	00000513          	li	a0,0
   13be4:	02013403          	ld	s0,32(sp)
   13be8:	01813483          	ld	s1,24(sp)
   13bec:	01013903          	ld	s2,16(sp)
   13bf0:	00813983          	ld	s3,8(sp)
   13bf4:	03010113          	addi	sp,sp,48
   13bf8:	00008067          	ret
   13bfc:	40800533          	neg	a0,s0
   13c00:	631040ef          	jal	18a30 <sbrk>
   13c04:	fff00793          	li	a5,-1
   13c08:	04f50463          	beq	a0,a5,13c50 <_malloc_trim_r+0xe8>
   13c0c:	9181a783          	lw	a5,-1768(gp) # 1d178 <__malloc_current_mallinfo>
   13c10:	01093683          	ld	a3,16(s2)
   13c14:	408484b3          	sub	s1,s1,s0
   13c18:	0014e493          	ori	s1,s1,1
   13c1c:	4087843b          	subw	s0,a5,s0
   13c20:	00098513          	mv	a0,s3
   13c24:	0096b423          	sd	s1,8(a3)
   13c28:	9081ac23          	sw	s0,-1768(gp) # 1d178 <__malloc_current_mallinfo>
   13c2c:	220010ef          	jal	14e4c <__malloc_unlock>
   13c30:	02813083          	ld	ra,40(sp)
   13c34:	00100513          	li	a0,1
   13c38:	02013403          	ld	s0,32(sp)
   13c3c:	01813483          	ld	s1,24(sp)
   13c40:	01013903          	ld	s2,16(sp)
   13c44:	00813983          	ld	s3,8(sp)
   13c48:	03010113          	addi	sp,sp,48
   13c4c:	00008067          	ret
   13c50:	00000513          	li	a0,0
   13c54:	5dd040ef          	jal	18a30 <sbrk>
   13c58:	01093703          	ld	a4,16(s2)
   13c5c:	01f00693          	li	a3,31
   13c60:	40e507b3          	sub	a5,a0,a4
   13c64:	f6f6d8e3          	ble	a5,a3,13bd4 <_malloc_trim_r+0x6c>
   13c68:	8201b683          	ld	a3,-2016(gp) # 1d080 <__malloc_sbrk_base>
   13c6c:	0017e793          	ori	a5,a5,1
   13c70:	00f73423          	sd	a5,8(a4)
   13c74:	40d50533          	sub	a0,a0,a3
   13c78:	90a1ac23          	sw	a0,-1768(gp) # 1d178 <__malloc_current_mallinfo>
   13c7c:	f59ff06f          	j	13bd4 <_malloc_trim_r+0x6c>

0000000000013c80 <_free_r>:
   13c80:	12058c63          	beqz	a1,13db8 <_free_r+0x138>
   13c84:	fe010113          	addi	sp,sp,-32
   13c88:	00813823          	sd	s0,16(sp)
   13c8c:	00058413          	mv	s0,a1
   13c90:	00913423          	sd	s1,8(sp)
   13c94:	00113c23          	sd	ra,24(sp)
   13c98:	00050493          	mv	s1,a0
   13c9c:	1ac010ef          	jal	14e48 <__malloc_lock>
   13ca0:	ff843503          	ld	a0,-8(s0)
   13ca4:	ff040613          	addi	a2,s0,-16
   13ca8:	0001d6b7          	lui	a3,0x1d
   13cac:	ffe57793          	andi	a5,a0,-2
   13cb0:	00f605b3          	add	a1,a2,a5
   13cb4:	85068693          	addi	a3,a3,-1968 # 1c850 <__malloc_av_>
   13cb8:	0085b703          	ld	a4,8(a1)
   13cbc:	0106b803          	ld	a6,16(a3)
   13cc0:	ffc77713          	andi	a4,a4,-4
   13cc4:	16b80663          	beq	a6,a1,13e30 <_free_r+0x1b0>
   13cc8:	03f51813          	slli	a6,a0,0x3f
   13ccc:	00e5b423          	sd	a4,8(a1)
   13cd0:	02084663          	bltz	a6,13cfc <_free_r+0x7c>
   13cd4:	ff043503          	ld	a0,-16(s0)
   13cd8:	40a60633          	sub	a2,a2,a0
   13cdc:	01063803          	ld	a6,16(a2)
   13ce0:	00a787b3          	add	a5,a5,a0
   13ce4:	0001d537          	lui	a0,0x1d
   13ce8:	86050513          	addi	a0,a0,-1952 # 1c860 <__malloc_av_+0x10>
   13cec:	18a80863          	beq	a6,a0,13e7c <_free_r+0x1fc>
   13cf0:	01863503          	ld	a0,24(a2)
   13cf4:	00a83c23          	sd	a0,24(a6) # 10018 <_ftext+0x18>
   13cf8:	01053823          	sd	a6,16(a0)
   13cfc:	00e58533          	add	a0,a1,a4
   13d00:	00853503          	ld	a0,8(a0)
   13d04:	03f51813          	slli	a6,a0,0x3f
   13d08:	02084c63          	bltz	a6,13d40 <_free_r+0xc0>
   13d0c:	0105b503          	ld	a0,16(a1)
   13d10:	00e787b3          	add	a5,a5,a4
   13d14:	0001d737          	lui	a4,0x1d
   13d18:	86070713          	addi	a4,a4,-1952 # 1c860 <__malloc_av_+0x10>
   13d1c:	1ee50663          	beq	a0,a4,13f08 <_free_r+0x288>
   13d20:	0185b803          	ld	a6,24(a1)
   13d24:	00f60733          	add	a4,a2,a5
   13d28:	0017e593          	ori	a1,a5,1
   13d2c:	01053c23          	sd	a6,24(a0)
   13d30:	00a83823          	sd	a0,16(a6)
   13d34:	00b63423          	sd	a1,8(a2)
   13d38:	00f73023          	sd	a5,0(a4)
   13d3c:	0140006f          	j	13d50 <_free_r+0xd0>
   13d40:	0017e593          	ori	a1,a5,1
   13d44:	00f60733          	add	a4,a2,a5
   13d48:	00b63423          	sd	a1,8(a2)
   13d4c:	00f73023          	sd	a5,0(a4)
   13d50:	1ff00713          	li	a4,511
   13d54:	06f76463          	bltu	a4,a5,13dbc <_free_r+0x13c>
   13d58:	0037d793          	srli	a5,a5,0x3
   13d5c:	0007879b          	sext.w	a5,a5
   13d60:	0017871b          	addiw	a4,a5,1
   13d64:	0017171b          	slliw	a4,a4,0x1
   13d68:	ffe70713          	addi	a4,a4,-2
   13d6c:	00371713          	slli	a4,a4,0x3
   13d70:	00e68733          	add	a4,a3,a4
   13d74:	0086b583          	ld	a1,8(a3)
   13d78:	01073803          	ld	a6,16(a4)
   13d7c:	4027d79b          	sraiw	a5,a5,0x2
   13d80:	00100513          	li	a0,1
   13d84:	00f517b3          	sll	a5,a0,a5
   13d88:	00b7e7b3          	or	a5,a5,a1
   13d8c:	00e63c23          	sd	a4,24(a2)
   13d90:	01063823          	sd	a6,16(a2)
   13d94:	00f6b423          	sd	a5,8(a3)
   13d98:	00c73823          	sd	a2,16(a4)
   13d9c:	00c83c23          	sd	a2,24(a6)
   13da0:	00048513          	mv	a0,s1
   13da4:	01813083          	ld	ra,24(sp)
   13da8:	01013403          	ld	s0,16(sp)
   13dac:	00813483          	ld	s1,8(sp)
   13db0:	02010113          	addi	sp,sp,32
   13db4:	0980106f          	j	14e4c <__malloc_unlock>
   13db8:	00008067          	ret
   13dbc:	0097d713          	srli	a4,a5,0x9
   13dc0:	00400593          	li	a1,4
   13dc4:	10e5e263          	bltu	a1,a4,13ec8 <_free_r+0x248>
   13dc8:	0067d713          	srli	a4,a5,0x6
   13dcc:	0007071b          	sext.w	a4,a4
   13dd0:	0397059b          	addiw	a1,a4,57
   13dd4:	0015959b          	slliw	a1,a1,0x1
   13dd8:	0387051b          	addiw	a0,a4,56
   13ddc:	ffe58593          	addi	a1,a1,-2
   13de0:	00359593          	slli	a1,a1,0x3
   13de4:	00b685b3          	add	a1,a3,a1
   13de8:	0105b703          	ld	a4,16(a1)
   13dec:	0eb70e63          	beq	a4,a1,13ee8 <_free_r+0x268>
   13df0:	00873683          	ld	a3,8(a4)
   13df4:	ffc6f693          	andi	a3,a3,-4
   13df8:	00d7f663          	bleu	a3,a5,13e04 <_free_r+0x184>
   13dfc:	01073703          	ld	a4,16(a4)
   13e00:	fee598e3          	bne	a1,a4,13df0 <_free_r+0x170>
   13e04:	01873783          	ld	a5,24(a4)
   13e08:	00048513          	mv	a0,s1
   13e0c:	01813083          	ld	ra,24(sp)
   13e10:	01013403          	ld	s0,16(sp)
   13e14:	00813483          	ld	s1,8(sp)
   13e18:	00f63c23          	sd	a5,24(a2)
   13e1c:	00e63823          	sd	a4,16(a2)
   13e20:	02010113          	addi	sp,sp,32
   13e24:	00c7b823          	sd	a2,16(a5)
   13e28:	00c73c23          	sd	a2,24(a4)
   13e2c:	0200106f          	j	14e4c <__malloc_unlock>
   13e30:	00f707b3          	add	a5,a4,a5
   13e34:	03f51713          	slli	a4,a0,0x3f
   13e38:	02074063          	bltz	a4,13e58 <_free_r+0x1d8>
   13e3c:	ff043503          	ld	a0,-16(s0)
   13e40:	40a60633          	sub	a2,a2,a0
   13e44:	01863703          	ld	a4,24(a2)
   13e48:	01063583          	ld	a1,16(a2)
   13e4c:	00a787b3          	add	a5,a5,a0
   13e50:	00e5bc23          	sd	a4,24(a1)
   13e54:	00b73823          	sd	a1,16(a4)
   13e58:	8281b703          	ld	a4,-2008(gp) # 1d088 <__malloc_trim_threshold>
   13e5c:	0017e593          	ori	a1,a5,1
   13e60:	00b63423          	sd	a1,8(a2)
   13e64:	00c6b823          	sd	a2,16(a3)
   13e68:	f2e7ece3          	bltu	a5,a4,13da0 <_free_r+0x120>
   13e6c:	8d01b583          	ld	a1,-1840(gp) # 1d130 <__malloc_top_pad>
   13e70:	00048513          	mv	a0,s1
   13e74:	cf5ff0ef          	jal	13b68 <_malloc_trim_r>
   13e78:	f29ff06f          	j	13da0 <_free_r+0x120>
   13e7c:	00e586b3          	add	a3,a1,a4
   13e80:	0086b683          	ld	a3,8(a3)
   13e84:	03f69513          	slli	a0,a3,0x3f
   13e88:	02054663          	bltz	a0,13eb4 <_free_r+0x234>
   13e8c:	0185b683          	ld	a3,24(a1)
   13e90:	0105b583          	ld	a1,16(a1)
   13e94:	00e787b3          	add	a5,a5,a4
   13e98:	0017e513          	ori	a0,a5,1
   13e9c:	00f60733          	add	a4,a2,a5
   13ea0:	00d5bc23          	sd	a3,24(a1)
   13ea4:	00b6b823          	sd	a1,16(a3)
   13ea8:	00a63423          	sd	a0,8(a2)
   13eac:	00f73023          	sd	a5,0(a4)
   13eb0:	ef1ff06f          	j	13da0 <_free_r+0x120>
   13eb4:	0017e693          	ori	a3,a5,1
   13eb8:	00f60733          	add	a4,a2,a5
   13ebc:	00d63423          	sd	a3,8(a2)
   13ec0:	00f73023          	sd	a5,0(a4)
   13ec4:	eddff06f          	j	13da0 <_free_r+0x120>
   13ec8:	01400593          	li	a1,20
   13ecc:	06e5e063          	bltu	a1,a4,13f2c <_free_r+0x2ac>
   13ed0:	0007071b          	sext.w	a4,a4
   13ed4:	05c7059b          	addiw	a1,a4,92
   13ed8:	0015959b          	slliw	a1,a1,0x1
   13edc:	05b7051b          	addiw	a0,a4,91
   13ee0:	ffe58593          	addi	a1,a1,-2
   13ee4:	efdff06f          	j	13de0 <_free_r+0x160>
   13ee8:	0086b783          	ld	a5,8(a3)
   13eec:	4025551b          	sraiw	a0,a0,0x2
   13ef0:	00100593          	li	a1,1
   13ef4:	00a59533          	sll	a0,a1,a0
   13ef8:	00f56533          	or	a0,a0,a5
   13efc:	00a6b423          	sd	a0,8(a3)
   13f00:	00070793          	mv	a5,a4
   13f04:	f05ff06f          	j	13e08 <_free_r+0x188>
   13f08:	0017e593          	ori	a1,a5,1
   13f0c:	00f60733          	add	a4,a2,a5
   13f10:	02c6b423          	sd	a2,40(a3)
   13f14:	02c6b023          	sd	a2,32(a3)
   13f18:	00a63c23          	sd	a0,24(a2)
   13f1c:	00a63823          	sd	a0,16(a2)
   13f20:	00b63423          	sd	a1,8(a2)
   13f24:	00f73023          	sd	a5,0(a4)
   13f28:	e79ff06f          	j	13da0 <_free_r+0x120>
   13f2c:	05400593          	li	a1,84
   13f30:	02e5e063          	bltu	a1,a4,13f50 <_free_r+0x2d0>
   13f34:	00c7d713          	srli	a4,a5,0xc
   13f38:	0007071b          	sext.w	a4,a4
   13f3c:	06f7059b          	addiw	a1,a4,111
   13f40:	0015959b          	slliw	a1,a1,0x1
   13f44:	06e7051b          	addiw	a0,a4,110
   13f48:	ffe58593          	addi	a1,a1,-2
   13f4c:	e95ff06f          	j	13de0 <_free_r+0x160>
   13f50:	15400593          	li	a1,340
   13f54:	02e5e063          	bltu	a1,a4,13f74 <_free_r+0x2f4>
   13f58:	00f7d713          	srli	a4,a5,0xf
   13f5c:	0007071b          	sext.w	a4,a4
   13f60:	0787059b          	addiw	a1,a4,120
   13f64:	0015959b          	slliw	a1,a1,0x1
   13f68:	0777051b          	addiw	a0,a4,119
   13f6c:	ffe58593          	addi	a1,a1,-2
   13f70:	e71ff06f          	j	13de0 <_free_r+0x160>
   13f74:	55400813          	li	a6,1364
   13f78:	0fc00593          	li	a1,252
   13f7c:	07e00513          	li	a0,126
   13f80:	e6e860e3          	bltu	a6,a4,13de0 <_free_r+0x160>
   13f84:	0127d713          	srli	a4,a5,0x12
   13f88:	0007071b          	sext.w	a4,a4
   13f8c:	07d7059b          	addiw	a1,a4,125
   13f90:	0015959b          	slliw	a1,a1,0x1
   13f94:	07c7051b          	addiw	a0,a4,124
   13f98:	ffe58593          	addi	a1,a1,-2
   13f9c:	e45ff06f          	j	13de0 <_free_r+0x160>

0000000000013fa0 <_fwalk>:
   13fa0:	fc010113          	addi	sp,sp,-64
   13fa4:	01313c23          	sd	s3,24(sp)
   13fa8:	52050993          	addi	s3,a0,1312
   13fac:	01413823          	sd	s4,16(sp)
   13fb0:	01513423          	sd	s5,8(sp)
   13fb4:	02113c23          	sd	ra,56(sp)
   13fb8:	02813823          	sd	s0,48(sp)
   13fbc:	02913423          	sd	s1,40(sp)
   13fc0:	03213023          	sd	s2,32(sp)
   13fc4:	00058a93          	mv	s5,a1
   13fc8:	00000a13          	li	s4,0
   13fcc:	b6dff0ef          	jal	13b38 <__sfp_lock_acquire>
   13fd0:	04098463          	beqz	s3,14018 <_fwalk+0x78>
   13fd4:	fff00913          	li	s2,-1
   13fd8:	0089a483          	lw	s1,8(s3)
   13fdc:	0109b403          	ld	s0,16(s3)
   13fe0:	fff4849b          	addiw	s1,s1,-1
   13fe4:	0204c663          	bltz	s1,14010 <_fwalk+0x70>
   13fe8:	01041783          	lh	a5,16(s0)
   13fec:	fff4849b          	addiw	s1,s1,-1
   13ff0:	00078c63          	beqz	a5,14008 <_fwalk+0x68>
   13ff4:	01241783          	lh	a5,18(s0)
   13ff8:	00040513          	mv	a0,s0
   13ffc:	01278663          	beq	a5,s2,14008 <_fwalk+0x68>
   14000:	000a80e7          	jalr	s5
   14004:	00aa6a33          	or	s4,s4,a0
   14008:	0a840413          	addi	s0,s0,168
   1400c:	fd249ee3          	bne	s1,s2,13fe8 <_fwalk+0x48>
   14010:	0009b983          	ld	s3,0(s3)
   14014:	fc0992e3          	bnez	s3,13fd8 <_fwalk+0x38>
   14018:	b25ff0ef          	jal	13b3c <__sfp_lock_release>
   1401c:	03813083          	ld	ra,56(sp)
   14020:	000a0513          	mv	a0,s4
   14024:	03013403          	ld	s0,48(sp)
   14028:	02813483          	ld	s1,40(sp)
   1402c:	02013903          	ld	s2,32(sp)
   14030:	01813983          	ld	s3,24(sp)
   14034:	01013a03          	ld	s4,16(sp)
   14038:	00813a83          	ld	s5,8(sp)
   1403c:	04010113          	addi	sp,sp,64
   14040:	00008067          	ret

0000000000014044 <_fwalk_reent>:
   14044:	fc010113          	addi	sp,sp,-64
   14048:	01313c23          	sd	s3,24(sp)
   1404c:	52050993          	addi	s3,a0,1312
   14050:	01413823          	sd	s4,16(sp)
   14054:	01513423          	sd	s5,8(sp)
   14058:	01613023          	sd	s6,0(sp)
   1405c:	02113c23          	sd	ra,56(sp)
   14060:	02813823          	sd	s0,48(sp)
   14064:	02913423          	sd	s1,40(sp)
   14068:	03213023          	sd	s2,32(sp)
   1406c:	00050a93          	mv	s5,a0
   14070:	00058b13          	mv	s6,a1
   14074:	00000a13          	li	s4,0
   14078:	ac1ff0ef          	jal	13b38 <__sfp_lock_acquire>
   1407c:	04098663          	beqz	s3,140c8 <_fwalk_reent+0x84>
   14080:	fff00913          	li	s2,-1
   14084:	0089a483          	lw	s1,8(s3)
   14088:	0109b403          	ld	s0,16(s3)
   1408c:	fff4849b          	addiw	s1,s1,-1
   14090:	0204c863          	bltz	s1,140c0 <_fwalk_reent+0x7c>
   14094:	01041783          	lh	a5,16(s0)
   14098:	fff4849b          	addiw	s1,s1,-1
   1409c:	00078e63          	beqz	a5,140b8 <_fwalk_reent+0x74>
   140a0:	01241783          	lh	a5,18(s0)
   140a4:	00040593          	mv	a1,s0
   140a8:	000a8513          	mv	a0,s5
   140ac:	01278663          	beq	a5,s2,140b8 <_fwalk_reent+0x74>
   140b0:	000b00e7          	jalr	s6
   140b4:	00aa6a33          	or	s4,s4,a0
   140b8:	0a840413          	addi	s0,s0,168
   140bc:	fd249ce3          	bne	s1,s2,14094 <_fwalk_reent+0x50>
   140c0:	0009b983          	ld	s3,0(s3)
   140c4:	fc0990e3          	bnez	s3,14084 <_fwalk_reent+0x40>
   140c8:	a75ff0ef          	jal	13b3c <__sfp_lock_release>
   140cc:	03813083          	ld	ra,56(sp)
   140d0:	000a0513          	mv	a0,s4
   140d4:	03013403          	ld	s0,48(sp)
   140d8:	02813483          	ld	s1,40(sp)
   140dc:	02013903          	ld	s2,32(sp)
   140e0:	01813983          	ld	s3,24(sp)
   140e4:	01013a03          	ld	s4,16(sp)
   140e8:	00813a83          	ld	s5,8(sp)
   140ec:	00013b03          	ld	s6,0(sp)
   140f0:	04010113          	addi	sp,sp,64
   140f4:	00008067          	ret

00000000000140f8 <_setlocale_r>:
   140f8:	fe010113          	addi	sp,sp,-32
   140fc:	00913423          	sd	s1,8(sp)
   14100:	00113c23          	sd	ra,24(sp)
   14104:	00813823          	sd	s0,16(sp)
   14108:	0001b4b7          	lui	s1,0x1b
   1410c:	02060063          	beqz	a2,1412c <_setlocale_r+0x34>
   14110:	0001b5b7          	lui	a1,0x1b
   14114:	00060513          	mv	a0,a2
   14118:	c6858593          	addi	a1,a1,-920 # 1ac68 <__clz_tab+0x180>
   1411c:	00060413          	mv	s0,a2
   14120:	735010ef          	jal	16054 <strcmp>
   14124:	0001b4b7          	lui	s1,0x1b
   14128:	00051e63          	bnez	a0,14144 <_setlocale_r+0x4c>
   1412c:	be848513          	addi	a0,s1,-1048 # 1abe8 <__clz_tab+0x100>
   14130:	01813083          	ld	ra,24(sp)
   14134:	01013403          	ld	s0,16(sp)
   14138:	00813483          	ld	s1,8(sp)
   1413c:	02010113          	addi	sp,sp,32
   14140:	00008067          	ret
   14144:	00040513          	mv	a0,s0
   14148:	be848593          	addi	a1,s1,-1048
   1414c:	709010ef          	jal	16054 <strcmp>
   14150:	fc050ee3          	beqz	a0,1412c <_setlocale_r+0x34>
   14154:	0001b5b7          	lui	a1,0x1b
   14158:	00040513          	mv	a0,s0
   1415c:	c2058593          	addi	a1,a1,-992 # 1ac20 <__clz_tab+0x138>
   14160:	6f5010ef          	jal	16054 <strcmp>
   14164:	fc0504e3          	beqz	a0,1412c <_setlocale_r+0x34>
   14168:	00000513          	li	a0,0
   1416c:	fc5ff06f          	j	14130 <_setlocale_r+0x38>

0000000000014170 <__locale_charset>:
   14170:	0001d537          	lui	a0,0x1d
   14174:	81050513          	addi	a0,a0,-2032 # 1c810 <lc_ctype_charset>
   14178:	00008067          	ret

000000000001417c <__locale_msgcharset>:
   1417c:	0001d537          	lui	a0,0x1d
   14180:	83050513          	addi	a0,a0,-2000 # 1c830 <lc_message_charset>
   14184:	00008067          	ret

0000000000014188 <__locale_cjk_lang>:
   14188:	00000513          	li	a0,0
   1418c:	00008067          	ret

0000000000014190 <_localeconv_r>:
   14190:	0001a537          	lui	a0,0x1a
   14194:	7b050513          	addi	a0,a0,1968 # 1a7b0 <lconv>
   14198:	00008067          	ret

000000000001419c <setlocale>:
   1419c:	00050793          	mv	a5,a0
   141a0:	8101b503          	ld	a0,-2032(gp) # 1d070 <_impure_ptr>
   141a4:	00058613          	mv	a2,a1
   141a8:	00078593          	mv	a1,a5
   141ac:	f4dff06f          	j	140f8 <_setlocale_r>

00000000000141b0 <localeconv>:
   141b0:	0001a537          	lui	a0,0x1a
   141b4:	7b050513          	addi	a0,a0,1968 # 1a7b0 <lconv>
   141b8:	00008067          	ret

00000000000141bc <__smakebuf_r>:
   141bc:	01059783          	lh	a5,16(a1)
   141c0:	f5010113          	addi	sp,sp,-176
   141c4:	08913c23          	sd	s1,152(sp)
   141c8:	03079493          	slli	s1,a5,0x30
   141cc:	0304d493          	srli	s1,s1,0x30
   141d0:	0024f713          	andi	a4,s1,2
   141d4:	0a113423          	sd	ra,168(sp)
   141d8:	0a813023          	sd	s0,160(sp)
   141dc:	09213823          	sd	s2,144(sp)
   141e0:	09313423          	sd	s3,136(sp)
   141e4:	0e071263          	bnez	a4,142c8 <__smakebuf_r+0x10c>
   141e8:	00050913          	mv	s2,a0
   141ec:	01259503          	lh	a0,18(a1)
   141f0:	00058413          	mv	s0,a1
   141f4:	04054c63          	bltz	a0,1424c <__smakebuf_r+0x90>
   141f8:	00010593          	mv	a1,sp
   141fc:	568040ef          	jal	18764 <fstat>
   14200:	04054063          	bltz	a0,14240 <__smakebuf_r+0x84>
   14204:	01012703          	lw	a4,16(sp)
   14208:	0000f7b7          	lui	a5,0xf
   1420c:	ffffe9b7          	lui	s3,0xffffe
   14210:	00f777b3          	and	a5,a4,a5
   14214:	013789bb          	addw	s3,a5,s3
   14218:	00008737          	lui	a4,0x8
   1421c:	0019b993          	seqz	s3,s3
   14220:	0ce78c63          	beq	a5,a4,142f8 <__smakebuf_r+0x13c>
   14224:	01045703          	lhu	a4,16(s0)
   14228:	000017b7          	lui	a5,0x1
   1422c:	8007879b          	addiw	a5,a5,-2048
   14230:	00f767b3          	or	a5,a4,a5
   14234:	00f41823          	sh	a5,16(s0)
   14238:	40000493          	li	s1,1024
   1423c:	0380006f          	j	14274 <__smakebuf_r+0xb8>
   14240:	01041783          	lh	a5,16(s0)
   14244:	03079493          	slli	s1,a5,0x30
   14248:	0304d493          	srli	s1,s1,0x30
   1424c:	0804f493          	andi	s1,s1,128
   14250:	0014b493          	seqz	s1,s1
   14254:	00001737          	lui	a4,0x1
   14258:	409004b3          	neg	s1,s1
   1425c:	8007071b          	addiw	a4,a4,-2048
   14260:	3c04f493          	andi	s1,s1,960
   14264:	00e7e7b3          	or	a5,a5,a4
   14268:	04048493          	addi	s1,s1,64
   1426c:	00f41823          	sh	a5,16(s0)
   14270:	00000993          	li	s3,0
   14274:	00090513          	mv	a0,s2
   14278:	00048593          	mv	a1,s1
   1427c:	0f0000ef          	jal	1436c <_malloc_r>
   14280:	0c050063          	beqz	a0,14340 <__smakebuf_r+0x184>
   14284:	01045783          	lhu	a5,16(s0)
   14288:	00014737          	lui	a4,0x14
   1428c:	80470713          	addi	a4,a4,-2044 # 13804 <_cleanup_r>
   14290:	0807e793          	ori	a5,a5,128
   14294:	04e93c23          	sd	a4,88(s2)
   14298:	00f41823          	sh	a5,16(s0)
   1429c:	00a43023          	sd	a0,0(s0)
   142a0:	00a43c23          	sd	a0,24(s0)
   142a4:	02942023          	sw	s1,32(s0)
   142a8:	06099e63          	bnez	s3,14324 <__smakebuf_r+0x168>
   142ac:	0a813083          	ld	ra,168(sp)
   142b0:	0a013403          	ld	s0,160(sp)
   142b4:	09813483          	ld	s1,152(sp)
   142b8:	09013903          	ld	s2,144(sp)
   142bc:	08813983          	ld	s3,136(sp)
   142c0:	0b010113          	addi	sp,sp,176
   142c4:	00008067          	ret
   142c8:	0a813083          	ld	ra,168(sp)
   142cc:	07758793          	addi	a5,a1,119
   142d0:	00f5b023          	sd	a5,0(a1)
   142d4:	00f5bc23          	sd	a5,24(a1)
   142d8:	00100793          	li	a5,1
   142dc:	0a013403          	ld	s0,160(sp)
   142e0:	09813483          	ld	s1,152(sp)
   142e4:	09013903          	ld	s2,144(sp)
   142e8:	08813983          	ld	s3,136(sp)
   142ec:	02f5a023          	sw	a5,32(a1)
   142f0:	0b010113          	addi	sp,sp,176
   142f4:	00008067          	ret
   142f8:	04843703          	ld	a4,72(s0)
   142fc:	000167b7          	lui	a5,0x16
   14300:	fe078793          	addi	a5,a5,-32 # 15fe0 <__sseek>
   14304:	f2f710e3          	bne	a4,a5,14224 <__smakebuf_r+0x68>
   14308:	01045783          	lhu	a5,16(s0)
   1430c:	40000713          	li	a4,1024
   14310:	08e42423          	sw	a4,136(s0)
   14314:	00e7e7b3          	or	a5,a5,a4
   14318:	00f41823          	sh	a5,16(s0)
   1431c:	40000493          	li	s1,1024
   14320:	f55ff06f          	j	14274 <__smakebuf_r+0xb8>
   14324:	01241503          	lh	a0,18(s0)
   14328:	5c8040ef          	jal	188f0 <isatty>
   1432c:	f80500e3          	beqz	a0,142ac <__smakebuf_r+0xf0>
   14330:	01045783          	lhu	a5,16(s0)
   14334:	0017e793          	ori	a5,a5,1
   14338:	00f41823          	sh	a5,16(s0)
   1433c:	f71ff06f          	j	142ac <__smakebuf_r+0xf0>
   14340:	01041783          	lh	a5,16(s0)
   14344:	2007f713          	andi	a4,a5,512
   14348:	f60712e3          	bnez	a4,142ac <__smakebuf_r+0xf0>
   1434c:	0027e793          	ori	a5,a5,2
   14350:	07740713          	addi	a4,s0,119
   14354:	00f41823          	sh	a5,16(s0)
   14358:	00100793          	li	a5,1
   1435c:	00e43023          	sd	a4,0(s0)
   14360:	00e43c23          	sd	a4,24(s0)
   14364:	02f42023          	sw	a5,32(s0)
   14368:	f45ff06f          	j	142ac <__smakebuf_r+0xf0>

000000000001436c <_malloc_r>:
   1436c:	fa010113          	addi	sp,sp,-96
   14370:	04913423          	sd	s1,72(sp)
   14374:	02e00793          	li	a5,46
   14378:	01758493          	addi	s1,a1,23
   1437c:	05213023          	sd	s2,64(sp)
   14380:	04113c23          	sd	ra,88(sp)
   14384:	04813823          	sd	s0,80(sp)
   14388:	03313c23          	sd	s3,56(sp)
   1438c:	03413823          	sd	s4,48(sp)
   14390:	03513423          	sd	s5,40(sp)
   14394:	03613023          	sd	s6,32(sp)
   14398:	01713c23          	sd	s7,24(sp)
   1439c:	01813823          	sd	s8,16(sp)
   143a0:	01913423          	sd	s9,8(sp)
   143a4:	00050913          	mv	s2,a0
   143a8:	0a97fc63          	bleu	s1,a5,14460 <_malloc_r+0xf4>
   143ac:	800007b7          	lui	a5,0x80000
   143b0:	ff04f493          	andi	s1,s1,-16
   143b4:	fff7c793          	not	a5,a5
   143b8:	2697e263          	bltu	a5,s1,1461c <_malloc_r+0x2b0>
   143bc:	26b4e063          	bltu	s1,a1,1461c <_malloc_r+0x2b0>
   143c0:	289000ef          	jal	14e48 <__malloc_lock>
   143c4:	1f700793          	li	a5,503
   143c8:	0a97e463          	bltu	a5,s1,14470 <_malloc_r+0x104>
   143cc:	0034d693          	srli	a3,s1,0x3
   143d0:	0006869b          	sext.w	a3,a3
   143d4:	0016879b          	addiw	a5,a3,1
   143d8:	0017979b          	slliw	a5,a5,0x1
   143dc:	0001d9b7          	lui	s3,0x1d
   143e0:	ffe78793          	addi	a5,a5,-2 # ffffffff7ffffffe <_gp+0xffffffff7ffe279e>
   143e4:	85098993          	addi	s3,s3,-1968 # 1c850 <__malloc_av_>
   143e8:	00379793          	slli	a5,a5,0x3
   143ec:	00f987b3          	add	a5,s3,a5
   143f0:	0187b403          	ld	s0,24(a5)
   143f4:	52f40a63          	beq	s0,a5,14928 <_malloc_r+0x5bc>
   143f8:	00843783          	ld	a5,8(s0)
   143fc:	01843683          	ld	a3,24(s0)
   14400:	01043603          	ld	a2,16(s0)
   14404:	ffc7f793          	andi	a5,a5,-4
   14408:	00f407b3          	add	a5,s0,a5
   1440c:	0087b703          	ld	a4,8(a5)
   14410:	00090513          	mv	a0,s2
   14414:	00d63c23          	sd	a3,24(a2)
   14418:	00176713          	ori	a4,a4,1
   1441c:	00c6b823          	sd	a2,16(a3)
   14420:	00e7b423          	sd	a4,8(a5)
   14424:	229000ef          	jal	14e4c <__malloc_unlock>
   14428:	01040513          	addi	a0,s0,16
   1442c:	05813083          	ld	ra,88(sp)
   14430:	05013403          	ld	s0,80(sp)
   14434:	04813483          	ld	s1,72(sp)
   14438:	04013903          	ld	s2,64(sp)
   1443c:	03813983          	ld	s3,56(sp)
   14440:	03013a03          	ld	s4,48(sp)
   14444:	02813a83          	ld	s5,40(sp)
   14448:	02013b03          	ld	s6,32(sp)
   1444c:	01813b83          	ld	s7,24(sp)
   14450:	01013c03          	ld	s8,16(sp)
   14454:	00813c83          	ld	s9,8(sp)
   14458:	06010113          	addi	sp,sp,96
   1445c:	00008067          	ret
   14460:	02000493          	li	s1,32
   14464:	1ab4ec63          	bltu	s1,a1,1461c <_malloc_r+0x2b0>
   14468:	1e1000ef          	jal	14e48 <__malloc_lock>
   1446c:	f61ff06f          	j	143cc <_malloc_r+0x60>
   14470:	0094d793          	srli	a5,s1,0x9
   14474:	07e00693          	li	a3,126
   14478:	04000513          	li	a0,64
   1447c:	03f00593          	li	a1,63
   14480:	1a079663          	bnez	a5,1462c <_malloc_r+0x2c0>
   14484:	0001d9b7          	lui	s3,0x1d
   14488:	85098993          	addi	s3,s3,-1968 # 1c850 <__malloc_av_>
   1448c:	00369693          	slli	a3,a3,0x3
   14490:	00d986b3          	add	a3,s3,a3
   14494:	0186b403          	ld	s0,24(a3)
   14498:	1a868c63          	beq	a3,s0,14650 <_malloc_r+0x2e4>
   1449c:	00843783          	ld	a5,8(s0)
   144a0:	01f00613          	li	a2,31
   144a4:	ffc7f793          	andi	a5,a5,-4
   144a8:	40978733          	sub	a4,a5,s1
   144ac:	02e64063          	blt	a2,a4,144cc <_malloc_r+0x160>
   144b0:	1a075463          	bgez	a4,14658 <_malloc_r+0x2ec>
   144b4:	01843403          	ld	s0,24(s0)
   144b8:	18868c63          	beq	a3,s0,14650 <_malloc_r+0x2e4>
   144bc:	00843783          	ld	a5,8(s0)
   144c0:	ffc7f793          	andi	a5,a5,-4
   144c4:	40978733          	sub	a4,a5,s1
   144c8:	fee654e3          	ble	a4,a2,144b0 <_malloc_r+0x144>
   144cc:	00058693          	mv	a3,a1
   144d0:	0209b403          	ld	s0,32(s3)
   144d4:	01098813          	addi	a6,s3,16
   144d8:	43040a63          	beq	s0,a6,1490c <_malloc_r+0x5a0>
   144dc:	00843783          	ld	a5,8(s0)
   144e0:	01f00613          	li	a2,31
   144e4:	ffc7f793          	andi	a5,a5,-4
   144e8:	40978733          	sub	a4,a5,s1
   144ec:	3ee64263          	blt	a2,a4,148d0 <_malloc_r+0x564>
   144f0:	0309b423          	sd	a6,40(s3)
   144f4:	0309b023          	sd	a6,32(s3)
   144f8:	18075863          	bgez	a4,14688 <_malloc_r+0x31c>
   144fc:	1ff00713          	li	a4,511
   14500:	36f76663          	bltu	a4,a5,1486c <_malloc_r+0x500>
   14504:	0037d793          	srli	a5,a5,0x3
   14508:	0007879b          	sext.w	a5,a5
   1450c:	0017861b          	addiw	a2,a5,1
   14510:	0016161b          	slliw	a2,a2,0x1
   14514:	ffe60613          	addi	a2,a2,-2
   14518:	00361613          	slli	a2,a2,0x3
   1451c:	00c98633          	add	a2,s3,a2
   14520:	0089b703          	ld	a4,8(s3)
   14524:	01063503          	ld	a0,16(a2)
   14528:	4027d79b          	sraiw	a5,a5,0x2
   1452c:	00100593          	li	a1,1
   14530:	00f597b3          	sll	a5,a1,a5
   14534:	00e7e7b3          	or	a5,a5,a4
   14538:	00c43c23          	sd	a2,24(s0)
   1453c:	00a43823          	sd	a0,16(s0)
   14540:	00f9b423          	sd	a5,8(s3)
   14544:	00863823          	sd	s0,16(a2)
   14548:	00853c23          	sd	s0,24(a0)
   1454c:	4026d61b          	sraiw	a2,a3,0x2
   14550:	00100713          	li	a4,1
   14554:	00c71633          	sll	a2,a4,a2
   14558:	14c7e863          	bltu	a5,a2,146a8 <_malloc_r+0x33c>
   1455c:	00c7f733          	and	a4,a5,a2
   14560:	02071463          	bnez	a4,14588 <_malloc_r+0x21c>
   14564:	00161613          	slli	a2,a2,0x1
   14568:	ffc6f693          	andi	a3,a3,-4
   1456c:	00c7f733          	and	a4,a5,a2
   14570:	0046869b          	addiw	a3,a3,4
   14574:	00071a63          	bnez	a4,14588 <_malloc_r+0x21c>
   14578:	00161613          	slli	a2,a2,0x1
   1457c:	00c7f733          	and	a4,a5,a2
   14580:	0046869b          	addiw	a3,a3,4
   14584:	fe070ae3          	beqz	a4,14578 <_malloc_r+0x20c>
   14588:	01f00513          	li	a0,31
   1458c:	0016889b          	addiw	a7,a3,1
   14590:	0018989b          	slliw	a7,a7,0x1
   14594:	ffe88893          	addi	a7,a7,-2
   14598:	00389893          	slli	a7,a7,0x3
   1459c:	011988b3          	add	a7,s3,a7
   145a0:	00088593          	mv	a1,a7
   145a4:	00068293          	mv	t0,a3
   145a8:	0185b403          	ld	s0,24(a1)
   145ac:	00859a63          	bne	a1,s0,145c0 <_malloc_r+0x254>
   145b0:	3640006f          	j	14914 <_malloc_r+0x5a8>
   145b4:	38075463          	bgez	a4,1493c <_malloc_r+0x5d0>
   145b8:	01843403          	ld	s0,24(s0)
   145bc:	34858c63          	beq	a1,s0,14914 <_malloc_r+0x5a8>
   145c0:	00843783          	ld	a5,8(s0)
   145c4:	ffc7f793          	andi	a5,a5,-4
   145c8:	40978733          	sub	a4,a5,s1
   145cc:	fee554e3          	ble	a4,a0,145b4 <_malloc_r+0x248>
   145d0:	01843683          	ld	a3,24(s0)
   145d4:	01043603          	ld	a2,16(s0)
   145d8:	009407b3          	add	a5,s0,s1
   145dc:	00176893          	ori	a7,a4,1
   145e0:	00e785b3          	add	a1,a5,a4
   145e4:	0014e493          	ori	s1,s1,1
   145e8:	00943423          	sd	s1,8(s0)
   145ec:	00090513          	mv	a0,s2
   145f0:	00d63c23          	sd	a3,24(a2)
   145f4:	00c6b823          	sd	a2,16(a3)
   145f8:	02f9b423          	sd	a5,40(s3)
   145fc:	02f9b023          	sd	a5,32(s3)
   14600:	0107bc23          	sd	a6,24(a5)
   14604:	0107b823          	sd	a6,16(a5)
   14608:	0117b423          	sd	a7,8(a5)
   1460c:	00e5b023          	sd	a4,0(a1)
   14610:	03d000ef          	jal	14e4c <__malloc_unlock>
   14614:	01040513          	addi	a0,s0,16
   14618:	e15ff06f          	j	1442c <_malloc_r+0xc0>
   1461c:	00c00793          	li	a5,12
   14620:	00f92023          	sw	a5,0(s2)
   14624:	00000513          	li	a0,0
   14628:	e05ff06f          	j	1442c <_malloc_r+0xc0>
   1462c:	00400713          	li	a4,4
   14630:	20f76863          	bltu	a4,a5,14840 <_malloc_r+0x4d4>
   14634:	0064d593          	srli	a1,s1,0x6
   14638:	0005859b          	sext.w	a1,a1
   1463c:	0395851b          	addiw	a0,a1,57
   14640:	0015169b          	slliw	a3,a0,0x1
   14644:	0385859b          	addiw	a1,a1,56
   14648:	ffe68693          	addi	a3,a3,-2
   1464c:	e39ff06f          	j	14484 <_malloc_r+0x118>
   14650:	00050693          	mv	a3,a0
   14654:	e7dff06f          	j	144d0 <_malloc_r+0x164>
   14658:	00f407b3          	add	a5,s0,a5
   1465c:	0087b703          	ld	a4,8(a5)
   14660:	01843683          	ld	a3,24(s0)
   14664:	01043603          	ld	a2,16(s0)
   14668:	00176713          	ori	a4,a4,1
   1466c:	00090513          	mv	a0,s2
   14670:	00d63c23          	sd	a3,24(a2)
   14674:	00c6b823          	sd	a2,16(a3)
   14678:	00e7b423          	sd	a4,8(a5)
   1467c:	7d0000ef          	jal	14e4c <__malloc_unlock>
   14680:	01040513          	addi	a0,s0,16
   14684:	da9ff06f          	j	1442c <_malloc_r+0xc0>
   14688:	00f407b3          	add	a5,s0,a5
   1468c:	0087b703          	ld	a4,8(a5)
   14690:	00090513          	mv	a0,s2
   14694:	00176713          	ori	a4,a4,1
   14698:	00e7b423          	sd	a4,8(a5)
   1469c:	7b0000ef          	jal	14e4c <__malloc_unlock>
   146a0:	01040513          	addi	a0,s0,16
   146a4:	d89ff06f          	j	1442c <_malloc_r+0xc0>
   146a8:	0109b403          	ld	s0,16(s3)
   146ac:	00843b03          	ld	s6,8(s0)
   146b0:	ffcb7b93          	andi	s7,s6,-4
   146b4:	009be863          	bltu	s7,s1,146c4 <_malloc_r+0x358>
   146b8:	409b87b3          	sub	a5,s7,s1
   146bc:	01f00713          	li	a4,31
   146c0:	14f74c63          	blt	a4,a5,14818 <_malloc_r+0x4ac>
   146c4:	8d01b783          	ld	a5,-1840(gp) # 1d130 <__malloc_top_pad>
   146c8:	8201b683          	ld	a3,-2016(gp) # 1d080 <__malloc_sbrk_base>
   146cc:	fff00713          	li	a4,-1
   146d0:	00f487b3          	add	a5,s1,a5
   146d4:	01740a33          	add	s4,s0,s7
   146d8:	02078b13          	addi	s6,a5,32
   146dc:	00e68c63          	beq	a3,a4,146f4 <_malloc_r+0x388>
   146e0:	000016b7          	lui	a3,0x1
   146e4:	01f68b13          	addi	s6,a3,31 # 101f <_ftext-0xefe1>
   146e8:	016786b3          	add	a3,a5,s6
   146ec:	fffff7b7          	lui	a5,0xfffff
   146f0:	00f6fb33          	and	s6,a3,a5
   146f4:	000b0513          	mv	a0,s6
   146f8:	338040ef          	jal	18a30 <sbrk>
   146fc:	fff00793          	li	a5,-1
   14700:	00050a93          	mv	s5,a0
   14704:	2af50263          	beq	a0,a5,149a8 <_malloc_r+0x63c>
   14708:	29456e63          	bltu	a0,s4,149a4 <_malloc_r+0x638>
   1470c:	91818c13          	addi	s8,gp,-1768 # 1d178 <__malloc_current_mallinfo>
   14710:	000c2783          	lw	a5,0(s8)
   14714:	00fb07bb          	addw	a5,s6,a5
   14718:	00fc2023          	sw	a5,0(s8)
   1471c:	395a0e63          	beq	s4,s5,14ab8 <_malloc_r+0x74c>
   14720:	8201b683          	ld	a3,-2016(gp) # 1d080 <__malloc_sbrk_base>
   14724:	fff00713          	li	a4,-1
   14728:	3ce68663          	beq	a3,a4,14af4 <_malloc_r+0x788>
   1472c:	414a8a33          	sub	s4,s5,s4
   14730:	00fa07bb          	addw	a5,s4,a5
   14734:	00fc2023          	sw	a5,0(s8)
   14738:	00faf713          	andi	a4,s5,15
   1473c:	000017b7          	lui	a5,0x1
   14740:	00070a63          	beqz	a4,14754 <_malloc_r+0x3e8>
   14744:	40ea8ab3          	sub	s5,s5,a4
   14748:	01078a13          	addi	s4,a5,16 # 1010 <_ftext-0xeff0>
   1474c:	010a8a93          	addi	s5,s5,16
   14750:	40ea07b3          	sub	a5,s4,a4
   14754:	00001a37          	lui	s4,0x1
   14758:	fffa0a13          	addi	s4,s4,-1 # fff <_ftext-0xf001>
   1475c:	016a8b33          	add	s6,s5,s6
   14760:	014b7b33          	and	s6,s6,s4
   14764:	41678a33          	sub	s4,a5,s6
   14768:	000a0513          	mv	a0,s4
   1476c:	2c4040ef          	jal	18a30 <sbrk>
   14770:	fff00793          	li	a5,-1
   14774:	36f50a63          	beq	a0,a5,14ae8 <_malloc_r+0x77c>
   14778:	41550733          	sub	a4,a0,s5
   1477c:	00ea0733          	add	a4,s4,a4
   14780:	00176713          	ori	a4,a4,1
   14784:	000a0a1b          	sext.w	s4,s4
   14788:	000c2783          	lw	a5,0(s8)
   1478c:	0159b823          	sd	s5,16(s3)
   14790:	00eab423          	sd	a4,8(s5)
   14794:	00fa07bb          	addw	a5,s4,a5
   14798:	00fc2023          	sw	a5,0(s8)
   1479c:	03340c63          	beq	s0,s3,147d4 <_malloc_r+0x468>
   147a0:	01f00613          	li	a2,31
   147a4:	29767663          	bleu	s7,a2,14a30 <_malloc_r+0x6c4>
   147a8:	fe8b8713          	addi	a4,s7,-24
   147ac:	ff077713          	andi	a4,a4,-16
   147b0:	00e406b3          	add	a3,s0,a4
   147b4:	00900593          	li	a1,9
   147b8:	00b6b423          	sd	a1,8(a3)
   147bc:	00b6b823          	sd	a1,16(a3)
   147c0:	00843683          	ld	a3,8(s0)
   147c4:	0016f693          	andi	a3,a3,1
   147c8:	00d766b3          	or	a3,a4,a3
   147cc:	00d43423          	sd	a3,8(s0)
   147d0:	30e66263          	bltu	a2,a4,14ad4 <_malloc_r+0x768>
   147d4:	8c81b683          	ld	a3,-1848(gp) # 1d128 <__malloc_max_sbrked_mem>
   147d8:	00f6f463          	bleu	a5,a3,147e0 <_malloc_r+0x474>
   147dc:	8cf1b423          	sd	a5,-1848(gp) # 1d128 <__malloc_max_sbrked_mem>
   147e0:	8c01b683          	ld	a3,-1856(gp) # 1d120 <__malloc_max_total_mem>
   147e4:	0109b403          	ld	s0,16(s3)
   147e8:	00f6f463          	bleu	a5,a3,147f0 <_malloc_r+0x484>
   147ec:	8cf1b023          	sd	a5,-1856(gp) # 1d120 <__malloc_max_total_mem>
   147f0:	00843703          	ld	a4,8(s0)
   147f4:	ffc77713          	andi	a4,a4,-4
   147f8:	409707b3          	sub	a5,a4,s1
   147fc:	00976663          	bltu	a4,s1,14808 <_malloc_r+0x49c>
   14800:	01f00713          	li	a4,31
   14804:	00f74a63          	blt	a4,a5,14818 <_malloc_r+0x4ac>
   14808:	00090513          	mv	a0,s2
   1480c:	640000ef          	jal	14e4c <__malloc_unlock>
   14810:	00000513          	li	a0,0
   14814:	c19ff06f          	j	1442c <_malloc_r+0xc0>
   14818:	00940733          	add	a4,s0,s1
   1481c:	0017e793          	ori	a5,a5,1
   14820:	0014e493          	ori	s1,s1,1
   14824:	00943423          	sd	s1,8(s0)
   14828:	00090513          	mv	a0,s2
   1482c:	00e9b823          	sd	a4,16(s3)
   14830:	00f73423          	sd	a5,8(a4)
   14834:	618000ef          	jal	14e4c <__malloc_unlock>
   14838:	01040513          	addi	a0,s0,16
   1483c:	bf1ff06f          	j	1442c <_malloc_r+0xc0>
   14840:	01400713          	li	a4,20
   14844:	12f77463          	bleu	a5,a4,1496c <_malloc_r+0x600>
   14848:	05400713          	li	a4,84
   1484c:	1cf76063          	bltu	a4,a5,14a0c <_malloc_r+0x6a0>
   14850:	00c4d593          	srli	a1,s1,0xc
   14854:	0005859b          	sext.w	a1,a1
   14858:	06f5851b          	addiw	a0,a1,111
   1485c:	0015169b          	slliw	a3,a0,0x1
   14860:	06e5859b          	addiw	a1,a1,110
   14864:	ffe68693          	addi	a3,a3,-2
   14868:	c1dff06f          	j	14484 <_malloc_r+0x118>
   1486c:	0097d713          	srli	a4,a5,0x9
   14870:	00400613          	li	a2,4
   14874:	10e66863          	bltu	a2,a4,14984 <_malloc_r+0x618>
   14878:	0067d713          	srli	a4,a5,0x6
   1487c:	0007071b          	sext.w	a4,a4
   14880:	0397059b          	addiw	a1,a4,57
   14884:	0015959b          	slliw	a1,a1,0x1
   14888:	0387051b          	addiw	a0,a4,56
   1488c:	ffe58593          	addi	a1,a1,-2
   14890:	00359593          	slli	a1,a1,0x3
   14894:	00b985b3          	add	a1,s3,a1
   14898:	0105b703          	ld	a4,16(a1)
   1489c:	1ab70463          	beq	a4,a1,14a44 <_malloc_r+0x6d8>
   148a0:	00873603          	ld	a2,8(a4)
   148a4:	ffc67613          	andi	a2,a2,-4
   148a8:	00c7f663          	bleu	a2,a5,148b4 <_malloc_r+0x548>
   148ac:	01073703          	ld	a4,16(a4)
   148b0:	fee598e3          	bne	a1,a4,148a0 <_malloc_r+0x534>
   148b4:	01873603          	ld	a2,24(a4)
   148b8:	0089b783          	ld	a5,8(s3)
   148bc:	00c43c23          	sd	a2,24(s0)
   148c0:	00e43823          	sd	a4,16(s0)
   148c4:	00863823          	sd	s0,16(a2)
   148c8:	00873c23          	sd	s0,24(a4)
   148cc:	c81ff06f          	j	1454c <_malloc_r+0x1e0>
   148d0:	009407b3          	add	a5,s0,s1
   148d4:	00176613          	ori	a2,a4,1
   148d8:	00e786b3          	add	a3,a5,a4
   148dc:	0014e493          	ori	s1,s1,1
   148e0:	00943423          	sd	s1,8(s0)
   148e4:	00090513          	mv	a0,s2
   148e8:	02f9b423          	sd	a5,40(s3)
   148ec:	02f9b023          	sd	a5,32(s3)
   148f0:	0107bc23          	sd	a6,24(a5)
   148f4:	0107b823          	sd	a6,16(a5)
   148f8:	00c7b423          	sd	a2,8(a5)
   148fc:	00e6b023          	sd	a4,0(a3)
   14900:	54c000ef          	jal	14e4c <__malloc_unlock>
   14904:	01040513          	addi	a0,s0,16
   14908:	b25ff06f          	j	1442c <_malloc_r+0xc0>
   1490c:	0089b783          	ld	a5,8(s3)
   14910:	c3dff06f          	j	1454c <_malloc_r+0x1e0>
   14914:	0012829b          	addiw	t0,t0,1
   14918:	03e29713          	slli	a4,t0,0x3e
   1491c:	01058593          	addi	a1,a1,16
   14920:	c80714e3          	bnez	a4,145a8 <_malloc_r+0x23c>
   14924:	0a00006f          	j	149c4 <_malloc_r+0x658>
   14928:	01040793          	addi	a5,s0,16
   1492c:	02843403          	ld	s0,40(s0)
   14930:	0026869b          	addiw	a3,a3,2
   14934:	b8878ee3          	beq	a5,s0,144d0 <_malloc_r+0x164>
   14938:	ac1ff06f          	j	143f8 <_malloc_r+0x8c>
   1493c:	00f407b3          	add	a5,s0,a5
   14940:	0087b703          	ld	a4,8(a5)
   14944:	01843683          	ld	a3,24(s0)
   14948:	01043603          	ld	a2,16(s0)
   1494c:	00176713          	ori	a4,a4,1
   14950:	00e7b423          	sd	a4,8(a5)
   14954:	00090513          	mv	a0,s2
   14958:	00d63c23          	sd	a3,24(a2)
   1495c:	00c6b823          	sd	a2,16(a3)
   14960:	4ec000ef          	jal	14e4c <__malloc_unlock>
   14964:	01040513          	addi	a0,s0,16
   14968:	ac5ff06f          	j	1442c <_malloc_r+0xc0>
   1496c:	0007859b          	sext.w	a1,a5
   14970:	05c5851b          	addiw	a0,a1,92
   14974:	0015169b          	slliw	a3,a0,0x1
   14978:	05b5859b          	addiw	a1,a1,91
   1497c:	ffe68693          	addi	a3,a3,-2
   14980:	b05ff06f          	j	14484 <_malloc_r+0x118>
   14984:	01400613          	li	a2,20
   14988:	10e66663          	bltu	a2,a4,14a94 <_malloc_r+0x728>
   1498c:	0007071b          	sext.w	a4,a4
   14990:	05c7059b          	addiw	a1,a4,92
   14994:	0015959b          	slliw	a1,a1,0x1
   14998:	05b7051b          	addiw	a0,a4,91
   1499c:	ffe58593          	addi	a1,a1,-2
   149a0:	ef1ff06f          	j	14890 <_malloc_r+0x524>
   149a4:	d73404e3          	beq	s0,s3,1470c <_malloc_r+0x3a0>
   149a8:	0109b403          	ld	s0,16(s3)
   149ac:	00843703          	ld	a4,8(s0)
   149b0:	ffc77713          	andi	a4,a4,-4
   149b4:	e45ff06f          	j	147f8 <_malloc_r+0x48c>
   149b8:	0008b883          	ld	a7,0(a7)
   149bc:	fff6869b          	addiw	a3,a3,-1
   149c0:	18f89663          	bne	a7,a5,14b4c <_malloc_r+0x7e0>
   149c4:	03e69713          	slli	a4,a3,0x3e
   149c8:	ff088793          	addi	a5,a7,-16
   149cc:	fe0716e3          	bnez	a4,149b8 <_malloc_r+0x64c>
   149d0:	0089b783          	ld	a5,8(s3)
   149d4:	fff64713          	not	a4,a2
   149d8:	00f777b3          	and	a5,a4,a5
   149dc:	00f9b423          	sd	a5,8(s3)
   149e0:	00161613          	slli	a2,a2,0x1
   149e4:	ccc7e2e3          	bltu	a5,a2,146a8 <_malloc_r+0x33c>
   149e8:	cc0600e3          	beqz	a2,146a8 <_malloc_r+0x33c>
   149ec:	00c7f733          	and	a4,a5,a2
   149f0:	00028693          	mv	a3,t0
   149f4:	b8071ce3          	bnez	a4,1458c <_malloc_r+0x220>
   149f8:	00161613          	slli	a2,a2,0x1
   149fc:	00c7f733          	and	a4,a5,a2
   14a00:	0046869b          	addiw	a3,a3,4
   14a04:	fe070ae3          	beqz	a4,149f8 <_malloc_r+0x68c>
   14a08:	b85ff06f          	j	1458c <_malloc_r+0x220>
   14a0c:	15400713          	li	a4,340
   14a10:	04f76a63          	bltu	a4,a5,14a64 <_malloc_r+0x6f8>
   14a14:	00f4d593          	srli	a1,s1,0xf
   14a18:	0005859b          	sext.w	a1,a1
   14a1c:	0785851b          	addiw	a0,a1,120
   14a20:	0015169b          	slliw	a3,a0,0x1
   14a24:	0775859b          	addiw	a1,a1,119
   14a28:	ffe68693          	addi	a3,a3,-2
   14a2c:	a59ff06f          	j	14484 <_malloc_r+0x118>
   14a30:	00100793          	li	a5,1
   14a34:	00fab423          	sd	a5,8(s5)
   14a38:	000a8413          	mv	s0,s5
   14a3c:	00000713          	li	a4,0
   14a40:	db9ff06f          	j	147f8 <_malloc_r+0x48c>
   14a44:	0089b603          	ld	a2,8(s3)
   14a48:	00100793          	li	a5,1
   14a4c:	4025551b          	sraiw	a0,a0,0x2
   14a50:	00a79533          	sll	a0,a5,a0
   14a54:	00c567b3          	or	a5,a0,a2
   14a58:	00f9b423          	sd	a5,8(s3)
   14a5c:	00070613          	mv	a2,a4
   14a60:	e5dff06f          	j	148bc <_malloc_r+0x550>
   14a64:	55400713          	li	a4,1364
   14a68:	0fc00693          	li	a3,252
   14a6c:	07f00513          	li	a0,127
   14a70:	07e00593          	li	a1,126
   14a74:	a0f768e3          	bltu	a4,a5,14484 <_malloc_r+0x118>
   14a78:	0124d593          	srli	a1,s1,0x12
   14a7c:	0005859b          	sext.w	a1,a1
   14a80:	07d5851b          	addiw	a0,a1,125
   14a84:	0015169b          	slliw	a3,a0,0x1
   14a88:	07c5859b          	addiw	a1,a1,124
   14a8c:	ffe68693          	addi	a3,a3,-2
   14a90:	9f5ff06f          	j	14484 <_malloc_r+0x118>
   14a94:	05400613          	li	a2,84
   14a98:	06e66263          	bltu	a2,a4,14afc <_malloc_r+0x790>
   14a9c:	00c7d713          	srli	a4,a5,0xc
   14aa0:	0007071b          	sext.w	a4,a4
   14aa4:	06f7059b          	addiw	a1,a4,111
   14aa8:	0015959b          	slliw	a1,a1,0x1
   14aac:	06e7051b          	addiw	a0,a4,110
   14ab0:	ffe58593          	addi	a1,a1,-2
   14ab4:	dddff06f          	j	14890 <_malloc_r+0x524>
   14ab8:	034a1713          	slli	a4,s4,0x34
   14abc:	c60712e3          	bnez	a4,14720 <_malloc_r+0x3b4>
   14ac0:	0109b703          	ld	a4,16(s3)
   14ac4:	017b0b33          	add	s6,s6,s7
   14ac8:	001b6b13          	ori	s6,s6,1
   14acc:	01673423          	sd	s6,8(a4)
   14ad0:	d05ff06f          	j	147d4 <_malloc_r+0x468>
   14ad4:	00090513          	mv	a0,s2
   14ad8:	01040593          	addi	a1,s0,16
   14adc:	9a4ff0ef          	jal	13c80 <_free_r>
   14ae0:	000c2783          	lw	a5,0(s8)
   14ae4:	cf1ff06f          	j	147d4 <_malloc_r+0x468>
   14ae8:	00100713          	li	a4,1
   14aec:	00000a13          	li	s4,0
   14af0:	c99ff06f          	j	14788 <_malloc_r+0x41c>
   14af4:	8351b023          	sd	s5,-2016(gp) # 1d080 <__malloc_sbrk_base>
   14af8:	c41ff06f          	j	14738 <_malloc_r+0x3cc>
   14afc:	15400613          	li	a2,340
   14b00:	02e66063          	bltu	a2,a4,14b20 <_malloc_r+0x7b4>
   14b04:	00f7d713          	srli	a4,a5,0xf
   14b08:	0007071b          	sext.w	a4,a4
   14b0c:	0787059b          	addiw	a1,a4,120
   14b10:	0015959b          	slliw	a1,a1,0x1
   14b14:	0777051b          	addiw	a0,a4,119
   14b18:	ffe58593          	addi	a1,a1,-2
   14b1c:	d75ff06f          	j	14890 <_malloc_r+0x524>
   14b20:	55400613          	li	a2,1364
   14b24:	0fc00593          	li	a1,252
   14b28:	07e00513          	li	a0,126
   14b2c:	d6e662e3          	bltu	a2,a4,14890 <_malloc_r+0x524>
   14b30:	0127d713          	srli	a4,a5,0x12
   14b34:	0007071b          	sext.w	a4,a4
   14b38:	07d7059b          	addiw	a1,a4,125
   14b3c:	0015959b          	slliw	a1,a1,0x1
   14b40:	07c7051b          	addiw	a0,a4,124
   14b44:	ffe58593          	addi	a1,a1,-2
   14b48:	d49ff06f          	j	14890 <_malloc_r+0x524>
   14b4c:	0089b783          	ld	a5,8(s3)
   14b50:	e91ff06f          	j	149e0 <_malloc_r+0x674>

0000000000014b54 <memchr>:
   14b54:	03d51713          	slli	a4,a0,0x3d
   14b58:	0ff5f813          	andi	a6,a1,255
   14b5c:	0c070863          	beqz	a4,14c2c <memchr+0xd8>
   14b60:	fff60793          	addi	a5,a2,-1
   14b64:	06060463          	beqz	a2,14bcc <memchr+0x78>
   14b68:	00054703          	lbu	a4,0(a0)
   14b6c:	07070263          	beq	a4,a6,14bd0 <memchr+0x7c>
   14b70:	00080693          	mv	a3,a6
   14b74:	0140006f          	j	14b88 <memchr+0x34>
   14b78:	04078a63          	beqz	a5,14bcc <memchr+0x78>
   14b7c:	00054703          	lbu	a4,0(a0)
   14b80:	fff78793          	addi	a5,a5,-1
   14b84:	04d70663          	beq	a4,a3,14bd0 <memchr+0x7c>
   14b88:	00150513          	addi	a0,a0,1
   14b8c:	03d51713          	slli	a4,a0,0x3d
   14b90:	fe0714e3          	bnez	a4,14b78 <memchr+0x24>
   14b94:	00700613          	li	a2,7
   14b98:	02f66e63          	bltu	a2,a5,14bd4 <memchr+0x80>
   14b9c:	02078863          	beqz	a5,14bcc <memchr+0x78>
   14ba0:	00054703          	lbu	a4,0(a0)
   14ba4:	09070863          	beq	a4,a6,14c34 <memchr+0xe0>
   14ba8:	00150713          	addi	a4,a0,1
   14bac:	00f507b3          	add	a5,a0,a5
   14bb0:	00080693          	mv	a3,a6
   14bb4:	0100006f          	j	14bc4 <memchr+0x70>
   14bb8:	00170713          	addi	a4,a4,1
   14bbc:	fff74603          	lbu	a2,-1(a4)
   14bc0:	06d60463          	beq	a2,a3,14c28 <memchr+0xd4>
   14bc4:	00070513          	mv	a0,a4
   14bc8:	fef718e3          	bne	a4,a5,14bb8 <memchr+0x64>
   14bcc:	00000513          	li	a0,0
   14bd0:	00008067          	ret
   14bd4:	0ff5f593          	andi	a1,a1,255
   14bd8:	0085971b          	slliw	a4,a1,0x8
   14bdc:	00b76733          	or	a4,a4,a1
   14be0:	01071693          	slli	a3,a4,0x10
   14be4:	00e6e733          	or	a4,a3,a4
   14be8:	8881b283          	ld	t0,-1912(gp) # 1d0e8 <__wctomb+0x58>
   14bec:	8901b883          	ld	a7,-1904(gp) # 1d0f0 <__wctomb+0x60>
   14bf0:	02071693          	slli	a3,a4,0x20
   14bf4:	00e6e6b3          	or	a3,a3,a4
   14bf8:	00060593          	mv	a1,a2
   14bfc:	00053703          	ld	a4,0(a0)
   14c00:	00e6c733          	xor	a4,a3,a4
   14c04:	00570633          	add	a2,a4,t0
   14c08:	fff74713          	not	a4,a4
   14c0c:	00e67733          	and	a4,a2,a4
   14c10:	01177733          	and	a4,a4,a7
   14c14:	f80714e3          	bnez	a4,14b9c <memchr+0x48>
   14c18:	ff878793          	addi	a5,a5,-8
   14c1c:	00850513          	addi	a0,a0,8
   14c20:	fcf5eee3          	bltu	a1,a5,14bfc <memchr+0xa8>
   14c24:	f79ff06f          	j	14b9c <memchr+0x48>
   14c28:	00008067          	ret
   14c2c:	00060793          	mv	a5,a2
   14c30:	f65ff06f          	j	14b94 <memchr+0x40>
   14c34:	00008067          	ret

0000000000014c38 <memcpy>:
   14c38:	00a5c7b3          	xor	a5,a1,a0
   14c3c:	03d79713          	slli	a4,a5,0x3d
   14c40:	00c508b3          	add	a7,a0,a2
   14c44:	0e071263          	bnez	a4,14d28 <memcpy+0xf0>
   14c48:	00700793          	li	a5,7
   14c4c:	0ec7fe63          	bleu	a2,a5,14d48 <memcpy+0x110>
   14c50:	03d51793          	slli	a5,a0,0x3d
   14c54:	04079a63          	bnez	a5,14ca8 <memcpy+0x70>
   14c58:	ff88f813          	andi	a6,a7,-8
   14c5c:	fc080793          	addi	a5,a6,-64
   14c60:	00050713          	mv	a4,a0
   14c64:	06f56663          	bltu	a0,a5,14cd0 <memcpy+0x98>
   14c68:	00058693          	mv	a3,a1
   14c6c:	00070793          	mv	a5,a4
   14c70:	03077863          	bleu	a6,a4,14ca0 <memcpy+0x68>
   14c74:	0006b603          	ld	a2,0(a3)
   14c78:	00878793          	addi	a5,a5,8
   14c7c:	00868693          	addi	a3,a3,8
   14c80:	fec7bc23          	sd	a2,-8(a5)
   14c84:	ff07e8e3          	bltu	a5,a6,14c74 <memcpy+0x3c>
   14c88:	fff74793          	not	a5,a4
   14c8c:	01078833          	add	a6,a5,a6
   14c90:	ff887813          	andi	a6,a6,-8
   14c94:	00880813          	addi	a6,a6,8
   14c98:	01070733          	add	a4,a4,a6
   14c9c:	010585b3          	add	a1,a1,a6
   14ca0:	09176863          	bltu	a4,a7,14d30 <memcpy+0xf8>
   14ca4:	00008067          	ret
   14ca8:	00050713          	mv	a4,a0
   14cac:	0005c783          	lbu	a5,0(a1)
   14cb0:	00170713          	addi	a4,a4,1
   14cb4:	00158593          	addi	a1,a1,1
   14cb8:	fef70fa3          	sb	a5,-1(a4)
   14cbc:	03d71793          	slli	a5,a4,0x3d
   14cc0:	fe0796e3          	bnez	a5,14cac <memcpy+0x74>
   14cc4:	ff88f813          	andi	a6,a7,-8
   14cc8:	fc080793          	addi	a5,a6,-64
   14ccc:	f8f77ee3          	bleu	a5,a4,14c68 <memcpy+0x30>
   14cd0:	0005bf83          	ld	t6,0(a1)
   14cd4:	0085bf03          	ld	t5,8(a1)
   14cd8:	0105be83          	ld	t4,16(a1)
   14cdc:	0185be03          	ld	t3,24(a1)
   14ce0:	0205b383          	ld	t2,32(a1)
   14ce4:	0285b303          	ld	t1,40(a1)
   14ce8:	0305b283          	ld	t0,48(a1)
   14cec:	0385b603          	ld	a2,56(a1)
   14cf0:	04858593          	addi	a1,a1,72
   14cf4:	04870713          	addi	a4,a4,72
   14cf8:	ff85b683          	ld	a3,-8(a1)
   14cfc:	fbf73c23          	sd	t6,-72(a4)
   14d00:	fde73023          	sd	t5,-64(a4)
   14d04:	fdd73423          	sd	t4,-56(a4)
   14d08:	fdc73823          	sd	t3,-48(a4)
   14d0c:	fc773c23          	sd	t2,-40(a4)
   14d10:	fe673023          	sd	t1,-32(a4)
   14d14:	fe573423          	sd	t0,-24(a4)
   14d18:	fec73823          	sd	a2,-16(a4)
   14d1c:	fed73c23          	sd	a3,-8(a4)
   14d20:	faf768e3          	bltu	a4,a5,14cd0 <memcpy+0x98>
   14d24:	f45ff06f          	j	14c68 <memcpy+0x30>
   14d28:	00050713          	mv	a4,a0
   14d2c:	03157e63          	bleu	a7,a0,14d68 <memcpy+0x130>
   14d30:	0005c783          	lbu	a5,0(a1)
   14d34:	00170713          	addi	a4,a4,1
   14d38:	00158593          	addi	a1,a1,1
   14d3c:	fef70fa3          	sb	a5,-1(a4)
   14d40:	ff1768e3          	bltu	a4,a7,14d30 <memcpy+0xf8>
   14d44:	00008067          	ret
   14d48:	00050713          	mv	a4,a0
   14d4c:	f5157ce3          	bleu	a7,a0,14ca4 <memcpy+0x6c>
   14d50:	0005c783          	lbu	a5,0(a1)
   14d54:	00170713          	addi	a4,a4,1
   14d58:	00158593          	addi	a1,a1,1
   14d5c:	fef70fa3          	sb	a5,-1(a4)
   14d60:	fd1768e3          	bltu	a4,a7,14d30 <memcpy+0xf8>
   14d64:	fe1ff06f          	j	14d44 <memcpy+0x10c>
   14d68:	00008067          	ret

0000000000014d6c <memset>:
   14d6c:	00f00813          	li	a6,15
   14d70:	00050713          	mv	a4,a0
   14d74:	02c87a63          	bleu	a2,a6,14da8 <memset+0x3c>
   14d78:	00f77793          	andi	a5,a4,15
   14d7c:	0a079063          	bnez	a5,14e1c <memset+0xb0>
   14d80:	06059e63          	bnez	a1,14dfc <memset+0x90>
   14d84:	ff067693          	andi	a3,a2,-16
   14d88:	00f67613          	andi	a2,a2,15
   14d8c:	00e686b3          	add	a3,a3,a4
   14d90:	00b73023          	sd	a1,0(a4)
   14d94:	00b73423          	sd	a1,8(a4)
   14d98:	01070713          	addi	a4,a4,16
   14d9c:	fed76ae3          	bltu	a4,a3,14d90 <memset+0x24>
   14da0:	00061463          	bnez	a2,14da8 <memset+0x3c>
   14da4:	00008067          	ret
   14da8:	40c806b3          	sub	a3,a6,a2
   14dac:	00269693          	slli	a3,a3,0x2
   14db0:	00000297          	auipc	t0,0x0
   14db4:	005686b3          	add	a3,a3,t0
   14db8:	00c68067          	jr	a3,12
   14dbc:	00b70723          	sb	a1,14(a4)
   14dc0:	00b706a3          	sb	a1,13(a4)
   14dc4:	00b70623          	sb	a1,12(a4)
   14dc8:	00b705a3          	sb	a1,11(a4)
   14dcc:	00b70523          	sb	a1,10(a4)
   14dd0:	00b704a3          	sb	a1,9(a4)
   14dd4:	00b70423          	sb	a1,8(a4)
   14dd8:	00b703a3          	sb	a1,7(a4)
   14ddc:	00b70323          	sb	a1,6(a4)
   14de0:	00b702a3          	sb	a1,5(a4)
   14de4:	00b70223          	sb	a1,4(a4)
   14de8:	00b701a3          	sb	a1,3(a4)
   14dec:	00b70123          	sb	a1,2(a4)
   14df0:	00b700a3          	sb	a1,1(a4)
   14df4:	00b70023          	sb	a1,0(a4)
   14df8:	00008067          	ret
   14dfc:	0ff5f593          	andi	a1,a1,255
   14e00:	00859693          	slli	a3,a1,0x8
   14e04:	00d5e5b3          	or	a1,a1,a3
   14e08:	01059693          	slli	a3,a1,0x10
   14e0c:	00d5e5b3          	or	a1,a1,a3
   14e10:	02059693          	slli	a3,a1,0x20
   14e14:	00d5e5b3          	or	a1,a1,a3
   14e18:	f6dff06f          	j	14d84 <memset+0x18>
   14e1c:	00279693          	slli	a3,a5,0x2
   14e20:	00000297          	auipc	t0,0x0
   14e24:	005686b3          	add	a3,a3,t0
   14e28:	00008293          	mv	t0,ra
   14e2c:	f98680e7          	jalr	a3,-104
   14e30:	00028093          	mv	ra,t0
   14e34:	ff078793          	addi	a5,a5,-16
   14e38:	40f70733          	sub	a4,a4,a5
   14e3c:	00f60633          	add	a2,a2,a5
   14e40:	f6c874e3          	bleu	a2,a6,14da8 <memset+0x3c>
   14e44:	f3dff06f          	j	14d80 <memset+0x14>

0000000000014e48 <__malloc_lock>:
   14e48:	00008067          	ret

0000000000014e4c <__malloc_unlock>:
   14e4c:	00008067          	ret

0000000000014e50 <_Balloc>:
   14e50:	07853783          	ld	a5,120(a0)
   14e54:	fe010113          	addi	sp,sp,-32
   14e58:	00813823          	sd	s0,16(sp)
   14e5c:	00913423          	sd	s1,8(sp)
   14e60:	00113c23          	sd	ra,24(sp)
   14e64:	01213023          	sd	s2,0(sp)
   14e68:	00050413          	mv	s0,a0
   14e6c:	00058493          	mv	s1,a1
   14e70:	02078e63          	beqz	a5,14eac <_Balloc+0x5c>
   14e74:	00349713          	slli	a4,s1,0x3
   14e78:	00e78733          	add	a4,a5,a4
   14e7c:	00073503          	ld	a0,0(a4)
   14e80:	04050663          	beqz	a0,14ecc <_Balloc+0x7c>
   14e84:	00053683          	ld	a3,0(a0)
   14e88:	00d73023          	sd	a3,0(a4)
   14e8c:	00052a23          	sw	zero,20(a0)
   14e90:	00052823          	sw	zero,16(a0)
   14e94:	01813083          	ld	ra,24(sp)
   14e98:	01013403          	ld	s0,16(sp)
   14e9c:	00813483          	ld	s1,8(sp)
   14ea0:	00013903          	ld	s2,0(sp)
   14ea4:	02010113          	addi	sp,sp,32
   14ea8:	00008067          	ret
   14eac:	00800593          	li	a1,8
   14eb0:	04100613          	li	a2,65
   14eb4:	51c020ef          	jal	173d0 <_calloc_r>
   14eb8:	00050793          	mv	a5,a0
   14ebc:	06a43c23          	sd	a0,120(s0)
   14ec0:	fa051ae3          	bnez	a0,14e74 <_Balloc+0x24>
   14ec4:	00000513          	li	a0,0
   14ec8:	fcdff06f          	j	14e94 <_Balloc+0x44>
   14ecc:	00100913          	li	s2,1
   14ed0:	0099193b          	sllw	s2,s2,s1
   14ed4:	fff9061b          	addiw	a2,s2,-1
   14ed8:	00860613          	addi	a2,a2,8
   14edc:	00040513          	mv	a0,s0
   14ee0:	00100593          	li	a1,1
   14ee4:	00261613          	slli	a2,a2,0x2
   14ee8:	4e8020ef          	jal	173d0 <_calloc_r>
   14eec:	fc050ce3          	beqz	a0,14ec4 <_Balloc+0x74>
   14ef0:	00952423          	sw	s1,8(a0)
   14ef4:	01252623          	sw	s2,12(a0)
   14ef8:	f95ff06f          	j	14e8c <_Balloc+0x3c>

0000000000014efc <_Bfree>:
   14efc:	02058063          	beqz	a1,14f1c <_Bfree+0x20>
   14f00:	0085a783          	lw	a5,8(a1)
   14f04:	07853703          	ld	a4,120(a0)
   14f08:	00379793          	slli	a5,a5,0x3
   14f0c:	00f707b3          	add	a5,a4,a5
   14f10:	0007b703          	ld	a4,0(a5)
   14f14:	00e5b023          	sd	a4,0(a1)
   14f18:	00b7b023          	sd	a1,0(a5)
   14f1c:	00008067          	ret

0000000000014f20 <__multadd>:
   14f20:	fc010113          	addi	sp,sp,-64
   14f24:	02813823          	sd	s0,48(sp)
   14f28:	0145a403          	lw	s0,20(a1)
   14f2c:	000102b7          	lui	t0,0x10
   14f30:	02913423          	sd	s1,40(sp)
   14f34:	03213023          	sd	s2,32(sp)
   14f38:	02113c23          	sd	ra,56(sp)
   14f3c:	01313c23          	sd	s3,24(sp)
   14f40:	00058493          	mv	s1,a1
   14f44:	00050913          	mv	s2,a0
   14f48:	01858813          	addi	a6,a1,24
   14f4c:	00000893          	li	a7,0
   14f50:	fff2829b          	addiw	t0,t0,-1
   14f54:	00082703          	lw	a4,0(a6)
   14f58:	0018889b          	addiw	a7,a7,1
   14f5c:	00480813          	addi	a6,a6,4
   14f60:	005777b3          	and	a5,a4,t0
   14f64:	02c787bb          	mulw	a5,a5,a2
   14f68:	0107571b          	srliw	a4,a4,0x10
   14f6c:	02c7073b          	mulw	a4,a4,a2
   14f70:	00d786bb          	addw	a3,a5,a3
   14f74:	0106d79b          	srliw	a5,a3,0x10
   14f78:	0056f6b3          	and	a3,a3,t0
   14f7c:	00e7873b          	addw	a4,a5,a4
   14f80:	0107179b          	slliw	a5,a4,0x10
   14f84:	00d787bb          	addw	a5,a5,a3
   14f88:	fef82e23          	sw	a5,-4(a6)
   14f8c:	0107569b          	srliw	a3,a4,0x10
   14f90:	fc88c2e3          	blt	a7,s0,14f54 <__multadd+0x34>
   14f94:	02068263          	beqz	a3,14fb8 <__multadd+0x98>
   14f98:	00c4a783          	lw	a5,12(s1)
   14f9c:	02f45e63          	ble	a5,s0,14fd8 <__multadd+0xb8>
   14fa0:	00440793          	addi	a5,s0,4
   14fa4:	00279793          	slli	a5,a5,0x2
   14fa8:	00f487b3          	add	a5,s1,a5
   14fac:	0014041b          	addiw	s0,s0,1
   14fb0:	00d7a423          	sw	a3,8(a5)
   14fb4:	0084aa23          	sw	s0,20(s1)
   14fb8:	03813083          	ld	ra,56(sp)
   14fbc:	00048513          	mv	a0,s1
   14fc0:	03013403          	ld	s0,48(sp)
   14fc4:	02813483          	ld	s1,40(sp)
   14fc8:	02013903          	ld	s2,32(sp)
   14fcc:	01813983          	ld	s3,24(sp)
   14fd0:	04010113          	addi	sp,sp,64
   14fd4:	00008067          	ret
   14fd8:	0084a583          	lw	a1,8(s1)
   14fdc:	00090513          	mv	a0,s2
   14fe0:	00d13423          	sd	a3,8(sp)
   14fe4:	0015859b          	addiw	a1,a1,1
   14fe8:	e69ff0ef          	jal	14e50 <_Balloc>
   14fec:	0144a603          	lw	a2,20(s1)
   14ff0:	00050993          	mv	s3,a0
   14ff4:	01048593          	addi	a1,s1,16
   14ff8:	00260613          	addi	a2,a2,2
   14ffc:	01050513          	addi	a0,a0,16
   15000:	00261613          	slli	a2,a2,0x2
   15004:	c35ff0ef          	jal	14c38 <memcpy>
   15008:	0084a783          	lw	a5,8(s1)
   1500c:	07893703          	ld	a4,120(s2)
   15010:	00813683          	ld	a3,8(sp)
   15014:	00379793          	slli	a5,a5,0x3
   15018:	00f707b3          	add	a5,a4,a5
   1501c:	0007b703          	ld	a4,0(a5)
   15020:	00e4b023          	sd	a4,0(s1)
   15024:	0097b023          	sd	s1,0(a5)
   15028:	00098493          	mv	s1,s3
   1502c:	f75ff06f          	j	14fa0 <__multadd+0x80>

0000000000015030 <__s2b>:
   15030:	fc010113          	addi	sp,sp,-64
   15034:	0086879b          	addiw	a5,a3,8
   15038:	03213023          	sd	s2,32(sp)
   1503c:	00068913          	mv	s2,a3
   15040:	00900693          	li	a3,9
   15044:	02d7c6bb          	divw	a3,a5,a3
   15048:	00100793          	li	a5,1
   1504c:	02813823          	sd	s0,48(sp)
   15050:	02913423          	sd	s1,40(sp)
   15054:	01313c23          	sd	s3,24(sp)
   15058:	01413823          	sd	s4,16(sp)
   1505c:	00058413          	mv	s0,a1
   15060:	02113c23          	sd	ra,56(sp)
   15064:	01513423          	sd	s5,8(sp)
   15068:	01613023          	sd	s6,0(sp)
   1506c:	00050993          	mv	s3,a0
   15070:	00060a13          	mv	s4,a2
   15074:	00070493          	mv	s1,a4
   15078:	00000593          	li	a1,0
   1507c:	00d7d863          	ble	a3,a5,1508c <__s2b+0x5c>
   15080:	0017979b          	slliw	a5,a5,0x1
   15084:	0015859b          	addiw	a1,a1,1
   15088:	fed7cce3          	blt	a5,a3,15080 <__s2b+0x50>
   1508c:	00098513          	mv	a0,s3
   15090:	dc1ff0ef          	jal	14e50 <_Balloc>
   15094:	00100713          	li	a4,1
   15098:	00900793          	li	a5,9
   1509c:	00050593          	mv	a1,a0
   150a0:	00952c23          	sw	s1,24(a0)
   150a4:	00e52a23          	sw	a4,20(a0)
   150a8:	0b47d863          	ble	s4,a5,15158 <__s2b+0x128>
   150ac:	ff6a0b1b          	addiw	s6,s4,-10
   150b0:	020b1b13          	slli	s6,s6,0x20
   150b4:	020b5b13          	srli	s6,s6,0x20
   150b8:	00940a93          	addi	s5,s0,9
   150bc:	00ab0793          	addi	a5,s6,10
   150c0:	00f40433          	add	s0,s0,a5
   150c4:	000a8493          	mv	s1,s5
   150c8:	00148493          	addi	s1,s1,1
   150cc:	fff4c683          	lbu	a3,-1(s1)
   150d0:	00098513          	mv	a0,s3
   150d4:	00a00613          	li	a2,10
   150d8:	fd06869b          	addiw	a3,a3,-48
   150dc:	e45ff0ef          	jal	14f20 <__multadd>
   150e0:	00050593          	mv	a1,a0
   150e4:	fe8492e3          	bne	s1,s0,150c8 <__s2b+0x98>
   150e8:	016a8433          	add	s0,s5,s6
   150ec:	00240413          	addi	s0,s0,2
   150f0:	032a5e63          	ble	s2,s4,1512c <__s2b+0xfc>
   150f4:	fff9091b          	addiw	s2,s2,-1
   150f8:	414904bb          	subw	s1,s2,s4
   150fc:	02049493          	slli	s1,s1,0x20
   15100:	0204d493          	srli	s1,s1,0x20
   15104:	00148493          	addi	s1,s1,1
   15108:	009404b3          	add	s1,s0,s1
   1510c:	00140413          	addi	s0,s0,1
   15110:	fff44683          	lbu	a3,-1(s0)
   15114:	00098513          	mv	a0,s3
   15118:	00a00613          	li	a2,10
   1511c:	fd06869b          	addiw	a3,a3,-48
   15120:	e01ff0ef          	jal	14f20 <__multadd>
   15124:	00050593          	mv	a1,a0
   15128:	fe9412e3          	bne	s0,s1,1510c <__s2b+0xdc>
   1512c:	03813083          	ld	ra,56(sp)
   15130:	00058513          	mv	a0,a1
   15134:	03013403          	ld	s0,48(sp)
   15138:	02813483          	ld	s1,40(sp)
   1513c:	02013903          	ld	s2,32(sp)
   15140:	01813983          	ld	s3,24(sp)
   15144:	01013a03          	ld	s4,16(sp)
   15148:	00813a83          	ld	s5,8(sp)
   1514c:	00013b03          	ld	s6,0(sp)
   15150:	04010113          	addi	sp,sp,64
   15154:	00008067          	ret
   15158:	00a40413          	addi	s0,s0,10
   1515c:	00078a13          	mv	s4,a5
   15160:	f91ff06f          	j	150f0 <__s2b+0xc0>

0000000000015164 <__hi0bits>:
   15164:	ffff06b7          	lui	a3,0xffff0
   15168:	00d576b3          	and	a3,a0,a3
   1516c:	00050793          	mv	a5,a0
   15170:	00000713          	li	a4,0
   15174:	00069663          	bnez	a3,15180 <__hi0bits+0x1c>
   15178:	0105179b          	slliw	a5,a0,0x10
   1517c:	01000713          	li	a4,16
   15180:	ff0006b7          	lui	a3,0xff000
   15184:	00d7f6b3          	and	a3,a5,a3
   15188:	00069663          	bnez	a3,15194 <__hi0bits+0x30>
   1518c:	0087071b          	addiw	a4,a4,8
   15190:	0087979b          	slliw	a5,a5,0x8
   15194:	f00006b7          	lui	a3,0xf0000
   15198:	00d7f6b3          	and	a3,a5,a3
   1519c:	00069663          	bnez	a3,151a8 <__hi0bits+0x44>
   151a0:	0047071b          	addiw	a4,a4,4
   151a4:	0047979b          	slliw	a5,a5,0x4
   151a8:	c00006b7          	lui	a3,0xc0000
   151ac:	00d7f6b3          	and	a3,a5,a3
   151b0:	00069663          	bnez	a3,151bc <__hi0bits+0x58>
   151b4:	0027071b          	addiw	a4,a4,2
   151b8:	0027979b          	slliw	a5,a5,0x2
   151bc:	00070513          	mv	a0,a4
   151c0:	0007c863          	bltz	a5,151d0 <__hi0bits+0x6c>
   151c4:	02179693          	slli	a3,a5,0x21
   151c8:	02000513          	li	a0,32
   151cc:	0006c463          	bltz	a3,151d4 <__hi0bits+0x70>
   151d0:	00008067          	ret
   151d4:	0017051b          	addiw	a0,a4,1
   151d8:	00008067          	ret

00000000000151dc <__lo0bits>:
   151dc:	00052783          	lw	a5,0(a0)
   151e0:	00050693          	mv	a3,a0
   151e4:	03d79613          	slli	a2,a5,0x3d
   151e8:	02060463          	beqz	a2,15210 <__lo0bits+0x34>
   151ec:	03f79713          	slli	a4,a5,0x3f
   151f0:	00000513          	li	a0,0
   151f4:	08074263          	bltz	a4,15278 <__lo0bits+0x9c>
   151f8:	03e79613          	slli	a2,a5,0x3e
   151fc:	08064063          	bltz	a2,1527c <__lo0bits+0xa0>
   15200:	0027d79b          	srliw	a5,a5,0x2
   15204:	00f6a023          	sw	a5,0(a3) # ffffffffc0000000 <_gp+0xffffffffbffe27a0>
   15208:	00200513          	li	a0,2
   1520c:	00008067          	ret
   15210:	0107961b          	slliw	a2,a5,0x10
   15214:	0106561b          	srliw	a2,a2,0x10
   15218:	00000713          	li	a4,0
   1521c:	00061663          	bnez	a2,15228 <__lo0bits+0x4c>
   15220:	0107d79b          	srliw	a5,a5,0x10
   15224:	01000713          	li	a4,16
   15228:	0ff7f613          	andi	a2,a5,255
   1522c:	00061663          	bnez	a2,15238 <__lo0bits+0x5c>
   15230:	0087071b          	addiw	a4,a4,8
   15234:	0087d79b          	srliw	a5,a5,0x8
   15238:	03c79613          	slli	a2,a5,0x3c
   1523c:	00061663          	bnez	a2,15248 <__lo0bits+0x6c>
   15240:	0047071b          	addiw	a4,a4,4
   15244:	0047d79b          	srliw	a5,a5,0x4
   15248:	03e79613          	slli	a2,a5,0x3e
   1524c:	00061663          	bnez	a2,15258 <__lo0bits+0x7c>
   15250:	0027071b          	addiw	a4,a4,2
   15254:	0027d79b          	srliw	a5,a5,0x2
   15258:	03f79613          	slli	a2,a5,0x3f
   1525c:	00064a63          	bltz	a2,15270 <__lo0bits+0x94>
   15260:	0017d79b          	srliw	a5,a5,0x1
   15264:	02000513          	li	a0,32
   15268:	00078863          	beqz	a5,15278 <__lo0bits+0x9c>
   1526c:	0017071b          	addiw	a4,a4,1
   15270:	00f6a023          	sw	a5,0(a3)
   15274:	00070513          	mv	a0,a4
   15278:	00008067          	ret
   1527c:	0017d79b          	srliw	a5,a5,0x1
   15280:	00f6a023          	sw	a5,0(a3)
   15284:	00100513          	li	a0,1
   15288:	00008067          	ret

000000000001528c <__i2b>:
   1528c:	ff010113          	addi	sp,sp,-16
   15290:	00813023          	sd	s0,0(sp)
   15294:	00058413          	mv	s0,a1
   15298:	00100593          	li	a1,1
   1529c:	00113423          	sd	ra,8(sp)
   152a0:	bb1ff0ef          	jal	14e50 <_Balloc>
   152a4:	00813083          	ld	ra,8(sp)
   152a8:	00100713          	li	a4,1
   152ac:	00852c23          	sw	s0,24(a0)
   152b0:	00e52a23          	sw	a4,20(a0)
   152b4:	00013403          	ld	s0,0(sp)
   152b8:	01010113          	addi	sp,sp,16
   152bc:	00008067          	ret

00000000000152c0 <__multiply>:
   152c0:	fd010113          	addi	sp,sp,-48
   152c4:	01313423          	sd	s3,8(sp)
   152c8:	01413023          	sd	s4,0(sp)
   152cc:	01462983          	lw	s3,20(a2)
   152d0:	0145aa03          	lw	s4,20(a1)
   152d4:	00913c23          	sd	s1,24(sp)
   152d8:	01213823          	sd	s2,16(sp)
   152dc:	02113423          	sd	ra,40(sp)
   152e0:	02813023          	sd	s0,32(sp)
   152e4:	00058913          	mv	s2,a1
   152e8:	00060493          	mv	s1,a2
   152ec:	1d3a4063          	blt	s4,s3,154ac <__multiply+0x1ec>
   152f0:	00098793          	mv	a5,s3
   152f4:	000a0993          	mv	s3,s4
   152f8:	00078a13          	mv	s4,a5
   152fc:	00c92783          	lw	a5,12(s2)
   15300:	00892583          	lw	a1,8(s2)
   15304:	0149843b          	addw	s0,s3,s4
   15308:	0087a7b3          	slt	a5,a5,s0
   1530c:	00f585bb          	addw	a1,a1,a5
   15310:	b41ff0ef          	jal	14e50 <_Balloc>
   15314:	00040893          	mv	a7,s0
   15318:	01850293          	addi	t0,a0,24
   1531c:	00289893          	slli	a7,a7,0x2
   15320:	011288b3          	add	a7,t0,a7
   15324:	00028793          	mv	a5,t0
   15328:	0112f863          	bleu	a7,t0,15338 <__multiply+0x78>
   1532c:	0007a023          	sw	zero,0(a5)
   15330:	00478793          	addi	a5,a5,4
   15334:	ff17ece3          	bltu	a5,a7,1532c <__multiply+0x6c>
   15338:	01848613          	addi	a2,s1,24
   1533c:	002a1313          	slli	t1,s4,0x2
   15340:	01890393          	addi	t2,s2,24
   15344:	00299813          	slli	a6,s3,0x2
   15348:	000105b7          	lui	a1,0x10
   1534c:	00660333          	add	t1,a2,t1
   15350:	01038833          	add	a6,t2,a6
   15354:	fff5859b          	addiw	a1,a1,-1
   15358:	10667463          	bleu	t1,a2,15460 <__multiply+0x1a0>
   1535c:	00062f83          	lw	t6,0(a2)
   15360:	00bff933          	and	s2,t6,a1
   15364:	06090a63          	beqz	s2,153d8 <__multiply+0x118>
   15368:	00028f93          	mv	t6,t0
   1536c:	00038f13          	mv	t5,t2
   15370:	00000693          	li	a3,0
   15374:	0080006f          	j	1537c <__multiply+0xbc>
   15378:	00048f93          	mv	t6,s1
   1537c:	000f2e03          	lw	t3,0(t5)
   15380:	000fae83          	lw	t4,0(t6)
   15384:	004f8493          	addi	s1,t6,4
   15388:	00be7733          	and	a4,t3,a1
   1538c:	0327073b          	mulw	a4,a4,s2
   15390:	010e5e1b          	srliw	t3,t3,0x10
   15394:	00bef7b3          	and	a5,t4,a1
   15398:	010ede9b          	srliw	t4,t4,0x10
   1539c:	004f0f13          	addi	t5,t5,4
   153a0:	032e0e3b          	mulw	t3,t3,s2
   153a4:	00f7073b          	addw	a4,a4,a5
   153a8:	00d707bb          	addw	a5,a4,a3
   153ac:	0107d69b          	srliw	a3,a5,0x10
   153b0:	00b7f7b3          	and	a5,a5,a1
   153b4:	01de0e3b          	addw	t3,t3,t4
   153b8:	00de06bb          	addw	a3,t3,a3
   153bc:	0106971b          	slliw	a4,a3,0x10
   153c0:	00f76733          	or	a4,a4,a5
   153c4:	0106d69b          	srliw	a3,a3,0x10
   153c8:	fee4ae23          	sw	a4,-4(s1)
   153cc:	fb0f66e3          	bltu	t5,a6,15378 <__multiply+0xb8>
   153d0:	00dfa223          	sw	a3,4(t6)
   153d4:	00062f83          	lw	t6,0(a2)
   153d8:	010fdf9b          	srliw	t6,t6,0x10
   153dc:	060f8c63          	beqz	t6,15454 <__multiply+0x194>
   153e0:	0002a783          	lw	a5,0(t0) # 10000 <_ftext>
   153e4:	00028f13          	mv	t5,t0
   153e8:	00038e93          	mv	t4,t2
   153ec:	00078e13          	mv	t3,a5
   153f0:	00000913          	li	s2,0
   153f4:	0080006f          	j	153fc <__multiply+0x13c>
   153f8:	00048f13          	mv	t5,s1
   153fc:	000ea703          	lw	a4,0(t4)
   15400:	010e569b          	srliw	a3,t3,0x10
   15404:	00b7f7b3          	and	a5,a5,a1
   15408:	00b77733          	and	a4,a4,a1
   1540c:	03f7073b          	mulw	a4,a4,t6
   15410:	004f0493          	addi	s1,t5,4
   15414:	004e8e93          	addi	t4,t4,4
   15418:	00d706bb          	addw	a3,a4,a3
   1541c:	012686bb          	addw	a3,a3,s2
   15420:	0106971b          	slliw	a4,a3,0x10
   15424:	00f767b3          	or	a5,a4,a5
   15428:	fef4ae23          	sw	a5,-4(s1)
   1542c:	ffeed703          	lhu	a4,-2(t4)
   15430:	004f2e03          	lw	t3,4(t5)
   15434:	0106d69b          	srliw	a3,a3,0x10
   15438:	03f7073b          	mulw	a4,a4,t6
   1543c:	00be77b3          	and	a5,t3,a1
   15440:	00f707bb          	addw	a5,a4,a5
   15444:	00d787bb          	addw	a5,a5,a3
   15448:	0107d91b          	srliw	s2,a5,0x10
   1544c:	fb0ee6e3          	bltu	t4,a6,153f8 <__multiply+0x138>
   15450:	00ff2223          	sw	a5,4(t5)
   15454:	00460613          	addi	a2,a2,4
   15458:	00428293          	addi	t0,t0,4
   1545c:	f06660e3          	bltu	a2,t1,1535c <__multiply+0x9c>
